Archive member included to satisfy reference by file (symbol)

c:/develop/altera/15.0/nios2eds/bin/gnu/h-x86_64-mingw32/bin/../lib/gcc/nios2-elf/4.9.1/../../../../../H-x86_64-mingw32/nios2-elf/lib/mhw-mulx\libc.a(lib_a-malloc.o)
                              obj/default/wav_player.o (malloc)
c:/develop/altera/15.0/nios2eds/bin/gnu/h-x86_64-mingw32/bin/../lib/gcc/nios2-elf/4.9.1/../../../../../H-x86_64-mingw32/nios2-elf/lib/mhw-mulx\libc.a(lib_a-mallocr.o)
                              c:/develop/altera/15.0/nios2eds/bin/gnu/h-x86_64-mingw32/bin/../lib/gcc/nios2-elf/4.9.1/../../../../../H-x86_64-mingw32/nios2-elf/lib/mhw-mulx\libc.a(lib_a-malloc.o) (_malloc_r)
c:/develop/altera/15.0/nios2eds/bin/gnu/h-x86_64-mingw32/bin/../lib/gcc/nios2-elf/4.9.1/../../../../../H-x86_64-mingw32/nios2-elf/lib/mhw-mulx\libc.a(lib_a-memcpy.o)
                              obj/default/mmcfs/fatfs/ff.o (memcpy)
c:/develop/altera/15.0/nios2eds/bin/gnu/h-x86_64-mingw32/bin/../lib/gcc/nios2-elf/4.9.1/../../../../../H-x86_64-mingw32/nios2-elf/lib/mhw-mulx\libc.a(lib_a-memset.o)
                              obj/default/mmcfs/fatfs/ff.o (memset)
c:/develop/altera/15.0/nios2eds/bin/gnu/h-x86_64-mingw32/bin/../lib/gcc/nios2-elf/4.9.1/../../../../../H-x86_64-mingw32/nios2-elf/lib/mhw-mulx\libc.a(lib_a-printf.o)
                              obj/default/loadbmp.o (printf)
c:/develop/altera/15.0/nios2eds/bin/gnu/h-x86_64-mingw32/bin/../lib/gcc/nios2-elf/4.9.1/../../../../../H-x86_64-mingw32/nios2-elf/lib/mhw-mulx\libc.a(lib_a-puts.o)
                              obj/default/loadbmp.o (puts)
c:/develop/altera/15.0/nios2eds/bin/gnu/h-x86_64-mingw32/bin/../lib/gcc/nios2-elf/4.9.1/../../../../../H-x86_64-mingw32/nios2-elf/lib/mhw-mulx\libc.a(lib_a-sbrkr.o)
                              c:/develop/altera/15.0/nios2eds/bin/gnu/h-x86_64-mingw32/bin/../lib/gcc/nios2-elf/4.9.1/../../../../../H-x86_64-mingw32/nios2-elf/lib/mhw-mulx\libc.a(lib_a-mallocr.o) (_sbrk_r)
c:/develop/altera/15.0/nios2eds/bin/gnu/h-x86_64-mingw32/bin/../lib/gcc/nios2-elf/4.9.1/../../../../../H-x86_64-mingw32/nios2-elf/lib/mhw-mulx\libc.a(lib_a-strcpy.o)
                              obj/default/wav_player.o (strcpy)
c:/develop/altera/15.0/nios2eds/bin/gnu/h-x86_64-mingw32/bin/../lib/gcc/nios2-elf/4.9.1/../../../../../H-x86_64-mingw32/nios2-elf/lib/mhw-mulx\libc.a(lib_a-strlen.o)
                              obj/default/getfilename.o (strlen)
c:/develop/altera/15.0/nios2eds/bin/gnu/h-x86_64-mingw32/bin/../lib/gcc/nios2-elf/4.9.1/../../../../../H-x86_64-mingw32/nios2-elf/lib/mhw-mulx\libc.a(lib_a-vfprintf.o)
                              c:/develop/altera/15.0/nios2eds/bin/gnu/h-x86_64-mingw32/bin/../lib/gcc/nios2-elf/4.9.1/../../../../../H-x86_64-mingw32/nios2-elf/lib/mhw-mulx\libc.a(lib_a-printf.o) (___vfprintf_internal_r)
c:/develop/altera/15.0/nios2eds/bin/gnu/h-x86_64-mingw32/bin/../lib/gcc/nios2-elf/4.9.1/../../../../../H-x86_64-mingw32/nios2-elf/lib/mhw-mulx\libc.a(lib_a-wsetup.o)
                              c:/develop/altera/15.0/nios2eds/bin/gnu/h-x86_64-mingw32/bin/../lib/gcc/nios2-elf/4.9.1/../../../../../H-x86_64-mingw32/nios2-elf/lib/mhw-mulx\libc.a(lib_a-vfprintf.o) (__swsetup_r)
c:/develop/altera/15.0/nios2eds/bin/gnu/h-x86_64-mingw32/bin/../lib/gcc/nios2-elf/4.9.1/../../../../../H-x86_64-mingw32/nios2-elf/lib/mhw-mulx\libc.a(lib_a-dtoa.o)
                              c:/develop/altera/15.0/nios2eds/bin/gnu/h-x86_64-mingw32/bin/../lib/gcc/nios2-elf/4.9.1/../../../../../H-x86_64-mingw32/nios2-elf/lib/mhw-mulx\libc.a(lib_a-vfprintf.o) (_dtoa_r)
c:/develop/altera/15.0/nios2eds/bin/gnu/h-x86_64-mingw32/bin/../lib/gcc/nios2-elf/4.9.1/../../../../../H-x86_64-mingw32/nios2-elf/lib/mhw-mulx\libc.a(lib_a-fflush.o)
                              c:/develop/altera/15.0/nios2eds/bin/gnu/h-x86_64-mingw32/bin/../lib/gcc/nios2-elf/4.9.1/../../../../../H-x86_64-mingw32/nios2-elf/lib/mhw-mulx\libc.a(lib_a-vfprintf.o) (_fflush_r)
c:/develop/altera/15.0/nios2eds/bin/gnu/h-x86_64-mingw32/bin/../lib/gcc/nios2-elf/4.9.1/../../../../../H-x86_64-mingw32/nios2-elf/lib/mhw-mulx\libc.a(lib_a-findfp.o)
                              c:/develop/altera/15.0/nios2eds/bin/gnu/h-x86_64-mingw32/bin/../lib/gcc/nios2-elf/4.9.1/../../../../../H-x86_64-mingw32/nios2-elf/lib/mhw-mulx\libc.a(lib_a-vfprintf.o) (__sinit)
c:/develop/altera/15.0/nios2eds/bin/gnu/h-x86_64-mingw32/bin/../lib/gcc/nios2-elf/4.9.1/../../../../../H-x86_64-mingw32/nios2-elf/lib/mhw-mulx\libc.a(lib_a-freer.o)
                              c:/develop/altera/15.0/nios2eds/bin/gnu/h-x86_64-mingw32/bin/../lib/gcc/nios2-elf/4.9.1/../../../../../H-x86_64-mingw32/nios2-elf/lib/mhw-mulx\libc.a(lib_a-malloc.o) (_free_r)
c:/develop/altera/15.0/nios2eds/bin/gnu/h-x86_64-mingw32/bin/../lib/gcc/nios2-elf/4.9.1/../../../../../H-x86_64-mingw32/nios2-elf/lib/mhw-mulx\libc.a(lib_a-fvwrite.o)
                              c:/develop/altera/15.0/nios2eds/bin/gnu/h-x86_64-mingw32/bin/../lib/gcc/nios2-elf/4.9.1/../../../../../H-x86_64-mingw32/nios2-elf/lib/mhw-mulx\libc.a(lib_a-puts.o) (__sfvwrite_r)
c:/develop/altera/15.0/nios2eds/bin/gnu/h-x86_64-mingw32/bin/../lib/gcc/nios2-elf/4.9.1/../../../../../H-x86_64-mingw32/nios2-elf/lib/mhw-mulx\libc.a(lib_a-fwalk.o)
                              c:/develop/altera/15.0/nios2eds/bin/gnu/h-x86_64-mingw32/bin/../lib/gcc/nios2-elf/4.9.1/../../../../../H-x86_64-mingw32/nios2-elf/lib/mhw-mulx\libc.a(lib_a-findfp.o) (_fwalk)
c:/develop/altera/15.0/nios2eds/bin/gnu/h-x86_64-mingw32/bin/../lib/gcc/nios2-elf/4.9.1/../../../../../H-x86_64-mingw32/nios2-elf/lib/mhw-mulx\libc.a(lib_a-impure.o)
                              c:/develop/altera/15.0/nios2eds/bin/gnu/h-x86_64-mingw32/bin/../lib/gcc/nios2-elf/4.9.1/../../../../../H-x86_64-mingw32/nios2-elf/lib/mhw-mulx\libc.a(lib_a-fflush.o) (_global_impure_ptr)
c:/develop/altera/15.0/nios2eds/bin/gnu/h-x86_64-mingw32/bin/../lib/gcc/nios2-elf/4.9.1/../../../../../H-x86_64-mingw32/nios2-elf/lib/mhw-mulx\libc.a(lib_a-int_errno.o)
                              c:/develop/altera/15.0/nios2eds/bin/gnu/h-x86_64-mingw32/bin/../lib/gcc/nios2-elf/4.9.1/../../../../../H-x86_64-mingw32/nios2-elf/lib/mhw-mulx\libc.a(lib_a-sbrkr.o) (errno)
c:/develop/altera/15.0/nios2eds/bin/gnu/h-x86_64-mingw32/bin/../lib/gcc/nios2-elf/4.9.1/../../../../../H-x86_64-mingw32/nios2-elf/lib/mhw-mulx\libc.a(lib_a-locale.o)
                              c:/develop/altera/15.0/nios2eds/bin/gnu/h-x86_64-mingw32/bin/../lib/gcc/nios2-elf/4.9.1/../../../../../H-x86_64-mingw32/nios2-elf/lib/mhw-mulx\libc.a(lib_a-vfprintf.o) (_localeconv_r)
c:/develop/altera/15.0/nios2eds/bin/gnu/h-x86_64-mingw32/bin/../lib/gcc/nios2-elf/4.9.1/../../../../../H-x86_64-mingw32/nios2-elf/lib/mhw-mulx\libc.a(lib_a-makebuf.o)
                              c:/develop/altera/15.0/nios2eds/bin/gnu/h-x86_64-mingw32/bin/../lib/gcc/nios2-elf/4.9.1/../../../../../H-x86_64-mingw32/nios2-elf/lib/mhw-mulx\libc.a(lib_a-wsetup.o) (__smakebuf_r)
c:/develop/altera/15.0/nios2eds/bin/gnu/h-x86_64-mingw32/bin/../lib/gcc/nios2-elf/4.9.1/../../../../../H-x86_64-mingw32/nios2-elf/lib/mhw-mulx\libc.a(lib_a-memchr.o)
                              c:/develop/altera/15.0/nios2eds/bin/gnu/h-x86_64-mingw32/bin/../lib/gcc/nios2-elf/4.9.1/../../../../../H-x86_64-mingw32/nios2-elf/lib/mhw-mulx\libc.a(lib_a-vfprintf.o) (memchr)
c:/develop/altera/15.0/nios2eds/bin/gnu/h-x86_64-mingw32/bin/../lib/gcc/nios2-elf/4.9.1/../../../../../H-x86_64-mingw32/nios2-elf/lib/mhw-mulx\libc.a(lib_a-memmove.o)
                              c:/develop/altera/15.0/nios2eds/bin/gnu/h-x86_64-mingw32/bin/../lib/gcc/nios2-elf/4.9.1/../../../../../H-x86_64-mingw32/nios2-elf/lib/mhw-mulx\libc.a(lib_a-fvwrite.o) (memmove)
c:/develop/altera/15.0/nios2eds/bin/gnu/h-x86_64-mingw32/bin/../lib/gcc/nios2-elf/4.9.1/../../../../../H-x86_64-mingw32/nios2-elf/lib/mhw-mulx\libc.a(lib_a-mprec.o)
                              c:/develop/altera/15.0/nios2eds/bin/gnu/h-x86_64-mingw32/bin/../lib/gcc/nios2-elf/4.9.1/../../../../../H-x86_64-mingw32/nios2-elf/lib/mhw-mulx\libc.a(lib_a-dtoa.o) (_Balloc)
c:/develop/altera/15.0/nios2eds/bin/gnu/h-x86_64-mingw32/bin/../lib/gcc/nios2-elf/4.9.1/../../../../../H-x86_64-mingw32/nios2-elf/lib/mhw-mulx\libc.a(lib_a-reallocr.o)
                              c:/develop/altera/15.0/nios2eds/bin/gnu/h-x86_64-mingw32/bin/../lib/gcc/nios2-elf/4.9.1/../../../../../H-x86_64-mingw32/nios2-elf/lib/mhw-mulx\libc.a(lib_a-fvwrite.o) (_realloc_r)
c:/develop/altera/15.0/nios2eds/bin/gnu/h-x86_64-mingw32/bin/../lib/gcc/nios2-elf/4.9.1/../../../../../H-x86_64-mingw32/nios2-elf/lib/mhw-mulx\libc.a(lib_a-s_fpclassify.o)
                              c:/develop/altera/15.0/nios2eds/bin/gnu/h-x86_64-mingw32/bin/../lib/gcc/nios2-elf/4.9.1/../../../../../H-x86_64-mingw32/nios2-elf/lib/mhw-mulx\libc.a(lib_a-vfprintf.o) (__fpclassifyd)
c:/develop/altera/15.0/nios2eds/bin/gnu/h-x86_64-mingw32/bin/../lib/gcc/nios2-elf/4.9.1/../../../../../H-x86_64-mingw32/nios2-elf/lib/mhw-mulx\libc.a(lib_a-stdio.o)
                              c:/develop/altera/15.0/nios2eds/bin/gnu/h-x86_64-mingw32/bin/../lib/gcc/nios2-elf/4.9.1/../../../../../H-x86_64-mingw32/nios2-elf/lib/mhw-mulx\libc.a(lib_a-findfp.o) (__sread)
c:/develop/altera/15.0/nios2eds/bin/gnu/h-x86_64-mingw32/bin/../lib/gcc/nios2-elf/4.9.1/../../../../../H-x86_64-mingw32/nios2-elf/lib/mhw-mulx\libc.a(lib_a-strcmp.o)
                              c:/develop/altera/15.0/nios2eds/bin/gnu/h-x86_64-mingw32/bin/../lib/gcc/nios2-elf/4.9.1/../../../../../H-x86_64-mingw32/nios2-elf/lib/mhw-mulx\libc.a(lib_a-locale.o) (strcmp)
c:/develop/altera/15.0/nios2eds/bin/gnu/h-x86_64-mingw32/bin/../lib/gcc/nios2-elf/4.9.1/../../../../../H-x86_64-mingw32/nios2-elf/lib/mhw-mulx\libc.a(lib_a-vfiprintf.o)
                              c:/develop/altera/15.0/nios2eds/bin/gnu/h-x86_64-mingw32/bin/../lib/gcc/nios2-elf/4.9.1/../../../../../H-x86_64-mingw32/nios2-elf/lib/mhw-mulx\libc.a(lib_a-vfprintf.o) (__sprint_r)
c:/develop/altera/15.0/nios2eds/bin/gnu/h-x86_64-mingw32/bin/../lib/gcc/nios2-elf/4.9.1/../../../../../H-x86_64-mingw32/nios2-elf/lib/mhw-mulx\libc.a(lib_a-writer.o)
                              c:/develop/altera/15.0/nios2eds/bin/gnu/h-x86_64-mingw32/bin/../lib/gcc/nios2-elf/4.9.1/../../../../../H-x86_64-mingw32/nios2-elf/lib/mhw-mulx\libc.a(lib_a-stdio.o) (_write_r)
c:/develop/altera/15.0/nios2eds/bin/gnu/h-x86_64-mingw32/bin/../lib/gcc/nios2-elf/4.9.1/../../../../../H-x86_64-mingw32/nios2-elf/lib/mhw-mulx\libc.a(closer.o)
                              c:/develop/altera/15.0/nios2eds/bin/gnu/h-x86_64-mingw32/bin/../lib/gcc/nios2-elf/4.9.1/../../../../../H-x86_64-mingw32/nios2-elf/lib/mhw-mulx\libc.a(lib_a-stdio.o) (_close_r)
c:/develop/altera/15.0/nios2eds/bin/gnu/h-x86_64-mingw32/bin/../lib/gcc/nios2-elf/4.9.1/../../../../../H-x86_64-mingw32/nios2-elf/lib/mhw-mulx\libc.a(lib_a-callocr.o)
                              c:/develop/altera/15.0/nios2eds/bin/gnu/h-x86_64-mingw32/bin/../lib/gcc/nios2-elf/4.9.1/../../../../../H-x86_64-mingw32/nios2-elf/lib/mhw-mulx\libc.a(lib_a-mprec.o) (_calloc_r)
c:/develop/altera/15.0/nios2eds/bin/gnu/h-x86_64-mingw32/bin/../lib/gcc/nios2-elf/4.9.1/../../../../../H-x86_64-mingw32/nios2-elf/lib/mhw-mulx\libc.a(lib_a-fclose.o)
                              c:/develop/altera/15.0/nios2eds/bin/gnu/h-x86_64-mingw32/bin/../lib/gcc/nios2-elf/4.9.1/../../../../../H-x86_64-mingw32/nios2-elf/lib/mhw-mulx\libc.a(lib_a-findfp.o) (fclose)
c:/develop/altera/15.0/nios2eds/bin/gnu/h-x86_64-mingw32/bin/../lib/gcc/nios2-elf/4.9.1/../../../../../H-x86_64-mingw32/nios2-elf/lib/mhw-mulx\libc.a(lib_a-fputwc.o)
                              c:/develop/altera/15.0/nios2eds/bin/gnu/h-x86_64-mingw32/bin/../lib/gcc/nios2-elf/4.9.1/../../../../../H-x86_64-mingw32/nios2-elf/lib/mhw-mulx\libc.a(lib_a-vfiprintf.o) (_fputwc_r)
c:/develop/altera/15.0/nios2eds/bin/gnu/h-x86_64-mingw32/bin/../lib/gcc/nios2-elf/4.9.1/../../../../../H-x86_64-mingw32/nios2-elf/lib/mhw-mulx\libc.a(lib_a-fstatr.o)
                              c:/develop/altera/15.0/nios2eds/bin/gnu/h-x86_64-mingw32/bin/../lib/gcc/nios2-elf/4.9.1/../../../../../H-x86_64-mingw32/nios2-elf/lib/mhw-mulx\libc.a(lib_a-makebuf.o) (_fstat_r)
c:/develop/altera/15.0/nios2eds/bin/gnu/h-x86_64-mingw32/bin/../lib/gcc/nios2-elf/4.9.1/../../../../../H-x86_64-mingw32/nios2-elf/lib/mhw-mulx\libc.a(lib_a-isattyr.o)
                              c:/develop/altera/15.0/nios2eds/bin/gnu/h-x86_64-mingw32/bin/../lib/gcc/nios2-elf/4.9.1/../../../../../H-x86_64-mingw32/nios2-elf/lib/mhw-mulx\libc.a(lib_a-makebuf.o) (_isatty_r)
c:/develop/altera/15.0/nios2eds/bin/gnu/h-x86_64-mingw32/bin/../lib/gcc/nios2-elf/4.9.1/../../../../../H-x86_64-mingw32/nios2-elf/lib/mhw-mulx\libc.a(lib_a-lseekr.o)
                              c:/develop/altera/15.0/nios2eds/bin/gnu/h-x86_64-mingw32/bin/../lib/gcc/nios2-elf/4.9.1/../../../../../H-x86_64-mingw32/nios2-elf/lib/mhw-mulx\libc.a(lib_a-stdio.o) (_lseek_r)
c:/develop/altera/15.0/nios2eds/bin/gnu/h-x86_64-mingw32/bin/../lib/gcc/nios2-elf/4.9.1/../../../../../H-x86_64-mingw32/nios2-elf/lib/mhw-mulx\libc.a(lib_a-readr.o)
                              c:/develop/altera/15.0/nios2eds/bin/gnu/h-x86_64-mingw32/bin/../lib/gcc/nios2-elf/4.9.1/../../../../../H-x86_64-mingw32/nios2-elf/lib/mhw-mulx\libc.a(lib_a-stdio.o) (_read_r)
c:/develop/altera/15.0/nios2eds/bin/gnu/h-x86_64-mingw32/bin/../lib/gcc/nios2-elf/4.9.1/../../../../../H-x86_64-mingw32/nios2-elf/lib/mhw-mulx\libc.a(lib_a-wbuf.o)
                              c:/develop/altera/15.0/nios2eds/bin/gnu/h-x86_64-mingw32/bin/../lib/gcc/nios2-elf/4.9.1/../../../../../H-x86_64-mingw32/nios2-elf/lib/mhw-mulx\libc.a(lib_a-fputwc.o) (__swbuf_r)
c:/develop/altera/15.0/nios2eds/bin/gnu/h-x86_64-mingw32/bin/../lib/gcc/nios2-elf/4.9.1/../../../../../H-x86_64-mingw32/nios2-elf/lib/mhw-mulx\libc.a(lib_a-wcrtomb.o)
                              c:/develop/altera/15.0/nios2eds/bin/gnu/h-x86_64-mingw32/bin/../lib/gcc/nios2-elf/4.9.1/../../../../../H-x86_64-mingw32/nios2-elf/lib/mhw-mulx\libc.a(lib_a-fputwc.o) (_wcrtomb_r)
c:/develop/altera/15.0/nios2eds/bin/gnu/h-x86_64-mingw32/bin/../lib/gcc/nios2-elf/4.9.1/../../../../../H-x86_64-mingw32/nios2-elf/lib/mhw-mulx\libc.a(lib_a-wctomb_r.o)
                              c:/develop/altera/15.0/nios2eds/bin/gnu/h-x86_64-mingw32/bin/../lib/gcc/nios2-elf/4.9.1/../../../../../H-x86_64-mingw32/nios2-elf/lib/mhw-mulx\libc.a(lib_a-wcrtomb.o) (__wctomb)
c:/develop/altera/15.0/nios2eds/bin/gnu/h-x86_64-mingw32/bin/../lib/gcc/nios2-elf/4.9.1/mhw-mulx\libgcc.a(_udivdi3.o)
                              c:/develop/altera/15.0/nios2eds/bin/gnu/h-x86_64-mingw32/bin/../lib/gcc/nios2-elf/4.9.1/../../../../../H-x86_64-mingw32/nios2-elf/lib/mhw-mulx\libc.a(lib_a-vfprintf.o) (__udivdi3)
c:/develop/altera/15.0/nios2eds/bin/gnu/h-x86_64-mingw32/bin/../lib/gcc/nios2-elf/4.9.1/mhw-mulx\libgcc.a(_umoddi3.o)
                              c:/develop/altera/15.0/nios2eds/bin/gnu/h-x86_64-mingw32/bin/../lib/gcc/nios2-elf/4.9.1/../../../../../H-x86_64-mingw32/nios2-elf/lib/mhw-mulx\libc.a(lib_a-vfprintf.o) (__umoddi3)
c:/develop/altera/15.0/nios2eds/bin/gnu/h-x86_64-mingw32/bin/../lib/gcc/nios2-elf/4.9.1/mhw-mulx\libgcc.a(lib2-divmod.o)
                              c:/develop/altera/15.0/nios2eds/bin/gnu/h-x86_64-mingw32/bin/../lib/gcc/nios2-elf/4.9.1/../../../../../H-x86_64-mingw32/nios2-elf/lib/mhw-mulx\libc.a(lib_a-vfprintf.o) (__divsi3)
c:/develop/altera/15.0/nios2eds/bin/gnu/h-x86_64-mingw32/bin/../lib/gcc/nios2-elf/4.9.1/mhw-mulx\libgcc.a(adddf3.o)
                              c:/develop/altera/15.0/nios2eds/bin/gnu/h-x86_64-mingw32/bin/../lib/gcc/nios2-elf/4.9.1/../../../../../H-x86_64-mingw32/nios2-elf/lib/mhw-mulx\libc.a(lib_a-dtoa.o) (__adddf3)
c:/develop/altera/15.0/nios2eds/bin/gnu/h-x86_64-mingw32/bin/../lib/gcc/nios2-elf/4.9.1/mhw-mulx\libgcc.a(divdf3.o)
                              c:/develop/altera/15.0/nios2eds/bin/gnu/h-x86_64-mingw32/bin/../lib/gcc/nios2-elf/4.9.1/../../../../../H-x86_64-mingw32/nios2-elf/lib/mhw-mulx\libc.a(lib_a-dtoa.o) (__divdf3)
c:/develop/altera/15.0/nios2eds/bin/gnu/h-x86_64-mingw32/bin/../lib/gcc/nios2-elf/4.9.1/mhw-mulx\libgcc.a(eqdf2.o)
                              c:/develop/altera/15.0/nios2eds/bin/gnu/h-x86_64-mingw32/bin/../lib/gcc/nios2-elf/4.9.1/../../../../../H-x86_64-mingw32/nios2-elf/lib/mhw-mulx\libc.a(lib_a-vfprintf.o) (__eqdf2)
c:/develop/altera/15.0/nios2eds/bin/gnu/h-x86_64-mingw32/bin/../lib/gcc/nios2-elf/4.9.1/mhw-mulx\libgcc.a(gedf2.o)
                              c:/develop/altera/15.0/nios2eds/bin/gnu/h-x86_64-mingw32/bin/../lib/gcc/nios2-elf/4.9.1/../../../../../H-x86_64-mingw32/nios2-elf/lib/mhw-mulx\libc.a(lib_a-dtoa.o) (__gedf2)
c:/develop/altera/15.0/nios2eds/bin/gnu/h-x86_64-mingw32/bin/../lib/gcc/nios2-elf/4.9.1/mhw-mulx\libgcc.a(ledf2.o)
                              c:/develop/altera/15.0/nios2eds/bin/gnu/h-x86_64-mingw32/bin/../lib/gcc/nios2-elf/4.9.1/../../../../../H-x86_64-mingw32/nios2-elf/lib/mhw-mulx\libc.a(lib_a-vfprintf.o) (__ltdf2)
c:/develop/altera/15.0/nios2eds/bin/gnu/h-x86_64-mingw32/bin/../lib/gcc/nios2-elf/4.9.1/mhw-mulx\libgcc.a(muldf3.o)
                              c:/develop/altera/15.0/nios2eds/bin/gnu/h-x86_64-mingw32/bin/../lib/gcc/nios2-elf/4.9.1/../../../../../H-x86_64-mingw32/nios2-elf/lib/mhw-mulx\libc.a(lib_a-dtoa.o) (__muldf3)
c:/develop/altera/15.0/nios2eds/bin/gnu/h-x86_64-mingw32/bin/../lib/gcc/nios2-elf/4.9.1/mhw-mulx\libgcc.a(subdf3.o)
                              c:/develop/altera/15.0/nios2eds/bin/gnu/h-x86_64-mingw32/bin/../lib/gcc/nios2-elf/4.9.1/../../../../../H-x86_64-mingw32/nios2-elf/lib/mhw-mulx\libc.a(lib_a-dtoa.o) (__subdf3)
c:/develop/altera/15.0/nios2eds/bin/gnu/h-x86_64-mingw32/bin/../lib/gcc/nios2-elf/4.9.1/mhw-mulx\libgcc.a(fixdfsi.o)
                              c:/develop/altera/15.0/nios2eds/bin/gnu/h-x86_64-mingw32/bin/../lib/gcc/nios2-elf/4.9.1/../../../../../H-x86_64-mingw32/nios2-elf/lib/mhw-mulx\libc.a(lib_a-dtoa.o) (__fixdfsi)
c:/develop/altera/15.0/nios2eds/bin/gnu/h-x86_64-mingw32/bin/../lib/gcc/nios2-elf/4.9.1/mhw-mulx\libgcc.a(floatsidf.o)
                              c:/develop/altera/15.0/nios2eds/bin/gnu/h-x86_64-mingw32/bin/../lib/gcc/nios2-elf/4.9.1/../../../../../H-x86_64-mingw32/nios2-elf/lib/mhw-mulx\libc.a(lib_a-dtoa.o) (__floatsidf)
c:/develop/altera/15.0/nios2eds/bin/gnu/h-x86_64-mingw32/bin/../lib/gcc/nios2-elf/4.9.1/mhw-mulx\libgcc.a(floatunsidf.o)
                              c:/develop/altera/15.0/nios2eds/bin/gnu/h-x86_64-mingw32/bin/../lib/gcc/nios2-elf/4.9.1/../../../../../H-x86_64-mingw32/nios2-elf/lib/mhw-mulx\libc.a(lib_a-dtoa.o) (__floatunsidf)
c:/develop/altera/15.0/nios2eds/bin/gnu/h-x86_64-mingw32/bin/../lib/gcc/nios2-elf/4.9.1/mhw-mulx\libgcc.a(_clz.o)
                              c:/develop/altera/15.0/nios2eds/bin/gnu/h-x86_64-mingw32/bin/../lib/gcc/nios2-elf/4.9.1/mhw-mulx\libgcc.a(_udivdi3.o) (__clz_tab)
c:/develop/altera/15.0/nios2eds/bin/gnu/h-x86_64-mingw32/bin/../lib/gcc/nios2-elf/4.9.1/mhw-mulx\libgcc.a(_clzsi2.o)
                              c:/develop/altera/15.0/nios2eds/bin/gnu/h-x86_64-mingw32/bin/../lib/gcc/nios2-elf/4.9.1/mhw-mulx\libgcc.a(adddf3.o) (__clzsi2)
../cineraria_wavplay_bsp/\libhal_bsp.a(alt_alarm_start.o)
                              obj/default/disp7seg.o (alt_alarm_start)
../cineraria_wavplay_bsp/\libhal_bsp.a(alt_close.o)
                              c:/develop/altera/15.0/nios2eds/bin/gnu/h-x86_64-mingw32/bin/../lib/gcc/nios2-elf/4.9.1/../../../../../H-x86_64-mingw32/nios2-elf/lib/mhw-mulx\libc.a(closer.o) (close)
../cineraria_wavplay_bsp/\libhal_bsp.a(alt_dev.o)
                              ../cineraria_wavplay_bsp/\libhal_bsp.a(alt_close.o) (alt_fd_list)
../cineraria_wavplay_bsp/\libhal_bsp.a(alt_errno.o)
                              ../cineraria_wavplay_bsp/\libhal_bsp.a(alt_close.o) (alt_errno)
../cineraria_wavplay_bsp/\libhal_bsp.a(alt_fs_reg.o)
                              obj/default/mmcfs/mmcfs.o (alt_fs_reg)
../cineraria_wavplay_bsp/\libhal_bsp.a(alt_fstat.o)
                              c:/develop/altera/15.0/nios2eds/bin/gnu/h-x86_64-mingw32/bin/../lib/gcc/nios2-elf/4.9.1/../../../../../H-x86_64-mingw32/nios2-elf/lib/mhw-mulx\libc.a(lib_a-fstatr.o) (fstat)
../cineraria_wavplay_bsp/\libhal_bsp.a(alt_iic.o)
                              obj/default/playwav.o (alt_ic_isr_register)
../cineraria_wavplay_bsp/\libhal_bsp.a(alt_iic_isr_register.o)
                              ../cineraria_wavplay_bsp/\libhal_bsp.a(alt_iic.o) (alt_iic_isr_register)
../cineraria_wavplay_bsp/\libhal_bsp.a(alt_irq_entry.o)
                              ../cineraria_wavplay_bsp/\libhal_bsp.a(alt_iic_isr_register.o) (alt_irq_entry)
../cineraria_wavplay_bsp/\libhal_bsp.a(alt_irq_handler.o)
                              ../cineraria_wavplay_bsp/\libhal_bsp.a(alt_iic_isr_register.o) (alt_irq_handler)
../cineraria_wavplay_bsp/\libhal_bsp.a(alt_irq_vars.o)
                              ../cineraria_wavplay_bsp/\libhal_bsp.a(alt_iic.o) (alt_irq_active)
../cineraria_wavplay_bsp/\libhal_bsp.a(alt_isatty.o)
                              c:/develop/altera/15.0/nios2eds/bin/gnu/h-x86_64-mingw32/bin/../lib/gcc/nios2-elf/4.9.1/../../../../../H-x86_64-mingw32/nios2-elf/lib/mhw-mulx\libc.a(lib_a-isattyr.o) (isatty)
../cineraria_wavplay_bsp/\libhal_bsp.a(alt_load.o)
                              ../cineraria_wavplay_bsp//obj/HAL/src/crt0.o (alt_load)
../cineraria_wavplay_bsp/\libhal_bsp.a(alt_lseek.o)
                              c:/develop/altera/15.0/nios2eds/bin/gnu/h-x86_64-mingw32/bin/../lib/gcc/nios2-elf/4.9.1/../../../../../H-x86_64-mingw32/nios2-elf/lib/mhw-mulx\libc.a(lib_a-lseekr.o) (lseek)
../cineraria_wavplay_bsp/\libhal_bsp.a(alt_main.o)
                              ../cineraria_wavplay_bsp//obj/HAL/src/crt0.o (alt_main)
../cineraria_wavplay_bsp/\libhal_bsp.a(alt_malloc_lock.o)
                              c:/develop/altera/15.0/nios2eds/bin/gnu/h-x86_64-mingw32/bin/../lib/gcc/nios2-elf/4.9.1/../../../../../H-x86_64-mingw32/nios2-elf/lib/mhw-mulx\libc.a(lib_a-mallocr.o) (__malloc_lock)
../cineraria_wavplay_bsp/\libhal_bsp.a(alt_read.o)
                              c:/develop/altera/15.0/nios2eds/bin/gnu/h-x86_64-mingw32/bin/../lib/gcc/nios2-elf/4.9.1/../../../../../H-x86_64-mingw32/nios2-elf/lib/mhw-mulx\libc.a(lib_a-readr.o) (read)
../cineraria_wavplay_bsp/\libhal_bsp.a(alt_release_fd.o)
                              ../cineraria_wavplay_bsp/\libhal_bsp.a(alt_close.o) (alt_release_fd)
../cineraria_wavplay_bsp/\libhal_bsp.a(alt_sbrk.o)
                              c:/develop/altera/15.0/nios2eds/bin/gnu/h-x86_64-mingw32/bin/../lib/gcc/nios2-elf/4.9.1/../../../../../H-x86_64-mingw32/nios2-elf/lib/mhw-mulx\libc.a(lib_a-sbrkr.o) (sbrk)
../cineraria_wavplay_bsp/\libhal_bsp.a(alt_tick.o)
                              ../cineraria_wavplay_bsp/\libhal_bsp.a(alt_alarm_start.o) (_alt_nticks)
../cineraria_wavplay_bsp/\libhal_bsp.a(alt_uncached_free.o)
                              obj/default/wav_player.o (alt_uncached_free)
../cineraria_wavplay_bsp/\libhal_bsp.a(alt_uncached_malloc.o)
                              obj/default/wav_player.o (alt_uncached_malloc)
../cineraria_wavplay_bsp/\libhal_bsp.a(alt_write.o)
                              c:/develop/altera/15.0/nios2eds/bin/gnu/h-x86_64-mingw32/bin/../lib/gcc/nios2-elf/4.9.1/../../../../../H-x86_64-mingw32/nios2-elf/lib/mhw-mulx\libc.a(lib_a-writer.o) (write)
../cineraria_wavplay_bsp/\libhal_bsp.a(alt_sys_init.o)
                              ../cineraria_wavplay_bsp/\libhal_bsp.a(alt_main.o) (alt_irq_init)
../cineraria_wavplay_bsp/\libhal_bsp.a(altera_avalon_jtag_uart_fd.o)
                              ../cineraria_wavplay_bsp/\libhal_bsp.a(alt_sys_init.o) (altera_avalon_jtag_uart_read_fd)
../cineraria_wavplay_bsp/\libhal_bsp.a(altera_avalon_jtag_uart_init.o)
                              ../cineraria_wavplay_bsp/\libhal_bsp.a(alt_sys_init.o) (altera_avalon_jtag_uart_init)
../cineraria_wavplay_bsp/\libhal_bsp.a(altera_avalon_jtag_uart_ioctl.o)
                              ../cineraria_wavplay_bsp/\libhal_bsp.a(altera_avalon_jtag_uart_fd.o) (altera_avalon_jtag_uart_ioctl)
../cineraria_wavplay_bsp/\libhal_bsp.a(altera_avalon_jtag_uart_read.o)
                              ../cineraria_wavplay_bsp/\libhal_bsp.a(altera_avalon_jtag_uart_fd.o) (altera_avalon_jtag_uart_read)
../cineraria_wavplay_bsp/\libhal_bsp.a(altera_avalon_jtag_uart_write.o)
                              ../cineraria_wavplay_bsp/\libhal_bsp.a(altera_avalon_jtag_uart_fd.o) (altera_avalon_jtag_uart_write)
../cineraria_wavplay_bsp/\libhal_bsp.a(altera_avalon_timer_sc.o)
                              ../cineraria_wavplay_bsp/\libhal_bsp.a(alt_sys_init.o) (alt_avalon_timer_sc_init)
../cineraria_wavplay_bsp/\libhal_bsp.a(altera_epcq_controller.o)
                              ../cineraria_wavplay_bsp/\libhal_bsp.a(alt_sys_init.o) (alt_epcq_controller_lock)
../cineraria_wavplay_bsp/\libhal_bsp.a(alt_busy_sleep.o)
                              ../cineraria_wavplay_bsp/\libhal_bsp.a(altera_epcq_controller.o) (alt_busy_sleep)
../cineraria_wavplay_bsp/\libhal_bsp.a(alt_dcache_flush.o)
                              ../cineraria_wavplay_bsp/\libhal_bsp.a(alt_uncached_malloc.o) (alt_dcache_flush)
../cineraria_wavplay_bsp/\libhal_bsp.a(alt_dcache_flush_all.o)
                              ../cineraria_wavplay_bsp/\libhal_bsp.a(alt_load.o) (alt_dcache_flush_all)
../cineraria_wavplay_bsp/\libhal_bsp.a(alt_dev_llist_insert.o)
                              ../cineraria_wavplay_bsp/\libhal_bsp.a(alt_sys_init.o) (alt_dev_llist_insert)
../cineraria_wavplay_bsp/\libhal_bsp.a(alt_do_ctors.o)
                              ../cineraria_wavplay_bsp/\libhal_bsp.a(alt_main.o) (_do_ctors)
../cineraria_wavplay_bsp/\libhal_bsp.a(alt_do_dtors.o)
                              ../cineraria_wavplay_bsp/\libhal_bsp.a(alt_main.o) (_do_dtors)
../cineraria_wavplay_bsp/\libhal_bsp.a(alt_exception_entry.o)
                              ../cineraria_wavplay_bsp/\libhal_bsp.a(alt_irq_entry.o) (alt_exception)
../cineraria_wavplay_bsp/\libhal_bsp.a(alt_flash_dev.o)
                              ../cineraria_wavplay_bsp/\libhal_bsp.a(altera_epcq_controller.o) (alt_flash_dev_list)
../cineraria_wavplay_bsp/\libhal_bsp.a(alt_icache_flush_all.o)
                              ../cineraria_wavplay_bsp/\libhal_bsp.a(alt_load.o) (alt_icache_flush_all)
../cineraria_wavplay_bsp/\libhal_bsp.a(alt_instruction_exception_entry.o)
                              ../cineraria_wavplay_bsp/\libhal_bsp.a(alt_exception_entry.o) (alt_instruction_exception_entry)
../cineraria_wavplay_bsp/\libhal_bsp.a(alt_io_redirect.o)
                              ../cineraria_wavplay_bsp/\libhal_bsp.a(alt_main.o) (alt_io_redirect)
../cineraria_wavplay_bsp/\libhal_bsp.a(alt_open.o)
                              ../cineraria_wavplay_bsp/\libhal_bsp.a(alt_io_redirect.o) (open)
../cineraria_wavplay_bsp/\libhal_bsp.a(altera_nios2_gen2_irq.o)
                              ../cineraria_wavplay_bsp/\libhal_bsp.a(alt_sys_init.o) (altera_nios2_gen2_irq_init)
../cineraria_wavplay_bsp/\libhal_bsp.a(alt_find_dev.o)
                              ../cineraria_wavplay_bsp/\libhal_bsp.a(alt_flash_dev.o) (alt_find_dev)
../cineraria_wavplay_bsp/\libhal_bsp.a(alt_find_file.o)
                              ../cineraria_wavplay_bsp/\libhal_bsp.a(alt_open.o) (alt_find_file)
../cineraria_wavplay_bsp/\libhal_bsp.a(alt_get_fd.o)
                              ../cineraria_wavplay_bsp/\libhal_bsp.a(alt_open.o) (alt_get_fd)
../cineraria_wavplay_bsp/\libhal_bsp.a(alt_icache_flush.o)
                              ../cineraria_wavplay_bsp/\libhal_bsp.a(alt_icache_flush_all.o) (alt_icache_flush)
c:/develop/altera/15.0/nios2eds/bin/gnu/h-x86_64-mingw32/bin/../lib/gcc/nios2-elf/4.9.1/../../../../../H-x86_64-mingw32/nios2-elf/lib/mhw-mulx\libc.a(lib_a-atexit.o)
                              ../cineraria_wavplay_bsp/\libhal_bsp.a(alt_main.o) (atexit)
c:/develop/altera/15.0/nios2eds/bin/gnu/h-x86_64-mingw32/bin/../lib/gcc/nios2-elf/4.9.1/../../../../../H-x86_64-mingw32/nios2-elf/lib/mhw-mulx\libc.a(lib_a-exit.o)
                              ../cineraria_wavplay_bsp/\libhal_bsp.a(alt_main.o) (exit)
c:/develop/altera/15.0/nios2eds/bin/gnu/h-x86_64-mingw32/bin/../lib/gcc/nios2-elf/4.9.1/../../../../../H-x86_64-mingw32/nios2-elf/lib/mhw-mulx\libc.a(lib_a-malign.o)
                              ../cineraria_wavplay_bsp/\libhal_bsp.a(alt_uncached_malloc.o) (memalign)
c:/develop/altera/15.0/nios2eds/bin/gnu/h-x86_64-mingw32/bin/../lib/gcc/nios2-elf/4.9.1/../../../../../H-x86_64-mingw32/nios2-elf/lib/mhw-mulx\libc.a(lib_a-malignr.o)
                              c:/develop/altera/15.0/nios2eds/bin/gnu/h-x86_64-mingw32/bin/../lib/gcc/nios2-elf/4.9.1/../../../../../H-x86_64-mingw32/nios2-elf/lib/mhw-mulx\libc.a(lib_a-malign.o) (_memalign_r)
c:/develop/altera/15.0/nios2eds/bin/gnu/h-x86_64-mingw32/bin/../lib/gcc/nios2-elf/4.9.1/../../../../../H-x86_64-mingw32/nios2-elf/lib/mhw-mulx\libc.a(lib_a-memcmp.o)
                              ../cineraria_wavplay_bsp/\libhal_bsp.a(alt_find_dev.o) (memcmp)
c:/develop/altera/15.0/nios2eds/bin/gnu/h-x86_64-mingw32/bin/../lib/gcc/nios2-elf/4.9.1/../../../../../H-x86_64-mingw32/nios2-elf/lib/mhw-mulx\libc.a(lib_a-__atexit.o)
                              c:/develop/altera/15.0/nios2eds/bin/gnu/h-x86_64-mingw32/bin/../lib/gcc/nios2-elf/4.9.1/../../../../../H-x86_64-mingw32/nios2-elf/lib/mhw-mulx\libc.a(lib_a-atexit.o) (__register_exitproc)
c:/develop/altera/15.0/nios2eds/bin/gnu/h-x86_64-mingw32/bin/../lib/gcc/nios2-elf/4.9.1/../../../../../H-x86_64-mingw32/nios2-elf/lib/mhw-mulx\libc.a(lib_a-__call_atexit.o)
                              c:/develop/altera/15.0/nios2eds/bin/gnu/h-x86_64-mingw32/bin/../lib/gcc/nios2-elf/4.9.1/../../../../../H-x86_64-mingw32/nios2-elf/lib/mhw-mulx\libc.a(lib_a-exit.o) (__call_exitprocs)
../cineraria_wavplay_bsp/\libhal_bsp.a(alt_exit.o)
                              c:/develop/altera/15.0/nios2eds/bin/gnu/h-x86_64-mingw32/bin/../lib/gcc/nios2-elf/4.9.1/../../../../../H-x86_64-mingw32/nios2-elf/lib/mhw-mulx\libc.a(lib_a-exit.o) (_exit)

Allocating common symbols
Common symbol       size              file

alt_irq             0x100             ../cineraria_wavplay_bsp/\libhal_bsp.a(alt_irq_handler.o)
errno               0x4               c:/develop/altera/15.0/nios2eds/bin/gnu/h-x86_64-mingw32/bin/../lib/gcc/nios2-elf/4.9.1/../../../../../H-x86_64-mingw32/nios2-elf/lib/mhw-mulx\libc.a(lib_a-int_errno.o)
nd_GsVgaVsyncCount  0x4               obj/default/nd_lib/nd_egl.o
nd_GsEglDrawBuffer  0x4               obj/default/nd_lib/nd_egl.o
nd_GsVgaVsyncFlag   0x4               obj/default/nd_lib/nd_egl.o

Memory Configuration

Name             Origin             Length             Attributes
sdram_BEFORE_EXCEPTION 0x0000000000000000 0x0000000000000020
sdram            0x0000000000000020 0x0000000003ffffe0
reset            0x000000000f000000 0x0000000000000020
bootmem          0x000000000f000020 0x000000000000ffe0
epcq_avl_mem     0x0000000010800000 0x0000000000800000
*default*        0x0000000000000000 0xffffffffffffffff

Linker script and memory map

LOAD ../cineraria_wavplay_bsp//obj/HAL/src/crt0.o
LOAD obj/default/disp7seg.o
LOAD obj/default/drawwave.o
LOAD obj/default/getfilename.o
LOAD obj/default/loadbmp.o
LOAD obj/default/mmcfs/fatfs/ff.o
LOAD obj/default/mmcfs/fatfs/mmcbb.o
LOAD obj/default/mmcfs/fatfs/option/cc932.o
LOAD obj/default/mmcfs/gettime.o
LOAD obj/default/mmcfs/mmc_spi.o
LOAD obj/default/mmcfs/mmcfs.o
LOAD obj/default/nd_lib/nd_egl.o
LOAD obj/default/playwav.o
LOAD obj/default/wav_player.o
LOAD c:/develop/altera/15.0/nios2eds/bin/gnu/h-x86_64-mingw32/bin/../lib/gcc/nios2-elf/4.9.1/../../../../../H-x86_64-mingw32/nios2-elf/lib/mhw-mulx\libstdc++.a
LOAD c:/develop/altera/15.0/nios2eds/bin/gnu/h-x86_64-mingw32/bin/../lib/gcc/nios2-elf/4.9.1/../../../../../H-x86_64-mingw32/nios2-elf/lib/mhw-mulx\libm.a
LOAD c:/develop/altera/15.0/nios2eds/bin/gnu/h-x86_64-mingw32/bin/../lib/gcc/nios2-elf/4.9.1/mhw-mulx\libgcc.a
START GROUP
LOAD c:/develop/altera/15.0/nios2eds/bin/gnu/h-x86_64-mingw32/bin/../lib/gcc/nios2-elf/4.9.1/../../../../../H-x86_64-mingw32/nios2-elf/lib/mhw-mulx\libc.a
LOAD c:/develop/altera/15.0/nios2eds/bin/gnu/h-x86_64-mingw32/bin/../lib/gcc/nios2-elf/4.9.1/mhw-mulx\libgcc.a
LOAD ../cineraria_wavplay_bsp/\libhal_bsp.a
LOAD c:/develop/altera/15.0/nios2eds/bin/gnu/h-x86_64-mingw32/bin/../lib/gcc/nios2-elf/4.9.1/../../../../../H-x86_64-mingw32/nios2-elf/lib/mhw-mulx\libm.a
END GROUP
LOAD c:/develop/altera/15.0/nios2eds/bin/gnu/h-x86_64-mingw32/bin/../lib/gcc/nios2-elf/4.9.1/mhw-mulx\libgcc.a
                0x0000000000000000                __alt_mem_sdram = 0x0
                0x000000000f000000                __alt_mem_bootmem = 0xf000000
                0x0000000010800000                __alt_mem_epcq_avl_mem = 0x10800000

.entry          0x000000000f000000        0x0
 *(.entry)
 .entry         0x000000000f000000        0x0 ../cineraria_wavplay_bsp//obj/HAL/src/crt0.o
                0x000000000f000000                __reset

.exceptions     0x0000000000000020      0x16c
                0x0000000000000020                PROVIDE (__ram_exceptions_start, ABSOLUTE (.))
                0x0000000000000020                . = ALIGN (0x20)
 *(.irq)
 *(.exceptions.entry.label)
 .exceptions.entry.label
                0x0000000000000020        0x0 ../cineraria_wavplay_bsp/\libhal_bsp.a(alt_irq_entry.o)
                0x0000000000000020                alt_irq_entry
 .exceptions.entry.label
                0x0000000000000020        0x0 ../cineraria_wavplay_bsp/\libhal_bsp.a(alt_exception_entry.o)
                0x0000000000000020                alt_exception
 *(.exceptions.entry.user)
 *(.exceptions.entry.ecc_fatal)
 *(.exceptions.entry)
 .exceptions.entry
                0x0000000000000020       0x54 ../cineraria_wavplay_bsp/\libhal_bsp.a(alt_exception_entry.o)
 *(.exceptions.irqtest.user)
 *(.exceptions.irqtest)
 .exceptions.irqtest
                0x0000000000000074       0x10 ../cineraria_wavplay_bsp/\libhal_bsp.a(alt_irq_entry.o)
 *(.exceptions.irqhandler.user)
 *(.exceptions.irqhandler)
 .exceptions.irqhandler
                0x0000000000000084        0x4 ../cineraria_wavplay_bsp/\libhal_bsp.a(alt_irq_entry.o)
 *(.exceptions.irqreturn.user)
 *(.exceptions.irqreturn)
 .exceptions.irqreturn
                0x0000000000000088        0x4 ../cineraria_wavplay_bsp/\libhal_bsp.a(alt_irq_entry.o)
 *(.exceptions.notirq.label)
 .exceptions.notirq.label
                0x000000000000008c        0x0 ../cineraria_wavplay_bsp/\libhal_bsp.a(alt_irq_entry.o)
 *(.exceptions.notirq.user)
 *(.exceptions.notirq)
 .exceptions.notirq
                0x000000000000008c        0x8 ../cineraria_wavplay_bsp/\libhal_bsp.a(alt_exception_entry.o)
 *(.exceptions.soft.user)
 *(.exceptions.soft)
 *(.exceptions.unknown.user)
 *(.exceptions.unknown)
 .exceptions.unknown
                0x0000000000000094       0x14 ../cineraria_wavplay_bsp/\libhal_bsp.a(alt_exception_entry.o)
 *(.exceptions.exit.label)
 .exceptions.exit.label
                0x00000000000000a8        0x0 ../cineraria_wavplay_bsp/\libhal_bsp.a(alt_irq_entry.o)
 .exceptions.exit.label
                0x00000000000000a8        0x0 ../cineraria_wavplay_bsp/\libhal_bsp.a(alt_exception_entry.o)
 *(.exceptions.exit.user)
 *(.exceptions.exit)
 .exceptions.exit
                0x00000000000000a8       0x54 ../cineraria_wavplay_bsp/\libhal_bsp.a(alt_exception_entry.o)
 *(.exceptions)
 .exceptions    0x00000000000000fc       0x64 ../cineraria_wavplay_bsp/\libhal_bsp.a(alt_irq_handler.o)
                0x00000000000000fc                alt_irq_handler
 .exceptions    0x0000000000000160       0x2c ../cineraria_wavplay_bsp/\libhal_bsp.a(alt_instruction_exception_entry.o)
                0x0000000000000160                alt_instruction_exception_entry
                0x000000000000018c                PROVIDE (__ram_exceptions_end, ABSOLUTE (.))
                0x0000000000000020                PROVIDE (__flash_exceptions_start, LOADADDR (.exceptions))

.text           0x000000000000018c    0x1cbfc
                0x000000000000018c                PROVIDE (stext, ABSOLUTE (.))
 *(.interp)
 *(.hash)
 *(.dynsym)
 *(.dynstr)
 *(.gnu.version)
 *(.gnu.version_d)
 *(.gnu.version_r)
 *(.rel.init)
 *(.rela.init)
 *(.rel.text .rel.text.* .rel.gnu.linkonce.t.*)
 *(.rela.text .rela.text.* .rela.gnu.linkonce.t.*)
 *(.rel.fini)
 *(.rela.fini)
 *(.rel.rodata .rel.rodata.* .rel.gnu.linkonce.r.*)
 *(.rela.rodata .rela.rodata.* .rela.gnu.linkonce.r.*)
 *(.rel.data .rel.data.* .rel.gnu.linkonce.d.*)
 *(.rela.data .rela.data.* .rela.gnu.linkonce.d.*)
 *(.rel.tdata .rel.tdata.* .rel.gnu.linkonce.td.*)
 *(.rela.tdata .rela.tdata.* .rela.gnu.linkonce.td.*)
 *(.rel.tbss .rel.tbss.* .rel.gnu.linkonce.tb.*)
 *(.rela.tbss .rela.tbss.* .rela.gnu.linkonce.tb.*)
 *(.rel.ctors)
 *(.rela.ctors)
 *(.rel.dtors)
 *(.rela.dtors)
 *(.rel.got)
 *(.rela.got)
 *(.rel.sdata .rel.sdata.* .rel.gnu.linkonce.s.*)
 *(.rela.sdata .rela.sdata.* .rela.gnu.linkonce.s.*)
 *(.rel.sbss .rel.sbss.* .rel.gnu.linkonce.sb.*)
 *(.rela.sbss .rela.sbss.* .rela.gnu.linkonce.sb.*)
 *(.rel.sdata2 .rel.sdata2.* .rel.gnu.linkonce.s2.*)
 *(.rela.sdata2 .rela.sdata2.* .rela.gnu.linkonce.s2.*)
 *(.rel.sbss2 .rel.sbss2.* .rel.gnu.linkonce.sb2.*)
 *(.rela.sbss2 .rela.sbss2.* .rela.gnu.linkonce.sb2.*)
 *(.rel.bss .rel.bss.* .rel.gnu.linkonce.b.*)
 *(.rela.bss .rela.bss.* .rela.gnu.linkonce.b.*)
 *(.rel.plt)
 *(.rela.plt)
 *(.rel.dyn)
 *(.init)
 *(.plt)
 *(.text .stub .text.* .gnu.linkonce.t.*)
 .text          0x000000000000018c       0x4c ../cineraria_wavplay_bsp//obj/HAL/src/crt0.o
                0x000000000000018c                _start
 .text          0x00000000000001d8      0x240 obj/default/disp7seg.o
                0x00000000000001d8                hal_alarm_callback
                0x00000000000003f0                disp7seg
 .text          0x0000000000000418      0x568 obj/default/drawwave.o
                0x0000000000000418                drawwave_init
                0x0000000000000648                drawwave
 .text          0x0000000000000980      0x15c obj/default/getfilename.o
                0x0000000000000980                open_wavdir
                0x00000000000009c8                get_wavfilename
 .text          0x0000000000000adc      0x39c obj/default/loadbmp.o
                0x0000000000000adc                loadbmp
 .text          0x0000000000000e78     0xa23c obj/default/mmcfs/fatfs/ff.o
                0x00000000000041c8                clust2sect
                0x00000000000041f4                get_fat
                0x000000000000461c                put_fat
                0x0000000000004a7c                gen_numname
                0x00000000000057d8                f_mount
                0x0000000000005808                f_open
                0x0000000000006108                f_read
                0x0000000000006538                f_write
                0x00000000000069d4                f_sync
                0x0000000000006c1c                f_close
                0x0000000000006e4c                f_lseek
                0x0000000000007134                f_opendir
                0x00000000000077b8                f_readdir
                0x0000000000007888                f_stat
                0x0000000000007ed0                f_getfree
                0x00000000000081a4                f_truncate
                0x000000000000885c                f_unlink
                0x0000000000009160                f_mkdir
                0x00000000000099e0                f_chmod
                0x000000000000a070                f_utime
                0x000000000000a704                f_rename
 .text          0x000000000000b0b4      0xb28 obj/default/mmcfs/fatfs/mmcbb.o
                0x000000000000b204                disk_status
                0x000000000000b2b4                disk_initialize
                0x000000000000b500                disk_read
                0x000000000000b6e4                disk_write
                0x000000000000b990                disk_ioctl
 .text          0x000000000000bbdc       0xe8 obj/default/mmcfs/fatfs/option/cc932.o
                0x000000000000bbdc                ff_convert
                0x000000000000bc6c                ff_wtoupper
 .text          0x000000000000bcc4        0x8 obj/default/mmcfs/gettime.o
                0x000000000000bcc4                get_fattime
 .text          0x000000000000bccc      0x274 obj/default/mmcfs/mmc_spi.o
                0x000000000000bccc                mmc_spi_SetCardSelect
                0x000000000000bce0                mmc_spi_SetCardDeselect
                0x000000000000bcf8                mmc_spi_Sendbyte
                0x000000000000bd1c                mmc_spi_Recvbyte
                0x000000000000bd4c                mmc_spi_DmaRecv
                0x000000000000be5c                mmc_spi_CheckCardDetect
                0x000000000000be70                mmc_spi_CheckWritePortect
                0x000000000000be98                mmc_spi_SetIdentClock
                0x000000000000bea8                mmc_spi_SetTransClock
                0x000000000000beb4                mmc_spi_SetTimer
                0x000000000000bec8                mmc_spi_CheckTimer
                0x000000000000bed8                mmc_spi_Wait100us
                0x000000000000bef8                mmc_spi_InitSocket
 .text          0x000000000000bf40      0x364 obj/default/mmcfs/mmcfs.o
                0x000000000000bf40                dev_mmcfs_fstat
                0x000000000000bf70                dev_mmcfs_open
                0x000000000000c090                dev_mmcfs_close
                0x000000000000c104                dev_mmcfs_read
                0x000000000000c134                dev_mmcfs_write
                0x000000000000c164                dev_mmcfs_lseek
                0x000000000000c1d0                mmcfs_setup
 .text          0x000000000000c2a4     0x1e18 obj/default/nd_lib/nd_egl.o
                0x000000000000c2a4                nd_GsVgaVsync_isr
                0x000000000000c2dc                nd_GsVgaVsync_isrenable
                0x000000000000c2fc                nd_GsVgaVsync_isrdisable
                0x000000000000c31c                nd_GsVgaScanOn
                0x000000000000c334                nd_GsVgaScanOff
                0x000000000000c350                nd_GsVgaSetBuffer
                0x000000000000c36c                nd_GsVgaInit
                0x000000000000c3a4                nd_GsVgaWaitVsync
                0x000000000000c3c4                nd_GsVgaVsync_getcount
                0x000000000000c3f0                nd_GsVgaVsync_setcount
                0x000000000000c41c                nd_GsEglPage
                0x000000000000c460                nd_GsEglColor
                0x000000000000c470                nd_GsEglPset
                0x000000000000c538                nd_GsEglBoxfill
                0x000000000000c7bc                nd_GsEglCircle
                0x000000000000ce0c                nd_GsEglLine
                0x000000000000d0f4                nd_GsEglBox
                0x000000000000d180                nd_GsEglPutcharFont
                0x000000000000d46c                nd_GsEglPutstrFont
                0x000000000000d520                nd_GsEglSetFont
                0x000000000000d52c                nd_GsEglPutchar
                0x000000000000d6c8                nd_GsEglPutstr
                0x000000000000d89c                nd_GsEglPutdec
                0x000000000000dc3c                nd_GsEglPuthex2
                0x000000000000def0                nd_GsEglPuthex8
 .text          0x000000000000e0bc      0x4e8 obj/default/playwav.o
                0x000000000000e1bc                play_init
                0x000000000000e214                play_status
                0x000000000000e230                play_getbuffdata
                0x000000000000e250                play_setvol
                0x000000000000e29c                play_stop
                0x000000000000e2fc                play_wav
 .text          0x000000000000e5a4        0x0 obj/default/wav_player.o
 .text.startup  0x000000000000e5a4      0x188 obj/default/wav_player.o
                0x000000000000e5a4                main
 .text          0x000000000000e72c       0x28 c:/develop/altera/15.0/nios2eds/bin/gnu/h-x86_64-mingw32/bin/../lib/gcc/nios2-elf/4.9.1/../../../../../H-x86_64-mingw32/nios2-elf/lib/mhw-mulx\libc.a(lib_a-malloc.o)
                0x000000000000e72c                malloc
                0x000000000000e740                free
 .text          0x000000000000e754      0x7a8 c:/develop/altera/15.0/nios2eds/bin/gnu/h-x86_64-mingw32/bin/../lib/gcc/nios2-elf/4.9.1/../../../../../H-x86_64-mingw32/nios2-elf/lib/mhw-mulx\libc.a(lib_a-mallocr.o)
                0x000000000000e754                _malloc_r
 .text          0x000000000000eefc      0x138 c:/develop/altera/15.0/nios2eds/bin/gnu/h-x86_64-mingw32/bin/../lib/gcc/nios2-elf/4.9.1/../../../../../H-x86_64-mingw32/nios2-elf/lib/mhw-mulx\libc.a(lib_a-memcpy.o)
                0x000000000000eefc                memcpy
 .text          0x000000000000f034      0x124 c:/develop/altera/15.0/nios2eds/bin/gnu/h-x86_64-mingw32/bin/../lib/gcc/nios2-elf/4.9.1/../../../../../H-x86_64-mingw32/nios2-elf/lib/mhw-mulx\libc.a(lib_a-memset.o)
                0x000000000000f034                memset
 .text          0x000000000000f158       0x68 c:/develop/altera/15.0/nios2eds/bin/gnu/h-x86_64-mingw32/bin/../lib/gcc/nios2-elf/4.9.1/../../../../../H-x86_64-mingw32/nios2-elf/lib/mhw-mulx\libc.a(lib_a-printf.o)
                0x000000000000f158                _printf_r
                0x000000000000f184                printf
 .text          0x000000000000f1c0       0xcc c:/develop/altera/15.0/nios2eds/bin/gnu/h-x86_64-mingw32/bin/../lib/gcc/nios2-elf/4.9.1/../../../../../H-x86_64-mingw32/nios2-elf/lib/mhw-mulx\libc.a(lib_a-puts.o)
                0x000000000000f1c0                _puts_r
                0x000000000000f278                puts
 .text          0x000000000000f28c       0x54 c:/develop/altera/15.0/nios2eds/bin/gnu/h-x86_64-mingw32/bin/../lib/gcc/nios2-elf/4.9.1/../../../../../H-x86_64-mingw32/nios2-elf/lib/mhw-mulx\libc.a(lib_a-sbrkr.o)
                0x000000000000f28c                _sbrk_r
 .text          0x000000000000f2e0       0x90 c:/develop/altera/15.0/nios2eds/bin/gnu/h-x86_64-mingw32/bin/../lib/gcc/nios2-elf/4.9.1/../../../../../H-x86_64-mingw32/nios2-elf/lib/mhw-mulx\libc.a(lib_a-strcpy.o)
                0x000000000000f2e0                strcpy
 .text          0x000000000000f370       0x98 c:/develop/altera/15.0/nios2eds/bin/gnu/h-x86_64-mingw32/bin/../lib/gcc/nios2-elf/4.9.1/../../../../../H-x86_64-mingw32/nios2-elf/lib/mhw-mulx\libc.a(lib_a-strlen.o)
                0x000000000000f370                strlen
 .text          0x000000000000f408     0x2020 c:/develop/altera/15.0/nios2eds/bin/gnu/h-x86_64-mingw32/bin/../lib/gcc/nios2-elf/4.9.1/../../../../../H-x86_64-mingw32/nios2-elf/lib/mhw-mulx\libc.a(lib_a-vfprintf.o)
                0x000000000000f408                ___vfprintf_internal_r
                0x0000000000011404                __vfprintf_internal
 .text          0x0000000000011428      0x130 c:/develop/altera/15.0/nios2eds/bin/gnu/h-x86_64-mingw32/bin/../lib/gcc/nios2-elf/4.9.1/../../../../../H-x86_64-mingw32/nios2-elf/lib/mhw-mulx\libc.a(lib_a-wsetup.o)
                0x0000000000011428                __swsetup_r
 .text          0x0000000000011558     0x1928 c:/develop/altera/15.0/nios2eds/bin/gnu/h-x86_64-mingw32/bin/../lib/gcc/nios2-elf/4.9.1/../../../../../H-x86_64-mingw32/nios2-elf/lib/mhw-mulx\libc.a(lib_a-dtoa.o)
                0x0000000000011758                _dtoa_r
 .text          0x0000000000012e80      0x258 c:/develop/altera/15.0/nios2eds/bin/gnu/h-x86_64-mingw32/bin/../lib/gcc/nios2-elf/4.9.1/../../../../../H-x86_64-mingw32/nios2-elf/lib/mhw-mulx\libc.a(lib_a-fflush.o)
                0x0000000000012e80                _fflush_r
                0x00000000000130a8                fflush
 .text          0x00000000000130d8      0x3a0 c:/develop/altera/15.0/nios2eds/bin/gnu/h-x86_64-mingw32/bin/../lib/gcc/nios2-elf/4.9.1/../../../../../H-x86_64-mingw32/nios2-elf/lib/mhw-mulx\libc.a(lib_a-findfp.o)
                0x00000000000130e8                _cleanup_r
                0x0000000000013294                __sfmoreglue
                0x00000000000132f8                __sfp
                0x0000000000013410                _cleanup
                0x0000000000013428                __sinit
                0x0000000000013438                __sfp_lock_acquire
                0x000000000001343c                __sfp_lock_release
                0x0000000000013440                __sinit_lock_acquire
                0x0000000000013444                __sinit_lock_release
                0x0000000000013448                __fp_lock_all
                0x0000000000013460                __fp_unlock_all
 .text          0x0000000000013478      0x414 c:/develop/altera/15.0/nios2eds/bin/gnu/h-x86_64-mingw32/bin/../lib/gcc/nios2-elf/4.9.1/../../../../../H-x86_64-mingw32/nios2-elf/lib/mhw-mulx\libc.a(lib_a-freer.o)
                0x0000000000013478                _malloc_trim_r
                0x000000000001359c                _free_r
 .text          0x000000000001388c      0x4a4 c:/develop/altera/15.0/nios2eds/bin/gnu/h-x86_64-mingw32/bin/../lib/gcc/nios2-elf/4.9.1/../../../../../H-x86_64-mingw32/nios2-elf/lib/mhw-mulx\libc.a(lib_a-fvwrite.o)
                0x000000000001388c                __sfvwrite_r
 .text          0x0000000000013d30      0x170 c:/develop/altera/15.0/nios2eds/bin/gnu/h-x86_64-mingw32/bin/../lib/gcc/nios2-elf/4.9.1/../../../../../H-x86_64-mingw32/nios2-elf/lib/mhw-mulx\libc.a(lib_a-fwalk.o)
                0x0000000000013d30                _fwalk
                0x0000000000013de8                _fwalk_reent
 .text          0x0000000000013ea0        0x0 c:/develop/altera/15.0/nios2eds/bin/gnu/h-x86_64-mingw32/bin/../lib/gcc/nios2-elf/4.9.1/../../../../../H-x86_64-mingw32/nios2-elf/lib/mhw-mulx\libc.a(lib_a-impure.o)
 .text          0x0000000000013ea0        0x0 c:/develop/altera/15.0/nios2eds/bin/gnu/h-x86_64-mingw32/bin/../lib/gcc/nios2-elf/4.9.1/../../../../../H-x86_64-mingw32/nios2-elf/lib/mhw-mulx\libc.a(lib_a-int_errno.o)
 .text          0x0000000000013ea0       0xe0 c:/develop/altera/15.0/nios2eds/bin/gnu/h-x86_64-mingw32/bin/../lib/gcc/nios2-elf/4.9.1/../../../../../H-x86_64-mingw32/nios2-elf/lib/mhw-mulx\libc.a(lib_a-locale.o)
                0x0000000000013ea0                _setlocale_r
                0x0000000000013f1c                __locale_charset
                0x0000000000013f28                __locale_mb_cur_max
                0x0000000000013f38                __locale_msgcharset
                0x0000000000013f44                __locale_cjk_lang
                0x0000000000013f4c                _localeconv_r
                0x0000000000013f58                setlocale
                0x0000000000013f74                localeconv
 .text          0x0000000000013f80      0x1b8 c:/develop/altera/15.0/nios2eds/bin/gnu/h-x86_64-mingw32/bin/../lib/gcc/nios2-elf/4.9.1/../../../../../H-x86_64-mingw32/nios2-elf/lib/mhw-mulx\libc.a(lib_a-makebuf.o)
                0x0000000000013f80                __smakebuf_r
 .text          0x0000000000014138       0xe8 c:/develop/altera/15.0/nios2eds/bin/gnu/h-x86_64-mingw32/bin/../lib/gcc/nios2-elf/4.9.1/../../../../../H-x86_64-mingw32/nios2-elf/lib/mhw-mulx\libc.a(lib_a-memchr.o)
                0x0000000000014138                memchr
 .text          0x0000000000014220      0x15c c:/develop/altera/15.0/nios2eds/bin/gnu/h-x86_64-mingw32/bin/../lib/gcc/nios2-elf/4.9.1/../../../../../H-x86_64-mingw32/nios2-elf/lib/mhw-mulx\libc.a(lib_a-memmove.o)
                0x0000000000014220                memmove
 .text          0x000000000001437c      0xf8c c:/develop/altera/15.0/nios2eds/bin/gnu/h-x86_64-mingw32/bin/../lib/gcc/nios2-elf/4.9.1/../../../../../H-x86_64-mingw32/nios2-elf/lib/mhw-mulx\libc.a(lib_a-mprec.o)
                0x000000000001437c                _Balloc
                0x0000000000014424                _Bfree
                0x000000000001444c                __multadd
                0x0000000000014560                __s2b
                0x0000000000014664                __hi0bits
                0x00000000000146cc                __lo0bits
                0x000000000001477c                __i2b
                0x00000000000147b8                __multiply
                0x00000000000149b4                __pow5mult
                0x0000000000014af4                __lshift
                0x0000000000014c3c                __mcmp
                0x0000000000014c9c                __mdiff
                0x0000000000014e34                __ulp
                0x0000000000014e94                __b2d
                0x0000000000014fb0                __d2b
                0x00000000000150ec                __ratio
                0x0000000000015190                _mprec_log10
                0x0000000000015204                __copybits
                0x000000000001527c                __any_on
 .text          0x0000000000015308      0x5a0 c:/develop/altera/15.0/nios2eds/bin/gnu/h-x86_64-mingw32/bin/../lib/gcc/nios2-elf/4.9.1/../../../../../H-x86_64-mingw32/nios2-elf/lib/mhw-mulx\libc.a(lib_a-reallocr.o)
                0x0000000000015308                _realloc_r
 .text          0x00000000000158a8       0x74 c:/develop/altera/15.0/nios2eds/bin/gnu/h-x86_64-mingw32/bin/../lib/gcc/nios2-elf/4.9.1/../../../../../H-x86_64-mingw32/nios2-elf/lib/mhw-mulx\libc.a(lib_a-s_fpclassify.o)
                0x00000000000158a8                __fpclassifyd
 .text          0x000000000001591c      0x13c c:/develop/altera/15.0/nios2eds/bin/gnu/h-x86_64-mingw32/bin/../lib/gcc/nios2-elf/4.9.1/../../../../../H-x86_64-mingw32/nios2-elf/lib/mhw-mulx\libc.a(lib_a-stdio.o)
                0x000000000001591c                __sread
                0x0000000000015970                __seofread
                0x0000000000015978                __swrite
                0x00000000000159f4                __sseek
                0x0000000000015a50                __sclose
 .text          0x0000000000015a58       0xa4 c:/develop/altera/15.0/nios2eds/bin/gnu/h-x86_64-mingw32/bin/../lib/gcc/nios2-elf/4.9.1/../../../../../H-x86_64-mingw32/nios2-elf/lib/mhw-mulx\libc.a(lib_a-strcmp.o)
                0x0000000000015a58                strcmp
 .text          0x0000000000015afc     0x1494 c:/develop/altera/15.0/nios2eds/bin/gnu/h-x86_64-mingw32/bin/../lib/gcc/nios2-elf/4.9.1/../../../../../H-x86_64-mingw32/nios2-elf/lib/mhw-mulx\libc.a(lib_a-vfiprintf.o)
                0x0000000000015bf8                __sprint_r
                0x0000000000015c10                ___vfiprintf_internal_r
                0x0000000000016f6c                __vfiprintf_internal
 .text          0x0000000000016f90       0x5c c:/develop/altera/15.0/nios2eds/bin/gnu/h-x86_64-mingw32/bin/../lib/gcc/nios2-elf/4.9.1/../../../../../H-x86_64-mingw32/nios2-elf/lib/mhw-mulx\libc.a(lib_a-writer.o)
                0x0000000000016f90                _write_r
 .text          0x0000000000016fec       0x54 c:/develop/altera/15.0/nios2eds/bin/gnu/h-x86_64-mingw32/bin/../lib/gcc/nios2-elf/4.9.1/../../../../../H-x86_64-mingw32/nios2-elf/lib/mhw-mulx\libc.a(closer.o)
                0x0000000000016fec                _close_r
 .text          0x0000000000017040       0xc4 c:/develop/altera/15.0/nios2eds/bin/gnu/h-x86_64-mingw32/bin/../lib/gcc/nios2-elf/4.9.1/../../../../../H-x86_64-mingw32/nios2-elf/lib/mhw-mulx\libc.a(lib_a-callocr.o)
                0x0000000000017040                _calloc_r
 .text          0x0000000000017104      0x114 c:/develop/altera/15.0/nios2eds/bin/gnu/h-x86_64-mingw32/bin/../lib/gcc/nios2-elf/4.9.1/../../../../../H-x86_64-mingw32/nios2-elf/lib/mhw-mulx\libc.a(lib_a-fclose.o)
                0x0000000000017104                _fclose_r
                0x0000000000017204                fclose
 .text          0x0000000000017218      0x1dc c:/develop/altera/15.0/nios2eds/bin/gnu/h-x86_64-mingw32/bin/../lib/gcc/nios2-elf/4.9.1/../../../../../H-x86_64-mingw32/nios2-elf/lib/mhw-mulx\libc.a(lib_a-fputwc.o)
                0x0000000000017218                _fputwc_r
                0x000000000001739c                fputwc
 .text          0x00000000000173f4       0x58 c:/develop/altera/15.0/nios2eds/bin/gnu/h-x86_64-mingw32/bin/../lib/gcc/nios2-elf/4.9.1/../../../../../H-x86_64-mingw32/nios2-elf/lib/mhw-mulx\libc.a(lib_a-fstatr.o)
                0x00000000000173f4                _fstat_r
 .text          0x000000000001744c       0x54 c:/develop/altera/15.0/nios2eds/bin/gnu/h-x86_64-mingw32/bin/../lib/gcc/nios2-elf/4.9.1/../../../../../H-x86_64-mingw32/nios2-elf/lib/mhw-mulx\libc.a(lib_a-isattyr.o)
                0x000000000001744c                _isatty_r
 .text          0x00000000000174a0       0x5c c:/develop/altera/15.0/nios2eds/bin/gnu/h-x86_64-mingw32/bin/../lib/gcc/nios2-elf/4.9.1/../../../../../H-x86_64-mingw32/nios2-elf/lib/mhw-mulx\libc.a(lib_a-lseekr.o)
                0x00000000000174a0                _lseek_r
 .text          0x00000000000174fc       0x5c c:/develop/altera/15.0/nios2eds/bin/gnu/h-x86_64-mingw32/bin/../lib/gcc/nios2-elf/4.9.1/../../../../../H-x86_64-mingw32/nios2-elf/lib/mhw-mulx\libc.a(lib_a-readr.o)
                0x00000000000174fc                _read_r
 .text          0x0000000000017558      0x170 c:/develop/altera/15.0/nios2eds/bin/gnu/h-x86_64-mingw32/bin/../lib/gcc/nios2-elf/4.9.1/../../../../../H-x86_64-mingw32/nios2-elf/lib/mhw-mulx\libc.a(lib_a-wbuf.o)
                0x0000000000017558                __swbuf_r
                0x00000000000176ac                __swbuf
 .text          0x00000000000176c8      0x174 c:/develop/altera/15.0/nios2eds/bin/gnu/h-x86_64-mingw32/bin/../lib/gcc/nios2-elf/4.9.1/../../../../../H-x86_64-mingw32/nios2-elf/lib/mhw-mulx\libc.a(lib_a-wcrtomb.o)
                0x00000000000176c8                _wcrtomb_r
                0x0000000000017764                wcrtomb
 .text          0x000000000001783c       0x8c c:/develop/altera/15.0/nios2eds/bin/gnu/h-x86_64-mingw32/bin/../lib/gcc/nios2-elf/4.9.1/../../../../../H-x86_64-mingw32/nios2-elf/lib/mhw-mulx\libc.a(lib_a-wctomb_r.o)
                0x000000000001783c                __ascii_wctomb
                0x000000000001786c                _wctomb_r
 .text          0x00000000000178c8      0x5c0 c:/develop/altera/15.0/nios2eds/bin/gnu/h-x86_64-mingw32/bin/../lib/gcc/nios2-elf/4.9.1/mhw-mulx\libgcc.a(_udivdi3.o)
                0x00000000000178c8                __udivdi3
 .text          0x0000000000017e88      0x590 c:/develop/altera/15.0/nios2eds/bin/gnu/h-x86_64-mingw32/bin/../lib/gcc/nios2-elf/4.9.1/mhw-mulx\libgcc.a(_umoddi3.o)
                0x0000000000017e88                __umoddi3
 .text          0x0000000000018418      0x12c c:/develop/altera/15.0/nios2eds/bin/gnu/h-x86_64-mingw32/bin/../lib/gcc/nios2-elf/4.9.1/mhw-mulx\libgcc.a(lib2-divmod.o)
                0x0000000000018484                __divsi3
                0x00000000000184d8                __modsi3
                0x0000000000018534                __udivsi3
                0x000000000001853c                __umodsi3
 .text          0x0000000000018544      0x89c c:/develop/altera/15.0/nios2eds/bin/gnu/h-x86_64-mingw32/bin/../lib/gcc/nios2-elf/4.9.1/mhw-mulx\libgcc.a(adddf3.o)
                0x0000000000018544                __adddf3
 .text          0x0000000000018de0      0x8cc c:/develop/altera/15.0/nios2eds/bin/gnu/h-x86_64-mingw32/bin/../lib/gcc/nios2-elf/4.9.1/mhw-mulx\libgcc.a(divdf3.o)
                0x0000000000018de0                __divdf3
 .text          0x00000000000196ac       0x84 c:/develop/altera/15.0/nios2eds/bin/gnu/h-x86_64-mingw32/bin/../lib/gcc/nios2-elf/4.9.1/mhw-mulx\libgcc.a(eqdf2.o)
                0x00000000000196ac                __nedf2
                0x00000000000196ac                __eqdf2
 .text          0x0000000000019730       0xe0 c:/develop/altera/15.0/nios2eds/bin/gnu/h-x86_64-mingw32/bin/../lib/gcc/nios2-elf/4.9.1/mhw-mulx\libgcc.a(gedf2.o)
                0x0000000000019730                __gedf2
                0x0000000000019730                __gtdf2
 .text          0x0000000000019810       0xe0 c:/develop/altera/15.0/nios2eds/bin/gnu/h-x86_64-mingw32/bin/../lib/gcc/nios2-elf/4.9.1/mhw-mulx\libgcc.a(ledf2.o)
                0x0000000000019810                __ledf2
                0x0000000000019810                __ltdf2
 .text          0x00000000000198f0      0x724 c:/develop/altera/15.0/nios2eds/bin/gnu/h-x86_64-mingw32/bin/../lib/gcc/nios2-elf/4.9.1/mhw-mulx\libgcc.a(muldf3.o)
                0x00000000000198f0                __muldf3
 .text          0x000000000001a014      0x8d0 c:/develop/altera/15.0/nios2eds/bin/gnu/h-x86_64-mingw32/bin/../lib/gcc/nios2-elf/4.9.1/mhw-mulx\libgcc.a(subdf3.o)
                0x000000000001a014                __subdf3
 .text          0x000000000001a8e4       0x88 c:/develop/altera/15.0/nios2eds/bin/gnu/h-x86_64-mingw32/bin/../lib/gcc/nios2-elf/4.9.1/mhw-mulx\libgcc.a(fixdfsi.o)
                0x000000000001a8e4                __fixdfsi
 .text          0x000000000001a96c       0xd0 c:/develop/altera/15.0/nios2eds/bin/gnu/h-x86_64-mingw32/bin/../lib/gcc/nios2-elf/4.9.1/mhw-mulx\libgcc.a(floatsidf.o)
                0x000000000001a96c                __floatsidf
 .text          0x000000000001aa3c       0xa4 c:/develop/altera/15.0/nios2eds/bin/gnu/h-x86_64-mingw32/bin/../lib/gcc/nios2-elf/4.9.1/mhw-mulx\libgcc.a(floatunsidf.o)
                0x000000000001aa3c                __floatunsidf
 .text          0x000000000001aae0        0x0 c:/develop/altera/15.0/nios2eds/bin/gnu/h-x86_64-mingw32/bin/../lib/gcc/nios2-elf/4.9.1/mhw-mulx\libgcc.a(_clz.o)
 .text          0x000000000001aae0       0x64 c:/develop/altera/15.0/nios2eds/bin/gnu/h-x86_64-mingw32/bin/../lib/gcc/nios2-elf/4.9.1/mhw-mulx\libgcc.a(_clzsi2.o)
                0x000000000001aae0                __clzsi2
 .text          0x000000000001ab44       0x94 ../cineraria_wavplay_bsp/\libhal_bsp.a(alt_alarm_start.o)
                0x000000000001ab44                alt_alarm_start
 .text          0x000000000001abd8       0xd0 ../cineraria_wavplay_bsp/\libhal_bsp.a(alt_close.o)
                0x000000000001abd8                close
 .text          0x000000000001aca8        0x8 ../cineraria_wavplay_bsp/\libhal_bsp.a(alt_dev.o)
 .text          0x000000000001acb0        0x0 ../cineraria_wavplay_bsp/\libhal_bsp.a(alt_errno.o)
 .text          0x000000000001acb0       0x38 ../cineraria_wavplay_bsp/\libhal_bsp.a(alt_fs_reg.o)
                0x000000000001acb0                alt_fs_reg
 .text          0x000000000001ace8       0x80 ../cineraria_wavplay_bsp/\libhal_bsp.a(alt_fstat.o)
                0x000000000001ace8                fstat
 .text          0x000000000001ad68       0x9c ../cineraria_wavplay_bsp/\libhal_bsp.a(alt_iic.o)
                0x000000000001ad68                alt_ic_isr_register
                0x000000000001ad6c                alt_ic_irq_enable
                0x000000000001adac                alt_ic_irq_disable
                0x000000000001adec                alt_ic_irq_enabled
 .text          0x000000000001ae04       0x68 ../cineraria_wavplay_bsp/\libhal_bsp.a(alt_iic_isr_register.o)
                0x000000000001ae04                alt_iic_isr_register
 .text          0x000000000001ae6c        0x0 ../cineraria_wavplay_bsp/\libhal_bsp.a(alt_irq_entry.o)
 .text          0x000000000001ae6c        0x0 ../cineraria_wavplay_bsp/\libhal_bsp.a(alt_irq_handler.o)
 .text          0x000000000001ae6c        0x0 ../cineraria_wavplay_bsp/\libhal_bsp.a(alt_irq_vars.o)
 .text          0x000000000001ae6c       0x8c ../cineraria_wavplay_bsp/\libhal_bsp.a(alt_isatty.o)
                0x000000000001ae6c                isatty
 .text          0x000000000001aef8       0xcc ../cineraria_wavplay_bsp/\libhal_bsp.a(alt_load.o)
                0x000000000001aef8                alt_load
 .text          0x000000000001afc4       0x84 ../cineraria_wavplay_bsp/\libhal_bsp.a(alt_lseek.o)
                0x000000000001afc4                lseek
 .text          0x000000000001b048       0x60 ../cineraria_wavplay_bsp/\libhal_bsp.a(alt_main.o)
                0x000000000001b048                alt_main
 .text          0x000000000001b0a8        0x8 ../cineraria_wavplay_bsp/\libhal_bsp.a(alt_malloc_lock.o)
                0x000000000001b0a8                __malloc_lock
                0x000000000001b0ac                __malloc_unlock
 .text          0x000000000001b0b0       0xe8 ../cineraria_wavplay_bsp/\libhal_bsp.a(alt_read.o)
                0x000000000001b0b0                read
 .text          0x000000000001b198       0x24 ../cineraria_wavplay_bsp/\libhal_bsp.a(alt_release_fd.o)
                0x000000000001b198                alt_release_fd
 .text          0x000000000001b1bc       0x4c ../cineraria_wavplay_bsp/\libhal_bsp.a(alt_sbrk.o)
                0x000000000001b1bc                sbrk
 .text          0x000000000001b208      0x12c ../cineraria_wavplay_bsp/\libhal_bsp.a(alt_tick.o)
                0x000000000001b208                alt_alarm_stop
                0x000000000001b23c                alt_tick
 .text          0x000000000001b334       0x10 ../cineraria_wavplay_bsp/\libhal_bsp.a(alt_uncached_free.o)
                0x000000000001b334                alt_uncached_free
 .text          0x000000000001b344       0x5c ../cineraria_wavplay_bsp/\libhal_bsp.a(alt_uncached_malloc.o)
                0x000000000001b344                alt_uncached_malloc
 .text          0x000000000001b3a0       0xe4 ../cineraria_wavplay_bsp/\libhal_bsp.a(alt_write.o)
                0x000000000001b3a0                write
 .text          0x000000000001b484       0x84 ../cineraria_wavplay_bsp/\libhal_bsp.a(alt_sys_init.o)
                0x000000000001b484                alt_irq_init
                0x000000000001b4a4                alt_sys_init
 .text          0x000000000001b508       0x3c ../cineraria_wavplay_bsp/\libhal_bsp.a(altera_avalon_jtag_uart_fd.o)
                0x000000000001b508                altera_avalon_jtag_uart_read_fd
                0x000000000001b518                altera_avalon_jtag_uart_write_fd
                0x000000000001b528                altera_avalon_jtag_uart_close_fd
                0x000000000001b538                altera_avalon_jtag_uart_ioctl_fd
 .text          0x000000000001b544      0x22c ../cineraria_wavplay_bsp/\libhal_bsp.a(altera_avalon_jtag_uart_init.o)
                0x000000000001b6a0                altera_avalon_jtag_uart_init
                0x000000000001b720                altera_avalon_jtag_uart_close
 .text          0x000000000001b770       0x74 ../cineraria_wavplay_bsp/\libhal_bsp.a(altera_avalon_jtag_uart_ioctl.o)
                0x000000000001b770                altera_avalon_jtag_uart_ioctl
 .text          0x000000000001b7e4      0x13c ../cineraria_wavplay_bsp/\libhal_bsp.a(altera_avalon_jtag_uart_read.o)
                0x000000000001b7e4                altera_avalon_jtag_uart_read
 .text          0x000000000001b920      0x1a0 ../cineraria_wavplay_bsp/\libhal_bsp.a(altera_avalon_jtag_uart_write.o)
                0x000000000001b920                altera_avalon_jtag_uart_write
 .text          0x000000000001bac0       0x8c ../cineraria_wavplay_bsp/\libhal_bsp.a(altera_avalon_timer_sc.o)
                0x000000000001bafc                alt_avalon_timer_sc_init
 .text          0x000000000001bb4c      0x598 ../cineraria_wavplay_bsp/\libhal_bsp.a(altera_epcq_controller.o)
                0x000000000001bb4c                alt_epcq_controller_lock
                0x000000000001bbe0                alt_epcq_controller_get_info
                0x000000000001bc1c                alt_epcq_controller_erase_block
                0x000000000001bc8c                alt_epcq_controller_write_block
                0x000000000001bdec                alt_epcq_controller_write
                0x000000000001bf5c                alt_epcq_controller_read
                0x000000000001bfa8                altera_epcq_controller_init
 .text          0x000000000001c0e4       0x60 ../cineraria_wavplay_bsp/\libhal_bsp.a(alt_busy_sleep.o)
                0x000000000001c0e4                alt_busy_sleep
 .text          0x000000000001c144       0x40 ../cineraria_wavplay_bsp/\libhal_bsp.a(alt_dcache_flush.o)
                0x000000000001c144                alt_dcache_flush
 .text          0x000000000001c184       0x18 ../cineraria_wavplay_bsp/\libhal_bsp.a(alt_dcache_flush_all.o)
                0x000000000001c184                alt_dcache_flush_all
 .text          0x000000000001c19c       0x78 ../cineraria_wavplay_bsp/\libhal_bsp.a(alt_dev_llist_insert.o)
                0x000000000001c19c                alt_dev_llist_insert
 .text          0x000000000001c214       0x64 ../cineraria_wavplay_bsp/\libhal_bsp.a(alt_do_ctors.o)
                0x000000000001c214                _do_ctors
 .text          0x000000000001c278       0x64 ../cineraria_wavplay_bsp/\libhal_bsp.a(alt_do_dtors.o)
                0x000000000001c278                _do_dtors
 .text          0x000000000001c2dc        0x0 ../cineraria_wavplay_bsp/\libhal_bsp.a(alt_exception_entry.o)
 .text          0x000000000001c2dc       0x64 ../cineraria_wavplay_bsp/\libhal_bsp.a(alt_flash_dev.o)
                0x000000000001c2dc                alt_flash_open_dev
                0x000000000001c32c                alt_flash_close_dev
 .text          0x000000000001c340        0xc ../cineraria_wavplay_bsp/\libhal_bsp.a(alt_icache_flush_all.o)
                0x000000000001c340                alt_icache_flush_all
 .text          0x000000000001c34c       0x74 ../cineraria_wavplay_bsp/\libhal_bsp.a(alt_instruction_exception_entry.o)
                0x000000000001c34c                alt_exception_cause_generated_bad_addr
 .text          0x000000000001c3c0      0x104 ../cineraria_wavplay_bsp/\libhal_bsp.a(alt_io_redirect.o)
                0x000000000001c3c0                alt_io_redirect
 .text          0x000000000001c4c4      0x1a0 ../cineraria_wavplay_bsp/\libhal_bsp.a(alt_open.o)
                0x000000000001c4c4                open
 .text          0x000000000001c664        0x8 ../cineraria_wavplay_bsp/\libhal_bsp.a(altera_nios2_gen2_irq.o)
                0x000000000001c664                altera_nios2_gen2_irq_init
 .text          0x000000000001c66c       0x78 ../cineraria_wavplay_bsp/\libhal_bsp.a(alt_find_dev.o)
                0x000000000001c66c                alt_find_dev
 .text          0x000000000001c6e4       0xb0 ../cineraria_wavplay_bsp/\libhal_bsp.a(alt_find_file.o)
                0x000000000001c6e4                alt_find_file
 .text          0x000000000001c794       0x50 ../cineraria_wavplay_bsp/\libhal_bsp.a(alt_get_fd.o)
                0x000000000001c794                alt_get_fd
 .text          0x000000000001c7e4       0x50 ../cineraria_wavplay_bsp/\libhal_bsp.a(alt_icache_flush.o)
                0x000000000001c7e4                alt_icache_flush
 .text          0x000000000001c834       0x14 c:/develop/altera/15.0/nios2eds/bin/gnu/h-x86_64-mingw32/bin/../lib/gcc/nios2-elf/4.9.1/../../../../../H-x86_64-mingw32/nios2-elf/lib/mhw-mulx\libc.a(lib_a-atexit.o)
                0x000000000001c834                atexit
 .text          0x000000000001c848       0x38 c:/develop/altera/15.0/nios2eds/bin/gnu/h-x86_64-mingw32/bin/../lib/gcc/nios2-elf/4.9.1/../../../../../H-x86_64-mingw32/nios2-elf/lib/mhw-mulx\libc.a(lib_a-exit.o)
                0x000000000001c848                exit
 .text          0x000000000001c880       0x1c c:/develop/altera/15.0/nios2eds/bin/gnu/h-x86_64-mingw32/bin/../lib/gcc/nios2-elf/4.9.1/../../../../../H-x86_64-mingw32/nios2-elf/lib/mhw-mulx\libc.a(lib_a-malign.o)
                0x000000000001c880                memalign
 .text          0x000000000001c89c      0x1b4 c:/develop/altera/15.0/nios2eds/bin/gnu/h-x86_64-mingw32/bin/../lib/gcc/nios2-elf/4.9.1/../../../../../H-x86_64-mingw32/nios2-elf/lib/mhw-mulx\libc.a(lib_a-malignr.o)
                0x000000000001c89c                _memalign_r
 .text          0x000000000001ca50       0x7c c:/develop/altera/15.0/nios2eds/bin/gnu/h-x86_64-mingw32/bin/../lib/gcc/nios2-elf/4.9.1/../../../../../H-x86_64-mingw32/nios2-elf/lib/mhw-mulx\libc.a(lib_a-memcmp.o)
                0x000000000001ca50                memcmp
 .text          0x000000000001cacc      0x114 c:/develop/altera/15.0/nios2eds/bin/gnu/h-x86_64-mingw32/bin/../lib/gcc/nios2-elf/4.9.1/../../../../../H-x86_64-mingw32/nios2-elf/lib/mhw-mulx\libc.a(lib_a-__atexit.o)
                0x000000000001cacc                __register_exitproc
 .text          0x000000000001cbe0      0x194 c:/develop/altera/15.0/nios2eds/bin/gnu/h-x86_64-mingw32/bin/../lib/gcc/nios2-elf/4.9.1/../../../../../H-x86_64-mingw32/nios2-elf/lib/mhw-mulx\libc.a(lib_a-__call_atexit.o)
                0x000000000001cbe0                __call_exitprocs
 .text          0x000000000001cd74       0x14 ../cineraria_wavplay_bsp/\libhal_bsp.a(alt_exit.o)
                0x000000000001cd74                _exit
 *(.gnu.warning.*)
 *(.fini)
                0x000000000001cd88                PROVIDE (__etext, ABSOLUTE (.))
                0x000000000001cd88                PROVIDE (_etext, ABSOLUTE (.))
                0x000000000001cd88                PROVIDE (etext, ABSOLUTE (.))
 *(.eh_frame_hdr)
                0x000000000001cd88                . = ALIGN (0x4)
                0x000000000001cd88                PROVIDE (__preinit_array_start, ABSOLUTE (.))
 *(.preinit_array)
                0x000000000001cd88                PROVIDE (__preinit_array_end, ABSOLUTE (.))
                0x000000000001cd88                PROVIDE (__init_array_start, ABSOLUTE (.))
 *(.init_array)
                0x000000000001cd88                PROVIDE (__init_array_end, ABSOLUTE (.))
                0x000000000001cd88                PROVIDE (__fini_array_start, ABSOLUTE (.))
 *(.fini_array)
                0x000000000001cd88                PROVIDE (__fini_array_end, ABSOLUTE (.))
 *(.eh_frame)
 *(.gcc_except_table .gcc_except_table.*)
 *(.dynamic)
                0x000000000001cd88                PROVIDE (__CTOR_LIST__, ABSOLUTE (.))
 *(.ctors)
 *(SORT(.ctors.*))
                0x000000000001cd88                PROVIDE (__CTOR_END__, ABSOLUTE (.))
                0x000000000001cd88                PROVIDE (__DTOR_LIST__, ABSOLUTE (.))
 *(.dtors)
 *(SORT(.dtors.*))
                0x000000000001cd88                PROVIDE (__DTOR_END__, ABSOLUTE (.))
 *(.jcr)
                0x000000000001cd88                . = ALIGN (0x4)

.rodata         0x000000000001cd88     0xf2e8
                0x000000000001cd88                PROVIDE (__ram_rodata_start, ABSOLUTE (.))
                0x000000000001cd88                . = ALIGN (0x4)
 *(.rodata .rodata.* .gnu.linkonce.r.*)
 .rodata.str1.4
                0x000000000001cd88       0x95 obj/default/loadbmp.o
                                         0x98 (size before relaxing)
 *fill*         0x000000000001ce1d        0x3 
 .rodata.str1.4
                0x000000000001ce20       0x13 obj/default/mmcfs/fatfs/ff.o
                                         0x14 (size before relaxing)
 .rodata        0x000000000001ce33        0xd obj/default/mmcfs/fatfs/ff.o
 .rodata        0x000000000001ce40     0xeab0 obj/default/mmcfs/fatfs/option/cc932.o
 .rodata.str1.4
                0x000000000002b8f0        0x7 obj/default/mmcfs/mmcfs.o
                                          0x8 (size before relaxing)
 .rodata        0x000000000002b8f7      0x400 obj/default/nd_lib/nd_egl.o
                0x000000000002b8f7                nd_GsEglRomFont
 *fill*         0x000000000002bcf7        0x1 
 .rodata.str1.4
                0x000000000002bcf8       0x28 obj/default/playwav.o
                                         0x68 (size before relaxing)
 .rodata.str1.4
                0x000000000002bd20       0x55 obj/default/wav_player.o
                                         0x58 (size before relaxing)
 .rodata.str1.4
                0x0000000000000000       0x55 c:/develop/altera/15.0/nios2eds/bin/gnu/h-x86_64-mingw32/bin/../lib/gcc/nios2-elf/4.9.1/../../../../../H-x86_64-mingw32/nios2-elf/lib/mhw-mulx\libc.a(lib_a-puts.o)
                                          0x4 (size before relaxing)
 *fill*         0x000000000002bd75        0x3 
 .rodata.str1.4
                0x000000000002bd78       0x42 c:/develop/altera/15.0/nios2eds/bin/gnu/h-x86_64-mingw32/bin/../lib/gcc/nios2-elf/4.9.1/../../../../../H-x86_64-mingw32/nios2-elf/lib/mhw-mulx\libc.a(lib_a-vfprintf.o)
                                         0x44 (size before relaxing)
 .rodata        0x000000000002bdba       0x20 c:/develop/altera/15.0/nios2eds/bin/gnu/h-x86_64-mingw32/bin/../lib/gcc/nios2-elf/4.9.1/../../../../../H-x86_64-mingw32/nios2-elf/lib/mhw-mulx\libc.a(lib_a-vfprintf.o)
 *fill*         0x000000000002bdda        0x2 
 .rodata.str1.4
                0x000000000002bddc       0x10 c:/develop/altera/15.0/nios2eds/bin/gnu/h-x86_64-mingw32/bin/../lib/gcc/nios2-elf/4.9.1/../../../../../H-x86_64-mingw32/nios2-elf/lib/mhw-mulx\libc.a(lib_a-dtoa.o)
                                         0x14 (size before relaxing)
 .rodata.str1.4
                0x000000000002bdec        0x2 c:/develop/altera/15.0/nios2eds/bin/gnu/h-x86_64-mingw32/bin/../lib/gcc/nios2-elf/4.9.1/../../../../../H-x86_64-mingw32/nios2-elf/lib/mhw-mulx\libc.a(lib_a-impure.o)
                                          0x4 (size before relaxing)
 *fill*         0x000000000002bdee        0x2 
 .rodata.str1.4
                0x000000000002bdf0        0xa c:/develop/altera/15.0/nios2eds/bin/gnu/h-x86_64-mingw32/bin/../lib/gcc/nios2-elf/4.9.1/../../../../../H-x86_64-mingw32/nios2-elf/lib/mhw-mulx\libc.a(lib_a-locale.o)
                                         0x14 (size before relaxing)
 *fill*         0x000000000002bdfa        0x2 
 .rodata        0x000000000002bdfc      0x124 c:/develop/altera/15.0/nios2eds/bin/gnu/h-x86_64-mingw32/bin/../lib/gcc/nios2-elf/4.9.1/../../../../../H-x86_64-mingw32/nios2-elf/lib/mhw-mulx\libc.a(lib_a-mprec.o)
                0x000000000002be08                __mprec_tinytens
                0x000000000002be30                __mprec_bigtens
                0x000000000002be58                __mprec_tens
 .rodata.str1.4
                0x0000000000000000       0x30 c:/develop/altera/15.0/nios2eds/bin/gnu/h-x86_64-mingw32/bin/../lib/gcc/nios2-elf/4.9.1/../../../../../H-x86_64-mingw32/nios2-elf/lib/mhw-mulx\libc.a(lib_a-vfiprintf.o)
 .rodata        0x000000000002bf20       0x20 c:/develop/altera/15.0/nios2eds/bin/gnu/h-x86_64-mingw32/bin/../lib/gcc/nios2-elf/4.9.1/../../../../../H-x86_64-mingw32/nios2-elf/lib/mhw-mulx\libc.a(lib_a-vfiprintf.o)
 .rodata        0x000000000002bf40      0x100 c:/develop/altera/15.0/nios2eds/bin/gnu/h-x86_64-mingw32/bin/../lib/gcc/nios2-elf/4.9.1/mhw-mulx\libgcc.a(_clz.o)
                0x000000000002bf40                __clz_tab
 .rodata.str1.4
                0x000000000002c040        0xa ../cineraria_wavplay_bsp/\libhal_bsp.a(alt_dev.o)
                                          0xc (size before relaxing)
 *fill*         0x000000000002c04a        0x2 
 .rodata.str1.4
                0x000000000002c04c        0xf ../cineraria_wavplay_bsp/\libhal_bsp.a(alt_main.o)
                                         0x10 (size before relaxing)
 *fill*         0x000000000002c05b        0x1 
 .rodata.str1.4
                0x000000000002c05c       0x14 ../cineraria_wavplay_bsp/\libhal_bsp.a(alt_sys_init.o)
                                         0x24 (size before relaxing)
 *(.rodata1)
                0x000000000002c070                . = ALIGN (0x4)
                0x000000000002c070                PROVIDE (__ram_rodata_end, ABSOLUTE (.))
                0x000000000001cd88                PROVIDE (__flash_rodata_start, LOADADDR (.rodata))

.rwdata         0x000000000002c070     0x1bfc
                0x000000000002c070                PROVIDE (__ram_rwdata_start, ABSOLUTE (.))
                0x000000000002c070                . = ALIGN (0x4)
 *(.got.plt)
 *(.got)
 *(.data1)
 *(.data .data.* .gnu.linkonce.d.*)
 .data          0x000000000002c070        0x0 ../cineraria_wavplay_bsp//obj/HAL/src/crt0.o
 .data          0x000000000002c070        0x0 obj/default/disp7seg.o
 .data          0x000000000002c070        0x0 obj/default/drawwave.o
 .data          0x000000000002c070        0x0 obj/default/getfilename.o
 .data          0x000000000002c070        0x0 obj/default/loadbmp.o
 .data          0x000000000002c070        0x0 obj/default/mmcfs/fatfs/ff.o
 .data          0x000000000002c070        0x0 obj/default/mmcfs/fatfs/mmcbb.o
 .data          0x000000000002c070        0x0 obj/default/mmcfs/fatfs/option/cc932.o
 .data          0x000000000002c070        0x0 obj/default/mmcfs/gettime.o
 .data          0x000000000002c070        0x0 obj/default/mmcfs/mmc_spi.o
 .data          0x000000000002c070       0x28 obj/default/mmcfs/mmcfs.o
 .data          0x000000000002c098        0x0 obj/default/nd_lib/nd_egl.o
 .data          0x000000000002c098        0x0 obj/default/playwav.o
 .data          0x000000000002c098        0x0 obj/default/wav_player.o
 .data          0x000000000002c098        0x0 c:/develop/altera/15.0/nios2eds/bin/gnu/h-x86_64-mingw32/bin/../lib/gcc/nios2-elf/4.9.1/../../../../../H-x86_64-mingw32/nios2-elf/lib/mhw-mulx\libc.a(lib_a-malloc.o)
 .data          0x000000000002c098      0x408 c:/develop/altera/15.0/nios2eds/bin/gnu/h-x86_64-mingw32/bin/../lib/gcc/nios2-elf/4.9.1/../../../../../H-x86_64-mingw32/nios2-elf/lib/mhw-mulx\libc.a(lib_a-mallocr.o)
                0x000000000002c098                __malloc_av_
 .data          0x000000000002c4a0        0x0 c:/develop/altera/15.0/nios2eds/bin/gnu/h-x86_64-mingw32/bin/../lib/gcc/nios2-elf/4.9.1/../../../../../H-x86_64-mingw32/nios2-elf/lib/mhw-mulx\libc.a(lib_a-memcpy.o)
 .data          0x000000000002c4a0        0x0 c:/develop/altera/15.0/nios2eds/bin/gnu/h-x86_64-mingw32/bin/../lib/gcc/nios2-elf/4.9.1/../../../../../H-x86_64-mingw32/nios2-elf/lib/mhw-mulx\libc.a(lib_a-memset.o)
 .data          0x000000000002c4a0        0x0 c:/develop/altera/15.0/nios2eds/bin/gnu/h-x86_64-mingw32/bin/../lib/gcc/nios2-elf/4.9.1/../../../../../H-x86_64-mingw32/nios2-elf/lib/mhw-mulx\libc.a(lib_a-printf.o)
 .data          0x000000000002c4a0        0x0 c:/develop/altera/15.0/nios2eds/bin/gnu/h-x86_64-mingw32/bin/../lib/gcc/nios2-elf/4.9.1/../../../../../H-x86_64-mingw32/nios2-elf/lib/mhw-mulx\libc.a(lib_a-puts.o)
 .data          0x000000000002c4a0        0x0 c:/develop/altera/15.0/nios2eds/bin/gnu/h-x86_64-mingw32/bin/../lib/gcc/nios2-elf/4.9.1/../../../../../H-x86_64-mingw32/nios2-elf/lib/mhw-mulx\libc.a(lib_a-sbrkr.o)
 .data          0x000000000002c4a0        0x0 c:/develop/altera/15.0/nios2eds/bin/gnu/h-x86_64-mingw32/bin/../lib/gcc/nios2-elf/4.9.1/../../../../../H-x86_64-mingw32/nios2-elf/lib/mhw-mulx\libc.a(lib_a-strcpy.o)
 .data          0x000000000002c4a0        0x0 c:/develop/altera/15.0/nios2eds/bin/gnu/h-x86_64-mingw32/bin/../lib/gcc/nios2-elf/4.9.1/../../../../../H-x86_64-mingw32/nios2-elf/lib/mhw-mulx\libc.a(lib_a-strlen.o)
 .data          0x000000000002c4a0        0x0 c:/develop/altera/15.0/nios2eds/bin/gnu/h-x86_64-mingw32/bin/../lib/gcc/nios2-elf/4.9.1/../../../../../H-x86_64-mingw32/nios2-elf/lib/mhw-mulx\libc.a(lib_a-vfprintf.o)
 .data          0x000000000002c4a0        0x0 c:/develop/altera/15.0/nios2eds/bin/gnu/h-x86_64-mingw32/bin/../lib/gcc/nios2-elf/4.9.1/../../../../../H-x86_64-mingw32/nios2-elf/lib/mhw-mulx\libc.a(lib_a-wsetup.o)
 .data          0x000000000002c4a0        0x0 c:/develop/altera/15.0/nios2eds/bin/gnu/h-x86_64-mingw32/bin/../lib/gcc/nios2-elf/4.9.1/../../../../../H-x86_64-mingw32/nios2-elf/lib/mhw-mulx\libc.a(lib_a-dtoa.o)
 .data          0x000000000002c4a0        0x0 c:/develop/altera/15.0/nios2eds/bin/gnu/h-x86_64-mingw32/bin/../lib/gcc/nios2-elf/4.9.1/../../../../../H-x86_64-mingw32/nios2-elf/lib/mhw-mulx\libc.a(lib_a-fflush.o)
 .data          0x000000000002c4a0        0x0 c:/develop/altera/15.0/nios2eds/bin/gnu/h-x86_64-mingw32/bin/../lib/gcc/nios2-elf/4.9.1/../../../../../H-x86_64-mingw32/nios2-elf/lib/mhw-mulx\libc.a(lib_a-findfp.o)
 .data          0x000000000002c4a0        0x0 c:/develop/altera/15.0/nios2eds/bin/gnu/h-x86_64-mingw32/bin/../lib/gcc/nios2-elf/4.9.1/../../../../../H-x86_64-mingw32/nios2-elf/lib/mhw-mulx\libc.a(lib_a-freer.o)
 .data          0x000000000002c4a0        0x0 c:/develop/altera/15.0/nios2eds/bin/gnu/h-x86_64-mingw32/bin/../lib/gcc/nios2-elf/4.9.1/../../../../../H-x86_64-mingw32/nios2-elf/lib/mhw-mulx\libc.a(lib_a-fvwrite.o)
 .data          0x000000000002c4a0        0x0 c:/develop/altera/15.0/nios2eds/bin/gnu/h-x86_64-mingw32/bin/../lib/gcc/nios2-elf/4.9.1/../../../../../H-x86_64-mingw32/nios2-elf/lib/mhw-mulx\libc.a(lib_a-fwalk.o)
 .data          0x000000000002c4a0      0x424 c:/develop/altera/15.0/nios2eds/bin/gnu/h-x86_64-mingw32/bin/../lib/gcc/nios2-elf/4.9.1/../../../../../H-x86_64-mingw32/nios2-elf/lib/mhw-mulx\libc.a(lib_a-impure.o)
 .data          0x000000000002c8c4        0x0 c:/develop/altera/15.0/nios2eds/bin/gnu/h-x86_64-mingw32/bin/../lib/gcc/nios2-elf/4.9.1/../../../../../H-x86_64-mingw32/nios2-elf/lib/mhw-mulx\libc.a(lib_a-int_errno.o)
 .data          0x000000000002c8c4       0x78 c:/develop/altera/15.0/nios2eds/bin/gnu/h-x86_64-mingw32/bin/../lib/gcc/nios2-elf/4.9.1/../../../../../H-x86_64-mingw32/nios2-elf/lib/mhw-mulx\libc.a(lib_a-locale.o)
 .data          0x000000000002c93c        0x0 c:/develop/altera/15.0/nios2eds/bin/gnu/h-x86_64-mingw32/bin/../lib/gcc/nios2-elf/4.9.1/../../../../../H-x86_64-mingw32/nios2-elf/lib/mhw-mulx\libc.a(lib_a-makebuf.o)
 .data          0x000000000002c93c        0x0 c:/develop/altera/15.0/nios2eds/bin/gnu/h-x86_64-mingw32/bin/../lib/gcc/nios2-elf/4.9.1/../../../../../H-x86_64-mingw32/nios2-elf/lib/mhw-mulx\libc.a(lib_a-memchr.o)
 .data          0x000000000002c93c        0x0 c:/develop/altera/15.0/nios2eds/bin/gnu/h-x86_64-mingw32/bin/../lib/gcc/nios2-elf/4.9.1/../../../../../H-x86_64-mingw32/nios2-elf/lib/mhw-mulx\libc.a(lib_a-memmove.o)
 .data          0x000000000002c93c        0x0 c:/develop/altera/15.0/nios2eds/bin/gnu/h-x86_64-mingw32/bin/../lib/gcc/nios2-elf/4.9.1/../../../../../H-x86_64-mingw32/nios2-elf/lib/mhw-mulx\libc.a(lib_a-mprec.o)
 .data          0x000000000002c93c        0x0 c:/develop/altera/15.0/nios2eds/bin/gnu/h-x86_64-mingw32/bin/../lib/gcc/nios2-elf/4.9.1/../../../../../H-x86_64-mingw32/nios2-elf/lib/mhw-mulx\libc.a(lib_a-reallocr.o)
 .data          0x000000000002c93c        0x0 c:/develop/altera/15.0/nios2eds/bin/gnu/h-x86_64-mingw32/bin/../lib/gcc/nios2-elf/4.9.1/../../../../../H-x86_64-mingw32/nios2-elf/lib/mhw-mulx\libc.a(lib_a-s_fpclassify.o)
 .data          0x000000000002c93c        0x0 c:/develop/altera/15.0/nios2eds/bin/gnu/h-x86_64-mingw32/bin/../lib/gcc/nios2-elf/4.9.1/../../../../../H-x86_64-mingw32/nios2-elf/lib/mhw-mulx\libc.a(lib_a-stdio.o)
 .data          0x000000000002c93c        0x0 c:/develop/altera/15.0/nios2eds/bin/gnu/h-x86_64-mingw32/bin/../lib/gcc/nios2-elf/4.9.1/../../../../../H-x86_64-mingw32/nios2-elf/lib/mhw-mulx\libc.a(lib_a-strcmp.o)
 .data          0x000000000002c93c        0x0 c:/develop/altera/15.0/nios2eds/bin/gnu/h-x86_64-mingw32/bin/../lib/gcc/nios2-elf/4.9.1/../../../../../H-x86_64-mingw32/nios2-elf/lib/mhw-mulx\libc.a(lib_a-vfiprintf.o)
 .data          0x000000000002c93c        0x0 c:/develop/altera/15.0/nios2eds/bin/gnu/h-x86_64-mingw32/bin/../lib/gcc/nios2-elf/4.9.1/../../../../../H-x86_64-mingw32/nios2-elf/lib/mhw-mulx\libc.a(lib_a-writer.o)
 .data          0x000000000002c93c        0x0 c:/develop/altera/15.0/nios2eds/bin/gnu/h-x86_64-mingw32/bin/../lib/gcc/nios2-elf/4.9.1/../../../../../H-x86_64-mingw32/nios2-elf/lib/mhw-mulx\libc.a(closer.o)
 .data          0x000000000002c93c        0x0 c:/develop/altera/15.0/nios2eds/bin/gnu/h-x86_64-mingw32/bin/../lib/gcc/nios2-elf/4.9.1/../../../../../H-x86_64-mingw32/nios2-elf/lib/mhw-mulx\libc.a(lib_a-callocr.o)
 .data          0x000000000002c93c        0x0 c:/develop/altera/15.0/nios2eds/bin/gnu/h-x86_64-mingw32/bin/../lib/gcc/nios2-elf/4.9.1/../../../../../H-x86_64-mingw32/nios2-elf/lib/mhw-mulx\libc.a(lib_a-fclose.o)
 .data          0x000000000002c93c        0x0 c:/develop/altera/15.0/nios2eds/bin/gnu/h-x86_64-mingw32/bin/../lib/gcc/nios2-elf/4.9.1/../../../../../H-x86_64-mingw32/nios2-elf/lib/mhw-mulx\libc.a(lib_a-fputwc.o)
 .data          0x000000000002c93c        0x0 c:/develop/altera/15.0/nios2eds/bin/gnu/h-x86_64-mingw32/bin/../lib/gcc/nios2-elf/4.9.1/../../../../../H-x86_64-mingw32/nios2-elf/lib/mhw-mulx\libc.a(lib_a-fstatr.o)
 .data          0x000000000002c93c        0x0 c:/develop/altera/15.0/nios2eds/bin/gnu/h-x86_64-mingw32/bin/../lib/gcc/nios2-elf/4.9.1/../../../../../H-x86_64-mingw32/nios2-elf/lib/mhw-mulx\libc.a(lib_a-isattyr.o)
 .data          0x000000000002c93c        0x0 c:/develop/altera/15.0/nios2eds/bin/gnu/h-x86_64-mingw32/bin/../lib/gcc/nios2-elf/4.9.1/../../../../../H-x86_64-mingw32/nios2-elf/lib/mhw-mulx\libc.a(lib_a-lseekr.o)
 .data          0x000000000002c93c        0x0 c:/develop/altera/15.0/nios2eds/bin/gnu/h-x86_64-mingw32/bin/../lib/gcc/nios2-elf/4.9.1/../../../../../H-x86_64-mingw32/nios2-elf/lib/mhw-mulx\libc.a(lib_a-readr.o)
 .data          0x000000000002c93c        0x0 c:/develop/altera/15.0/nios2eds/bin/gnu/h-x86_64-mingw32/bin/../lib/gcc/nios2-elf/4.9.1/../../../../../H-x86_64-mingw32/nios2-elf/lib/mhw-mulx\libc.a(lib_a-wbuf.o)
 .data          0x000000000002c93c        0x0 c:/develop/altera/15.0/nios2eds/bin/gnu/h-x86_64-mingw32/bin/../lib/gcc/nios2-elf/4.9.1/../../../../../H-x86_64-mingw32/nios2-elf/lib/mhw-mulx\libc.a(lib_a-wcrtomb.o)
 .data          0x000000000002c93c        0x0 c:/develop/altera/15.0/nios2eds/bin/gnu/h-x86_64-mingw32/bin/../lib/gcc/nios2-elf/4.9.1/../../../../../H-x86_64-mingw32/nios2-elf/lib/mhw-mulx\libc.a(lib_a-wctomb_r.o)
 .data          0x000000000002c93c        0x0 c:/develop/altera/15.0/nios2eds/bin/gnu/h-x86_64-mingw32/bin/../lib/gcc/nios2-elf/4.9.1/mhw-mulx\libgcc.a(_udivdi3.o)
 .data          0x000000000002c93c        0x0 c:/develop/altera/15.0/nios2eds/bin/gnu/h-x86_64-mingw32/bin/../lib/gcc/nios2-elf/4.9.1/mhw-mulx\libgcc.a(_umoddi3.o)
 .data          0x000000000002c93c        0x0 c:/develop/altera/15.0/nios2eds/bin/gnu/h-x86_64-mingw32/bin/../lib/gcc/nios2-elf/4.9.1/mhw-mulx\libgcc.a(lib2-divmod.o)
 .data          0x000000000002c93c        0x0 c:/develop/altera/15.0/nios2eds/bin/gnu/h-x86_64-mingw32/bin/../lib/gcc/nios2-elf/4.9.1/mhw-mulx\libgcc.a(adddf3.o)
 .data          0x000000000002c93c        0x0 c:/develop/altera/15.0/nios2eds/bin/gnu/h-x86_64-mingw32/bin/../lib/gcc/nios2-elf/4.9.1/mhw-mulx\libgcc.a(divdf3.o)
 .data          0x000000000002c93c        0x0 c:/develop/altera/15.0/nios2eds/bin/gnu/h-x86_64-mingw32/bin/../lib/gcc/nios2-elf/4.9.1/mhw-mulx\libgcc.a(eqdf2.o)
 .data          0x000000000002c93c        0x0 c:/develop/altera/15.0/nios2eds/bin/gnu/h-x86_64-mingw32/bin/../lib/gcc/nios2-elf/4.9.1/mhw-mulx\libgcc.a(gedf2.o)
 .data          0x000000000002c93c        0x0 c:/develop/altera/15.0/nios2eds/bin/gnu/h-x86_64-mingw32/bin/../lib/gcc/nios2-elf/4.9.1/mhw-mulx\libgcc.a(ledf2.o)
 .data          0x000000000002c93c        0x0 c:/develop/altera/15.0/nios2eds/bin/gnu/h-x86_64-mingw32/bin/../lib/gcc/nios2-elf/4.9.1/mhw-mulx\libgcc.a(muldf3.o)
 .data          0x000000000002c93c        0x0 c:/develop/altera/15.0/nios2eds/bin/gnu/h-x86_64-mingw32/bin/../lib/gcc/nios2-elf/4.9.1/mhw-mulx\libgcc.a(subdf3.o)
 .data          0x000000000002c93c        0x0 c:/develop/altera/15.0/nios2eds/bin/gnu/h-x86_64-mingw32/bin/../lib/gcc/nios2-elf/4.9.1/mhw-mulx\libgcc.a(fixdfsi.o)
 .data          0x000000000002c93c        0x0 c:/develop/altera/15.0/nios2eds/bin/gnu/h-x86_64-mingw32/bin/../lib/gcc/nios2-elf/4.9.1/mhw-mulx\libgcc.a(floatsidf.o)
 .data          0x000000000002c93c        0x0 c:/develop/altera/15.0/nios2eds/bin/gnu/h-x86_64-mingw32/bin/../lib/gcc/nios2-elf/4.9.1/mhw-mulx\libgcc.a(floatunsidf.o)
 .data          0x000000000002c93c        0x0 c:/develop/altera/15.0/nios2eds/bin/gnu/h-x86_64-mingw32/bin/../lib/gcc/nios2-elf/4.9.1/mhw-mulx\libgcc.a(_clz.o)
 .data          0x000000000002c93c        0x0 c:/develop/altera/15.0/nios2eds/bin/gnu/h-x86_64-mingw32/bin/../lib/gcc/nios2-elf/4.9.1/mhw-mulx\libgcc.a(_clzsi2.o)
 .data          0x000000000002c93c        0x0 ../cineraria_wavplay_bsp/\libhal_bsp.a(alt_alarm_start.o)
 .data          0x000000000002c93c        0x0 ../cineraria_wavplay_bsp/\libhal_bsp.a(alt_close.o)
 .data          0x000000000002c93c      0x1a8 ../cineraria_wavplay_bsp/\libhal_bsp.a(alt_dev.o)
                0x000000000002c93c                alt_fd_list
                0x000000000002cabc                alt_dev_null
 .data          0x000000000002cae4        0x0 ../cineraria_wavplay_bsp/\libhal_bsp.a(alt_errno.o)
 .data          0x000000000002cae4        0x0 ../cineraria_wavplay_bsp/\libhal_bsp.a(alt_fs_reg.o)
 .data          0x000000000002cae4        0x0 ../cineraria_wavplay_bsp/\libhal_bsp.a(alt_fstat.o)
 .data          0x000000000002cae4        0x0 ../cineraria_wavplay_bsp/\libhal_bsp.a(alt_iic.o)
 .data          0x000000000002cae4        0x0 ../cineraria_wavplay_bsp/\libhal_bsp.a(alt_iic_isr_register.o)
 .data          0x000000000002cae4        0x0 ../cineraria_wavplay_bsp/\libhal_bsp.a(alt_irq_entry.o)
 .data          0x000000000002cae4        0x0 ../cineraria_wavplay_bsp/\libhal_bsp.a(alt_irq_handler.o)
 .data          0x000000000002cae4        0x0 ../cineraria_wavplay_bsp/\libhal_bsp.a(alt_irq_vars.o)
 .data          0x000000000002cae4        0x0 ../cineraria_wavplay_bsp/\libhal_bsp.a(alt_isatty.o)
 .data          0x000000000002cae4        0x0 ../cineraria_wavplay_bsp/\libhal_bsp.a(alt_load.o)
 .data          0x000000000002cae4        0x0 ../cineraria_wavplay_bsp/\libhal_bsp.a(alt_lseek.o)
 .data          0x000000000002cae4        0x0 ../cineraria_wavplay_bsp/\libhal_bsp.a(alt_main.o)
 .data          0x000000000002cae4        0x0 ../cineraria_wavplay_bsp/\libhal_bsp.a(alt_malloc_lock.o)
 .data          0x000000000002cae4        0x0 ../cineraria_wavplay_bsp/\libhal_bsp.a(alt_read.o)
 .data          0x000000000002cae4        0x0 ../cineraria_wavplay_bsp/\libhal_bsp.a(alt_release_fd.o)
 .data          0x000000000002cae4        0x0 ../cineraria_wavplay_bsp/\libhal_bsp.a(alt_sbrk.o)
 .data          0x000000000002cae4        0x0 ../cineraria_wavplay_bsp/\libhal_bsp.a(alt_tick.o)
 .data          0x000000000002cae4        0x0 ../cineraria_wavplay_bsp/\libhal_bsp.a(alt_uncached_free.o)
 .data          0x000000000002cae4        0x0 ../cineraria_wavplay_bsp/\libhal_bsp.a(alt_uncached_malloc.o)
 .data          0x000000000002cae4        0x0 ../cineraria_wavplay_bsp/\libhal_bsp.a(alt_write.o)
 .data          0x000000000002cae4     0x113c ../cineraria_wavplay_bsp/\libhal_bsp.a(alt_sys_init.o)
 .data          0x000000000002dc20        0x0 ../cineraria_wavplay_bsp/\libhal_bsp.a(altera_avalon_jtag_uart_fd.o)
 .data          0x000000000002dc20        0x0 ../cineraria_wavplay_bsp/\libhal_bsp.a(altera_avalon_jtag_uart_init.o)
 .data          0x000000000002dc20        0x0 ../cineraria_wavplay_bsp/\libhal_bsp.a(altera_avalon_jtag_uart_ioctl.o)
 .data          0x000000000002dc20        0x0 ../cineraria_wavplay_bsp/\libhal_bsp.a(altera_avalon_jtag_uart_read.o)
 .data          0x000000000002dc20        0x0 ../cineraria_wavplay_bsp/\libhal_bsp.a(altera_avalon_jtag_uart_write.o)
 .data          0x000000000002dc20        0x0 ../cineraria_wavplay_bsp/\libhal_bsp.a(altera_avalon_timer_sc.o)
 .data          0x000000000002dc20        0x0 ../cineraria_wavplay_bsp/\libhal_bsp.a(altera_epcq_controller.o)
 .data          0x000000000002dc20        0x0 ../cineraria_wavplay_bsp/\libhal_bsp.a(alt_busy_sleep.o)
 .data          0x000000000002dc20        0x0 ../cineraria_wavplay_bsp/\libhal_bsp.a(alt_dcache_flush.o)
 .data          0x000000000002dc20        0x0 ../cineraria_wavplay_bsp/\libhal_bsp.a(alt_dcache_flush_all.o)
 .data          0x000000000002dc20        0x0 ../cineraria_wavplay_bsp/\libhal_bsp.a(alt_dev_llist_insert.o)
 .data          0x000000000002dc20        0x0 ../cineraria_wavplay_bsp/\libhal_bsp.a(alt_do_ctors.o)
 .data          0x000000000002dc20        0x0 ../cineraria_wavplay_bsp/\libhal_bsp.a(alt_do_dtors.o)
 .data          0x000000000002dc20        0x0 ../cineraria_wavplay_bsp/\libhal_bsp.a(alt_exception_entry.o)
 .data          0x000000000002dc20        0x0 ../cineraria_wavplay_bsp/\libhal_bsp.a(alt_flash_dev.o)
 .data          0x000000000002dc20        0x0 ../cineraria_wavplay_bsp/\libhal_bsp.a(alt_icache_flush_all.o)
 .data          0x000000000002dc20        0x0 ../cineraria_wavplay_bsp/\libhal_bsp.a(alt_instruction_exception_entry.o)
 .data          0x000000000002dc20        0x0 ../cineraria_wavplay_bsp/\libhal_bsp.a(alt_io_redirect.o)
 .data          0x000000000002dc20        0x0 ../cineraria_wavplay_bsp/\libhal_bsp.a(alt_open.o)
 .data          0x000000000002dc20        0x0 ../cineraria_wavplay_bsp/\libhal_bsp.a(altera_nios2_gen2_irq.o)
 .data          0x000000000002dc20        0x0 ../cineraria_wavplay_bsp/\libhal_bsp.a(alt_find_dev.o)
 .data          0x000000000002dc20        0x0 ../cineraria_wavplay_bsp/\libhal_bsp.a(alt_find_file.o)
 .data          0x000000000002dc20        0x0 ../cineraria_wavplay_bsp/\libhal_bsp.a(alt_get_fd.o)
 .data          0x000000000002dc20        0x0 ../cineraria_wavplay_bsp/\libhal_bsp.a(alt_icache_flush.o)
 .data          0x000000000002dc20        0x0 c:/develop/altera/15.0/nios2eds/bin/gnu/h-x86_64-mingw32/bin/../lib/gcc/nios2-elf/4.9.1/../../../../../H-x86_64-mingw32/nios2-elf/lib/mhw-mulx\libc.a(lib_a-atexit.o)
 .data          0x000000000002dc20        0x0 c:/develop/altera/15.0/nios2eds/bin/gnu/h-x86_64-mingw32/bin/../lib/gcc/nios2-elf/4.9.1/../../../../../H-x86_64-mingw32/nios2-elf/lib/mhw-mulx\libc.a(lib_a-exit.o)
 .data          0x000000000002dc20        0x0 c:/develop/altera/15.0/nios2eds/bin/gnu/h-x86_64-mingw32/bin/../lib/gcc/nios2-elf/4.9.1/../../../../../H-x86_64-mingw32/nios2-elf/lib/mhw-mulx\libc.a(lib_a-malign.o)
 .data          0x000000000002dc20        0x0 c:/develop/altera/15.0/nios2eds/bin/gnu/h-x86_64-mingw32/bin/../lib/gcc/nios2-elf/4.9.1/../../../../../H-x86_64-mingw32/nios2-elf/lib/mhw-mulx\libc.a(lib_a-malignr.o)
 .data          0x000000000002dc20        0x0 c:/develop/altera/15.0/nios2eds/bin/gnu/h-x86_64-mingw32/bin/../lib/gcc/nios2-elf/4.9.1/../../../../../H-x86_64-mingw32/nios2-elf/lib/mhw-mulx\libc.a(lib_a-memcmp.o)
 .data          0x000000000002dc20        0x0 c:/develop/altera/15.0/nios2eds/bin/gnu/h-x86_64-mingw32/bin/../lib/gcc/nios2-elf/4.9.1/../../../../../H-x86_64-mingw32/nios2-elf/lib/mhw-mulx\libc.a(lib_a-__atexit.o)
 .data          0x000000000002dc20        0x0 c:/develop/altera/15.0/nios2eds/bin/gnu/h-x86_64-mingw32/bin/../lib/gcc/nios2-elf/4.9.1/../../../../../H-x86_64-mingw32/nios2-elf/lib/mhw-mulx\libc.a(lib_a-__call_atexit.o)
 .data          0x000000000002dc20        0x0 ../cineraria_wavplay_bsp/\libhal_bsp.a(alt_exit.o)
                0x0000000000035c20                _gp = ABSOLUTE ((. + 0x8000))
                0x0000000000035c20                PROVIDE (gp, _gp)
 *(.rwdata .rwdata.*)
 *(.sdata .sdata.* .gnu.linkonce.s.*)
 .sdata         0x000000000002dc20        0x1 obj/default/mmcfs/fatfs/mmcbb.o
 *fill*         0x000000000002dc21        0x3 
 .sdata         0x000000000002dc24        0x8 c:/develop/altera/15.0/nios2eds/bin/gnu/h-x86_64-mingw32/bin/../lib/gcc/nios2-elf/4.9.1/../../../../../H-x86_64-mingw32/nios2-elf/lib/mhw-mulx\libc.a(lib_a-mallocr.o)
                0x000000000002dc24                __malloc_sbrk_base
                0x000000000002dc28                __malloc_trim_threshold
 .sdata         0x000000000002dc2c        0x8 c:/develop/altera/15.0/nios2eds/bin/gnu/h-x86_64-mingw32/bin/../lib/gcc/nios2-elf/4.9.1/../../../../../H-x86_64-mingw32/nios2-elf/lib/mhw-mulx\libc.a(lib_a-impure.o)
                0x000000000002dc2c                _global_impure_ptr
                0x000000000002dc30                _impure_ptr
 .sdata         0x000000000002dc34        0x4 c:/develop/altera/15.0/nios2eds/bin/gnu/h-x86_64-mingw32/bin/../lib/gcc/nios2-elf/4.9.1/../../../../../H-x86_64-mingw32/nios2-elf/lib/mhw-mulx\libc.a(lib_a-locale.o)
                0x000000000002dc34                __mb_cur_max
 .sdata         0x000000000002dc38        0x4 c:/develop/altera/15.0/nios2eds/bin/gnu/h-x86_64-mingw32/bin/../lib/gcc/nios2-elf/4.9.1/../../../../../H-x86_64-mingw32/nios2-elf/lib/mhw-mulx\libc.a(lib_a-wctomb_r.o)
                0x000000000002dc38                __wctomb
 .sdata         0x000000000002dc3c       0x14 ../cineraria_wavplay_bsp/\libhal_bsp.a(alt_dev.o)
                0x000000000002dc3c                alt_max_fd
                0x000000000002dc40                alt_dev_list
                0x000000000002dc48                alt_fs_list
 .sdata         0x000000000002dc50        0x4 ../cineraria_wavplay_bsp/\libhal_bsp.a(alt_errno.o)
                0x000000000002dc50                alt_errno
 .sdata         0x000000000002dc54        0x4 ../cineraria_wavplay_bsp/\libhal_bsp.a(alt_irq_vars.o)
                0x000000000002dc54                alt_priority_mask
 .sdata         0x000000000002dc58        0x4 ../cineraria_wavplay_bsp/\libhal_bsp.a(alt_sbrk.o)
 .sdata         0x000000000002dc5c        0x8 ../cineraria_wavplay_bsp/\libhal_bsp.a(alt_tick.o)
                0x000000000002dc5c                alt_alarm_list
 .sdata         0x000000000002dc64        0x8 ../cineraria_wavplay_bsp/\libhal_bsp.a(alt_flash_dev.o)
                0x000000000002dc64                alt_flash_dev_list
 *(.sdata2 .sdata2.* .gnu.linkonce.s2.*)
                0x000000000002dc6c                . = ALIGN (0x4)
                0x000000000002dc6c                _edata = ABSOLUTE (.)
                0x000000000002dc6c                PROVIDE (edata, ABSOLUTE (.))
                0x000000000002dc6c                PROVIDE (__ram_rwdata_end, ABSOLUTE (.))
                0x000000000002c070                PROVIDE (__flash_rwdata_start, LOADADDR (.rwdata))

.bss            0x000000000002dc6c    0x1bfdc
                0x000000000002dc6c                __bss_start = ABSOLUTE (.)
                0x000000000002dc6c                PROVIDE (__sbss_start, ABSOLUTE (.))
                0x000000000002dc6c                PROVIDE (___sbss_start, ABSOLUTE (.))
 *(.dynsbss)
 *(.sbss .sbss.* .gnu.linkonce.sb.*)
 .sbss          0x000000000002dc6c        0x4 obj/default/disp7seg.o
 .sbss          0x000000000002dc70        0x8 obj/default/drawwave.o
 .sbss          0x000000000002dc78        0x8 obj/default/mmcfs/fatfs/ff.o
 .sbss          0x000000000002dc80        0x1 obj/default/mmcfs/fatfs/mmcbb.o
 *fill*         0x000000000002dc81        0x3 
 .sbss          0x000000000002dc84        0x8 obj/default/mmcfs/mmc_spi.o
 .sbss          0x000000000002dc8c        0x4 obj/default/mmcfs/mmcfs.o
 .sbss          0x000000000002dc90       0x14 obj/default/nd_lib/nd_egl.o
 .sbss          0x000000000002dca4        0xc obj/default/nd_lib/nd_egl.o
                0x000000000002dca4                nd_GsVgaVsyncCount
                0x000000000002dca8                nd_GsEglDrawBuffer
                0x000000000002dcac                nd_GsVgaVsyncFlag
 .sbss          0x000000000002dcb0        0x8 obj/default/playwav.o
 .sbss          0x000000000002dcb8        0xc c:/develop/altera/15.0/nios2eds/bin/gnu/h-x86_64-mingw32/bin/../lib/gcc/nios2-elf/4.9.1/../../../../../H-x86_64-mingw32/nios2-elf/lib/mhw-mulx\libc.a(lib_a-mallocr.o)
                0x000000000002dcb8                __malloc_max_total_mem
                0x000000000002dcbc                __malloc_max_sbrked_mem
                0x000000000002dcc0                __malloc_top_pad
 .sbss          0x000000000002dcc4        0x4 c:/develop/altera/15.0/nios2eds/bin/gnu/h-x86_64-mingw32/bin/../lib/gcc/nios2-elf/4.9.1/../../../../../H-x86_64-mingw32/nios2-elf/lib/mhw-mulx\libc.a(lib_a-int_errno.o)
                0x000000000002dcc4                errno
 .sbss          0x000000000002dcc8        0xc c:/develop/altera/15.0/nios2eds/bin/gnu/h-x86_64-mingw32/bin/../lib/gcc/nios2-elf/4.9.1/../../../../../H-x86_64-mingw32/nios2-elf/lib/mhw-mulx\libc.a(lib_a-locale.o)
                0x000000000002dcc8                _PathLocale
                0x000000000002dccc                __mlocale_changed
                0x000000000002dcd0                __nlocale_changed
 .sbss          0x000000000002dcd4        0x4 ../cineraria_wavplay_bsp/\libhal_bsp.a(alt_irq_vars.o)
                0x000000000002dcd4                alt_irq_active
 .sbss          0x000000000002dcd8        0xc ../cineraria_wavplay_bsp/\libhal_bsp.a(alt_main.o)
                0x000000000002dcd8                alt_envp
                0x000000000002dcdc                alt_argv
                0x000000000002dce0                alt_argc
 .sbss          0x000000000002dce4        0x8 ../cineraria_wavplay_bsp/\libhal_bsp.a(alt_tick.o)
                0x000000000002dce4                _alt_nticks
                0x000000000002dce8                _alt_tick_rate
 .sbss          0x000000000002dcec        0x4 ../cineraria_wavplay_bsp/\libhal_bsp.a(alt_instruction_exception_entry.o)
                0x000000000002dcec                alt_instruction_exception_handler
 *(.sbss2 .sbss2.* .gnu.linkonce.sb2.*)
 *(.scommon)
                0x000000000002dcf0                PROVIDE (__sbss_end, ABSOLUTE (.))
                0x000000000002dcf0                PROVIDE (___sbss_end, ABSOLUTE (.))
 *(.dynbss)
 *(.bss .bss.* .gnu.linkonce.b.*)
 .bss           0x000000000002dcf0        0x0 ../cineraria_wavplay_bsp//obj/HAL/src/crt0.o
 .bss           0x000000000002dcf0       0x18 obj/default/disp7seg.o
 .bss           0x000000000002dd08    0x19000 obj/default/drawwave.o
 .bss           0x0000000000046d08      0x144 obj/default/getfilename.o
 .bss           0x0000000000046e4c        0x0 obj/default/loadbmp.o
 .bss           0x0000000000046e4c      0x200 obj/default/mmcfs/fatfs/ff.o
 .bss           0x000000000004704c        0x0 obj/default/mmcfs/fatfs/mmcbb.o
 .bss           0x000000000004704c        0x0 obj/default/mmcfs/fatfs/option/cc932.o
 .bss           0x000000000004704c        0x0 obj/default/mmcfs/gettime.o
 .bss           0x000000000004704c        0x0 obj/default/mmcfs/mmc_spi.o
 .bss           0x000000000004704c     0x24b0 obj/default/mmcfs/mmcfs.o
 .bss           0x00000000000494fc        0x0 obj/default/nd_lib/nd_egl.o
 .bss           0x00000000000494fc      0x624 obj/default/playwav.o
 .bss           0x0000000000049b20        0x0 obj/default/wav_player.o
 .bss           0x0000000000049b20        0x0 c:/develop/altera/15.0/nios2eds/bin/gnu/h-x86_64-mingw32/bin/../lib/gcc/nios2-elf/4.9.1/../../../../../H-x86_64-mingw32/nios2-elf/lib/mhw-mulx\libc.a(lib_a-malloc.o)
 .bss           0x0000000000049b20       0x28 c:/develop/altera/15.0/nios2eds/bin/gnu/h-x86_64-mingw32/bin/../lib/gcc/nios2-elf/4.9.1/../../../../../H-x86_64-mingw32/nios2-elf/lib/mhw-mulx\libc.a(lib_a-mallocr.o)
                0x0000000000049b20                __malloc_current_mallinfo
 .bss           0x0000000000049b48        0x0 c:/develop/altera/15.0/nios2eds/bin/gnu/h-x86_64-mingw32/bin/../lib/gcc/nios2-elf/4.9.1/../../../../../H-x86_64-mingw32/nios2-elf/lib/mhw-mulx\libc.a(lib_a-memcpy.o)
 .bss           0x0000000000049b48        0x0 c:/develop/altera/15.0/nios2eds/bin/gnu/h-x86_64-mingw32/bin/../lib/gcc/nios2-elf/4.9.1/../../../../../H-x86_64-mingw32/nios2-elf/lib/mhw-mulx\libc.a(lib_a-memset.o)
 .bss           0x0000000000049b48        0x0 c:/develop/altera/15.0/nios2eds/bin/gnu/h-x86_64-mingw32/bin/../lib/gcc/nios2-elf/4.9.1/../../../../../H-x86_64-mingw32/nios2-elf/lib/mhw-mulx\libc.a(lib_a-printf.o)
 .bss           0x0000000000049b48        0x0 c:/develop/altera/15.0/nios2eds/bin/gnu/h-x86_64-mingw32/bin/../lib/gcc/nios2-elf/4.9.1/../../../../../H-x86_64-mingw32/nios2-elf/lib/mhw-mulx\libc.a(lib_a-puts.o)
 .bss           0x0000000000049b48        0x0 c:/develop/altera/15.0/nios2eds/bin/gnu/h-x86_64-mingw32/bin/../lib/gcc/nios2-elf/4.9.1/../../../../../H-x86_64-mingw32/nios2-elf/lib/mhw-mulx\libc.a(lib_a-sbrkr.o)
 .bss           0x0000000000049b48        0x0 c:/develop/altera/15.0/nios2eds/bin/gnu/h-x86_64-mingw32/bin/../lib/gcc/nios2-elf/4.9.1/../../../../../H-x86_64-mingw32/nios2-elf/lib/mhw-mulx\libc.a(lib_a-strcpy.o)
 .bss           0x0000000000049b48        0x0 c:/develop/altera/15.0/nios2eds/bin/gnu/h-x86_64-mingw32/bin/../lib/gcc/nios2-elf/4.9.1/../../../../../H-x86_64-mingw32/nios2-elf/lib/mhw-mulx\libc.a(lib_a-strlen.o)
 .bss           0x0000000000049b48        0x0 c:/develop/altera/15.0/nios2eds/bin/gnu/h-x86_64-mingw32/bin/../lib/gcc/nios2-elf/4.9.1/../../../../../H-x86_64-mingw32/nios2-elf/lib/mhw-mulx\libc.a(lib_a-vfprintf.o)
 .bss           0x0000000000049b48        0x0 c:/develop/altera/15.0/nios2eds/bin/gnu/h-x86_64-mingw32/bin/../lib/gcc/nios2-elf/4.9.1/../../../../../H-x86_64-mingw32/nios2-elf/lib/mhw-mulx\libc.a(lib_a-wsetup.o)
 .bss           0x0000000000049b48        0x0 c:/develop/altera/15.0/nios2eds/bin/gnu/h-x86_64-mingw32/bin/../lib/gcc/nios2-elf/4.9.1/../../../../../H-x86_64-mingw32/nios2-elf/lib/mhw-mulx\libc.a(lib_a-dtoa.o)
 .bss           0x0000000000049b48        0x0 c:/develop/altera/15.0/nios2eds/bin/gnu/h-x86_64-mingw32/bin/../lib/gcc/nios2-elf/4.9.1/../../../../../H-x86_64-mingw32/nios2-elf/lib/mhw-mulx\libc.a(lib_a-fflush.o)
 .bss           0x0000000000049b48        0x0 c:/develop/altera/15.0/nios2eds/bin/gnu/h-x86_64-mingw32/bin/../lib/gcc/nios2-elf/4.9.1/../../../../../H-x86_64-mingw32/nios2-elf/lib/mhw-mulx\libc.a(lib_a-findfp.o)
 .bss           0x0000000000049b48        0x0 c:/develop/altera/15.0/nios2eds/bin/gnu/h-x86_64-mingw32/bin/../lib/gcc/nios2-elf/4.9.1/../../../../../H-x86_64-mingw32/nios2-elf/lib/mhw-mulx\libc.a(lib_a-freer.o)
 .bss           0x0000000000049b48        0x0 c:/develop/altera/15.0/nios2eds/bin/gnu/h-x86_64-mingw32/bin/../lib/gcc/nios2-elf/4.9.1/../../../../../H-x86_64-mingw32/nios2-elf/lib/mhw-mulx\libc.a(lib_a-fvwrite.o)
 .bss           0x0000000000049b48        0x0 c:/develop/altera/15.0/nios2eds/bin/gnu/h-x86_64-mingw32/bin/../lib/gcc/nios2-elf/4.9.1/../../../../../H-x86_64-mingw32/nios2-elf/lib/mhw-mulx\libc.a(lib_a-fwalk.o)
 .bss           0x0000000000049b48        0x0 c:/develop/altera/15.0/nios2eds/bin/gnu/h-x86_64-mingw32/bin/../lib/gcc/nios2-elf/4.9.1/../../../../../H-x86_64-mingw32/nios2-elf/lib/mhw-mulx\libc.a(lib_a-impure.o)
 .bss           0x0000000000049b48        0x0 c:/develop/altera/15.0/nios2eds/bin/gnu/h-x86_64-mingw32/bin/../lib/gcc/nios2-elf/4.9.1/../../../../../H-x86_64-mingw32/nios2-elf/lib/mhw-mulx\libc.a(lib_a-int_errno.o)
 .bss           0x0000000000049b48        0x0 c:/develop/altera/15.0/nios2eds/bin/gnu/h-x86_64-mingw32/bin/../lib/gcc/nios2-elf/4.9.1/../../../../../H-x86_64-mingw32/nios2-elf/lib/mhw-mulx\libc.a(lib_a-locale.o)
 .bss           0x0000000000049b48        0x0 c:/develop/altera/15.0/nios2eds/bin/gnu/h-x86_64-mingw32/bin/../lib/gcc/nios2-elf/4.9.1/../../../../../H-x86_64-mingw32/nios2-elf/lib/mhw-mulx\libc.a(lib_a-makebuf.o)
 .bss           0x0000000000049b48        0x0 c:/develop/altera/15.0/nios2eds/bin/gnu/h-x86_64-mingw32/bin/../lib/gcc/nios2-elf/4.9.1/../../../../../H-x86_64-mingw32/nios2-elf/lib/mhw-mulx\libc.a(lib_a-memchr.o)
 .bss           0x0000000000049b48        0x0 c:/develop/altera/15.0/nios2eds/bin/gnu/h-x86_64-mingw32/bin/../lib/gcc/nios2-elf/4.9.1/../../../../../H-x86_64-mingw32/nios2-elf/lib/mhw-mulx\libc.a(lib_a-memmove.o)
 .bss           0x0000000000049b48        0x0 c:/develop/altera/15.0/nios2eds/bin/gnu/h-x86_64-mingw32/bin/../lib/gcc/nios2-elf/4.9.1/../../../../../H-x86_64-mingw32/nios2-elf/lib/mhw-mulx\libc.a(lib_a-mprec.o)
 .bss           0x0000000000049b48        0x0 c:/develop/altera/15.0/nios2eds/bin/gnu/h-x86_64-mingw32/bin/../lib/gcc/nios2-elf/4.9.1/../../../../../H-x86_64-mingw32/nios2-elf/lib/mhw-mulx\libc.a(lib_a-reallocr.o)
 .bss           0x0000000000049b48        0x0 c:/develop/altera/15.0/nios2eds/bin/gnu/h-x86_64-mingw32/bin/../lib/gcc/nios2-elf/4.9.1/../../../../../H-x86_64-mingw32/nios2-elf/lib/mhw-mulx\libc.a(lib_a-s_fpclassify.o)
 .bss           0x0000000000049b48        0x0 c:/develop/altera/15.0/nios2eds/bin/gnu/h-x86_64-mingw32/bin/../lib/gcc/nios2-elf/4.9.1/../../../../../H-x86_64-mingw32/nios2-elf/lib/mhw-mulx\libc.a(lib_a-stdio.o)
 .bss           0x0000000000049b48        0x0 c:/develop/altera/15.0/nios2eds/bin/gnu/h-x86_64-mingw32/bin/../lib/gcc/nios2-elf/4.9.1/../../../../../H-x86_64-mingw32/nios2-elf/lib/mhw-mulx\libc.a(lib_a-strcmp.o)
 .bss           0x0000000000049b48        0x0 c:/develop/altera/15.0/nios2eds/bin/gnu/h-x86_64-mingw32/bin/../lib/gcc/nios2-elf/4.9.1/../../../../../H-x86_64-mingw32/nios2-elf/lib/mhw-mulx\libc.a(lib_a-vfiprintf.o)
 .bss           0x0000000000049b48        0x0 c:/develop/altera/15.0/nios2eds/bin/gnu/h-x86_64-mingw32/bin/../lib/gcc/nios2-elf/4.9.1/../../../../../H-x86_64-mingw32/nios2-elf/lib/mhw-mulx\libc.a(lib_a-writer.o)
 .bss           0x0000000000049b48        0x0 c:/develop/altera/15.0/nios2eds/bin/gnu/h-x86_64-mingw32/bin/../lib/gcc/nios2-elf/4.9.1/../../../../../H-x86_64-mingw32/nios2-elf/lib/mhw-mulx\libc.a(closer.o)
 .bss           0x0000000000049b48        0x0 c:/develop/altera/15.0/nios2eds/bin/gnu/h-x86_64-mingw32/bin/../lib/gcc/nios2-elf/4.9.1/../../../../../H-x86_64-mingw32/nios2-elf/lib/mhw-mulx\libc.a(lib_a-callocr.o)
 .bss           0x0000000000049b48        0x0 c:/develop/altera/15.0/nios2eds/bin/gnu/h-x86_64-mingw32/bin/../lib/gcc/nios2-elf/4.9.1/../../../../../H-x86_64-mingw32/nios2-elf/lib/mhw-mulx\libc.a(lib_a-fclose.o)
 .bss           0x0000000000049b48        0x0 c:/develop/altera/15.0/nios2eds/bin/gnu/h-x86_64-mingw32/bin/../lib/gcc/nios2-elf/4.9.1/../../../../../H-x86_64-mingw32/nios2-elf/lib/mhw-mulx\libc.a(lib_a-fputwc.o)
 .bss           0x0000000000049b48        0x0 c:/develop/altera/15.0/nios2eds/bin/gnu/h-x86_64-mingw32/bin/../lib/gcc/nios2-elf/4.9.1/../../../../../H-x86_64-mingw32/nios2-elf/lib/mhw-mulx\libc.a(lib_a-fstatr.o)
 .bss           0x0000000000049b48        0x0 c:/develop/altera/15.0/nios2eds/bin/gnu/h-x86_64-mingw32/bin/../lib/gcc/nios2-elf/4.9.1/../../../../../H-x86_64-mingw32/nios2-elf/lib/mhw-mulx\libc.a(lib_a-isattyr.o)
 .bss           0x0000000000049b48        0x0 c:/develop/altera/15.0/nios2eds/bin/gnu/h-x86_64-mingw32/bin/../lib/gcc/nios2-elf/4.9.1/../../../../../H-x86_64-mingw32/nios2-elf/lib/mhw-mulx\libc.a(lib_a-lseekr.o)
 .bss           0x0000000000049b48        0x0 c:/develop/altera/15.0/nios2eds/bin/gnu/h-x86_64-mingw32/bin/../lib/gcc/nios2-elf/4.9.1/../../../../../H-x86_64-mingw32/nios2-elf/lib/mhw-mulx\libc.a(lib_a-readr.o)
 .bss           0x0000000000049b48        0x0 c:/develop/altera/15.0/nios2eds/bin/gnu/h-x86_64-mingw32/bin/../lib/gcc/nios2-elf/4.9.1/../../../../../H-x86_64-mingw32/nios2-elf/lib/mhw-mulx\libc.a(lib_a-wbuf.o)
 .bss           0x0000000000049b48        0x0 c:/develop/altera/15.0/nios2eds/bin/gnu/h-x86_64-mingw32/bin/../lib/gcc/nios2-elf/4.9.1/../../../../../H-x86_64-mingw32/nios2-elf/lib/mhw-mulx\libc.a(lib_a-wcrtomb.o)
 .bss           0x0000000000049b48        0x0 c:/develop/altera/15.0/nios2eds/bin/gnu/h-x86_64-mingw32/bin/../lib/gcc/nios2-elf/4.9.1/../../../../../H-x86_64-mingw32/nios2-elf/lib/mhw-mulx\libc.a(lib_a-wctomb_r.o)
 .bss           0x0000000000049b48        0x0 c:/develop/altera/15.0/nios2eds/bin/gnu/h-x86_64-mingw32/bin/../lib/gcc/nios2-elf/4.9.1/mhw-mulx\libgcc.a(_udivdi3.o)
 .bss           0x0000000000049b48        0x0 c:/develop/altera/15.0/nios2eds/bin/gnu/h-x86_64-mingw32/bin/../lib/gcc/nios2-elf/4.9.1/mhw-mulx\libgcc.a(_umoddi3.o)
 .bss           0x0000000000049b48        0x0 c:/develop/altera/15.0/nios2eds/bin/gnu/h-x86_64-mingw32/bin/../lib/gcc/nios2-elf/4.9.1/mhw-mulx\libgcc.a(lib2-divmod.o)
 .bss           0x0000000000049b48        0x0 c:/develop/altera/15.0/nios2eds/bin/gnu/h-x86_64-mingw32/bin/../lib/gcc/nios2-elf/4.9.1/mhw-mulx\libgcc.a(adddf3.o)
 .bss           0x0000000000049b48        0x0 c:/develop/altera/15.0/nios2eds/bin/gnu/h-x86_64-mingw32/bin/../lib/gcc/nios2-elf/4.9.1/mhw-mulx\libgcc.a(divdf3.o)
 .bss           0x0000000000049b48        0x0 c:/develop/altera/15.0/nios2eds/bin/gnu/h-x86_64-mingw32/bin/../lib/gcc/nios2-elf/4.9.1/mhw-mulx\libgcc.a(eqdf2.o)
 .bss           0x0000000000049b48        0x0 c:/develop/altera/15.0/nios2eds/bin/gnu/h-x86_64-mingw32/bin/../lib/gcc/nios2-elf/4.9.1/mhw-mulx\libgcc.a(gedf2.o)
 .bss           0x0000000000049b48        0x0 c:/develop/altera/15.0/nios2eds/bin/gnu/h-x86_64-mingw32/bin/../lib/gcc/nios2-elf/4.9.1/mhw-mulx\libgcc.a(ledf2.o)
 .bss           0x0000000000049b48        0x0 c:/develop/altera/15.0/nios2eds/bin/gnu/h-x86_64-mingw32/bin/../lib/gcc/nios2-elf/4.9.1/mhw-mulx\libgcc.a(muldf3.o)
 .bss           0x0000000000049b48        0x0 c:/develop/altera/15.0/nios2eds/bin/gnu/h-x86_64-mingw32/bin/../lib/gcc/nios2-elf/4.9.1/mhw-mulx\libgcc.a(subdf3.o)
 .bss           0x0000000000049b48        0x0 c:/develop/altera/15.0/nios2eds/bin/gnu/h-x86_64-mingw32/bin/../lib/gcc/nios2-elf/4.9.1/mhw-mulx\libgcc.a(fixdfsi.o)
 .bss           0x0000000000049b48        0x0 c:/develop/altera/15.0/nios2eds/bin/gnu/h-x86_64-mingw32/bin/../lib/gcc/nios2-elf/4.9.1/mhw-mulx\libgcc.a(floatsidf.o)
 .bss           0x0000000000049b48        0x0 c:/develop/altera/15.0/nios2eds/bin/gnu/h-x86_64-mingw32/bin/../lib/gcc/nios2-elf/4.9.1/mhw-mulx\libgcc.a(floatunsidf.o)
 .bss           0x0000000000049b48        0x0 c:/develop/altera/15.0/nios2eds/bin/gnu/h-x86_64-mingw32/bin/../lib/gcc/nios2-elf/4.9.1/mhw-mulx\libgcc.a(_clz.o)
 .bss           0x0000000000049b48        0x0 c:/develop/altera/15.0/nios2eds/bin/gnu/h-x86_64-mingw32/bin/../lib/gcc/nios2-elf/4.9.1/mhw-mulx\libgcc.a(_clzsi2.o)
 .bss           0x0000000000049b48        0x0 ../cineraria_wavplay_bsp/\libhal_bsp.a(alt_alarm_start.o)
 .bss           0x0000000000049b48        0x0 ../cineraria_wavplay_bsp/\libhal_bsp.a(alt_close.o)
 .bss           0x0000000000049b48        0x0 ../cineraria_wavplay_bsp/\libhal_bsp.a(alt_dev.o)
 .bss           0x0000000000049b48        0x0 ../cineraria_wavplay_bsp/\libhal_bsp.a(alt_errno.o)
 .bss           0x0000000000049b48        0x0 ../cineraria_wavplay_bsp/\libhal_bsp.a(alt_fs_reg.o)
 .bss           0x0000000000049b48        0x0 ../cineraria_wavplay_bsp/\libhal_bsp.a(alt_fstat.o)
 .bss           0x0000000000049b48        0x0 ../cineraria_wavplay_bsp/\libhal_bsp.a(alt_iic.o)
 .bss           0x0000000000049b48        0x0 ../cineraria_wavplay_bsp/\libhal_bsp.a(alt_iic_isr_register.o)
 .bss           0x0000000000049b48        0x0 ../cineraria_wavplay_bsp/\libhal_bsp.a(alt_irq_entry.o)
 .bss           0x0000000000049b48        0x0 ../cineraria_wavplay_bsp/\libhal_bsp.a(alt_irq_handler.o)
 .bss           0x0000000000049b48        0x0 ../cineraria_wavplay_bsp/\libhal_bsp.a(alt_irq_vars.o)
 .bss           0x0000000000049b48        0x0 ../cineraria_wavplay_bsp/\libhal_bsp.a(alt_isatty.o)
 .bss           0x0000000000049b48        0x0 ../cineraria_wavplay_bsp/\libhal_bsp.a(alt_load.o)
 .bss           0x0000000000049b48        0x0 ../cineraria_wavplay_bsp/\libhal_bsp.a(alt_lseek.o)
 .bss           0x0000000000049b48        0x0 ../cineraria_wavplay_bsp/\libhal_bsp.a(alt_main.o)
 .bss           0x0000000000049b48        0x0 ../cineraria_wavplay_bsp/\libhal_bsp.a(alt_malloc_lock.o)
 .bss           0x0000000000049b48        0x0 ../cineraria_wavplay_bsp/\libhal_bsp.a(alt_read.o)
 .bss           0x0000000000049b48        0x0 ../cineraria_wavplay_bsp/\libhal_bsp.a(alt_release_fd.o)
 .bss           0x0000000000049b48        0x0 ../cineraria_wavplay_bsp/\libhal_bsp.a(alt_sbrk.o)
 .bss           0x0000000000049b48        0x0 ../cineraria_wavplay_bsp/\libhal_bsp.a(alt_tick.o)
 .bss           0x0000000000049b48        0x0 ../cineraria_wavplay_bsp/\libhal_bsp.a(alt_uncached_free.o)
 .bss           0x0000000000049b48        0x0 ../cineraria_wavplay_bsp/\libhal_bsp.a(alt_uncached_malloc.o)
 .bss           0x0000000000049b48        0x0 ../cineraria_wavplay_bsp/\libhal_bsp.a(alt_write.o)
 .bss           0x0000000000049b48        0x0 ../cineraria_wavplay_bsp/\libhal_bsp.a(alt_sys_init.o)
 .bss           0x0000000000049b48        0x0 ../cineraria_wavplay_bsp/\libhal_bsp.a(altera_avalon_jtag_uart_fd.o)
 .bss           0x0000000000049b48        0x0 ../cineraria_wavplay_bsp/\libhal_bsp.a(altera_avalon_jtag_uart_init.o)
 .bss           0x0000000000049b48        0x0 ../cineraria_wavplay_bsp/\libhal_bsp.a(altera_avalon_jtag_uart_ioctl.o)
 .bss           0x0000000000049b48        0x0 ../cineraria_wavplay_bsp/\libhal_bsp.a(altera_avalon_jtag_uart_read.o)
 .bss           0x0000000000049b48        0x0 ../cineraria_wavplay_bsp/\libhal_bsp.a(altera_avalon_jtag_uart_write.o)
 .bss           0x0000000000049b48        0x0 ../cineraria_wavplay_bsp/\libhal_bsp.a(altera_avalon_timer_sc.o)
 .bss           0x0000000000049b48        0x0 ../cineraria_wavplay_bsp/\libhal_bsp.a(altera_epcq_controller.o)
 .bss           0x0000000000049b48        0x0 ../cineraria_wavplay_bsp/\libhal_bsp.a(alt_busy_sleep.o)
 .bss           0x0000000000049b48        0x0 ../cineraria_wavplay_bsp/\libhal_bsp.a(alt_dcache_flush.o)
 .bss           0x0000000000049b48        0x0 ../cineraria_wavplay_bsp/\libhal_bsp.a(alt_dcache_flush_all.o)
 .bss           0x0000000000049b48        0x0 ../cineraria_wavplay_bsp/\libhal_bsp.a(alt_dev_llist_insert.o)
 .bss           0x0000000000049b48        0x0 ../cineraria_wavplay_bsp/\libhal_bsp.a(alt_do_ctors.o)
 .bss           0x0000000000049b48        0x0 ../cineraria_wavplay_bsp/\libhal_bsp.a(alt_do_dtors.o)
 .bss           0x0000000000049b48        0x0 ../cineraria_wavplay_bsp/\libhal_bsp.a(alt_exception_entry.o)
 .bss           0x0000000000049b48        0x0 ../cineraria_wavplay_bsp/\libhal_bsp.a(alt_flash_dev.o)
 .bss           0x0000000000049b48        0x0 ../cineraria_wavplay_bsp/\libhal_bsp.a(alt_icache_flush_all.o)
 .bss           0x0000000000049b48        0x0 ../cineraria_wavplay_bsp/\libhal_bsp.a(alt_instruction_exception_entry.o)
 .bss           0x0000000000049b48        0x0 ../cineraria_wavplay_bsp/\libhal_bsp.a(alt_io_redirect.o)
 .bss           0x0000000000049b48        0x0 ../cineraria_wavplay_bsp/\libhal_bsp.a(alt_open.o)
 .bss           0x0000000000049b48        0x0 ../cineraria_wavplay_bsp/\libhal_bsp.a(altera_nios2_gen2_irq.o)
 .bss           0x0000000000049b48        0x0 ../cineraria_wavplay_bsp/\libhal_bsp.a(alt_find_dev.o)
 .bss           0x0000000000049b48        0x0 ../cineraria_wavplay_bsp/\libhal_bsp.a(alt_find_file.o)
 .bss           0x0000000000049b48        0x0 ../cineraria_wavplay_bsp/\libhal_bsp.a(alt_get_fd.o)
 .bss           0x0000000000049b48        0x0 ../cineraria_wavplay_bsp/\libhal_bsp.a(alt_icache_flush.o)
 .bss           0x0000000000049b48        0x0 c:/develop/altera/15.0/nios2eds/bin/gnu/h-x86_64-mingw32/bin/../lib/gcc/nios2-elf/4.9.1/../../../../../H-x86_64-mingw32/nios2-elf/lib/mhw-mulx\libc.a(lib_a-atexit.o)
 .bss           0x0000000000049b48        0x0 c:/develop/altera/15.0/nios2eds/bin/gnu/h-x86_64-mingw32/bin/../lib/gcc/nios2-elf/4.9.1/../../../../../H-x86_64-mingw32/nios2-elf/lib/mhw-mulx\libc.a(lib_a-exit.o)
 .bss           0x0000000000049b48        0x0 c:/develop/altera/15.0/nios2eds/bin/gnu/h-x86_64-mingw32/bin/../lib/gcc/nios2-elf/4.9.1/../../../../../H-x86_64-mingw32/nios2-elf/lib/mhw-mulx\libc.a(lib_a-malign.o)
 .bss           0x0000000000049b48        0x0 c:/develop/altera/15.0/nios2eds/bin/gnu/h-x86_64-mingw32/bin/../lib/gcc/nios2-elf/4.9.1/../../../../../H-x86_64-mingw32/nios2-elf/lib/mhw-mulx\libc.a(lib_a-malignr.o)
 .bss           0x0000000000049b48        0x0 c:/develop/altera/15.0/nios2eds/bin/gnu/h-x86_64-mingw32/bin/../lib/gcc/nios2-elf/4.9.1/../../../../../H-x86_64-mingw32/nios2-elf/lib/mhw-mulx\libc.a(lib_a-memcmp.o)
 .bss           0x0000000000049b48        0x0 c:/develop/altera/15.0/nios2eds/bin/gnu/h-x86_64-mingw32/bin/../lib/gcc/nios2-elf/4.9.1/../../../../../H-x86_64-mingw32/nios2-elf/lib/mhw-mulx\libc.a(lib_a-__atexit.o)
 .bss           0x0000000000049b48        0x0 c:/develop/altera/15.0/nios2eds/bin/gnu/h-x86_64-mingw32/bin/../lib/gcc/nios2-elf/4.9.1/../../../../../H-x86_64-mingw32/nios2-elf/lib/mhw-mulx\libc.a(lib_a-__call_atexit.o)
 .bss           0x0000000000049b48        0x0 ../cineraria_wavplay_bsp/\libhal_bsp.a(alt_exit.o)
 *(COMMON)
 COMMON         0x0000000000049b48      0x100 ../cineraria_wavplay_bsp/\libhal_bsp.a(alt_irq_handler.o)
                0x0000000000049b48                alt_irq
                0x0000000000049c48                . = ALIGN (0x4)
                0x0000000000049c48                __bss_end = ABSOLUTE (.)

.sdram          0x0000000000049c48        0x0
                0x0000000000049c48                PROVIDE (_alt_partition_sdram_start, ABSOLUTE (.))
 *(.sdram .sdram. sdram.*)
                0x0000000000049c48                . = ALIGN (0x4)
                0x0000000000049c48                PROVIDE (_alt_partition_sdram_end, ABSOLUTE (.))
                0x0000000000049c48                _end = ABSOLUTE (.)
                0x0000000000049c48                end = ABSOLUTE (.)
                0x0000000000049c48                __alt_stack_base = ABSOLUTE (.)
                0x0000000000049c48                PROVIDE (_alt_partition_sdram_load_addr, LOADADDR (.sdram))

.bootmem        0x000000000f000020        0x0
                0x000000000f000020                PROVIDE (_alt_partition_bootmem_start, ABSOLUTE (.))
 *(.bootmem .bootmem. bootmem.*)
                0x000000000f000020                . = ALIGN (0x4)
                0x000000000f000020                PROVIDE (_alt_partition_bootmem_end, ABSOLUTE (.))
                0x000000000f000020                PROVIDE (_alt_partition_bootmem_load_addr, LOADADDR (.bootmem))

.epcq_avl_mem   0x0000000010800000        0x0
                0x0000000010800000                PROVIDE (_alt_partition_epcq_avl_mem_start, ABSOLUTE (.))
 *(.epcq_avl_mem .epcq_avl_mem. epcq_avl_mem.*)
                0x0000000010800000                . = ALIGN (0x4)
                0x0000000010800000                PROVIDE (_alt_partition_epcq_avl_mem_end, ABSOLUTE (.))
                0x0000000010800000                PROVIDE (_alt_partition_epcq_avl_mem_load_addr, LOADADDR (.epcq_avl_mem))

.stab
 *(.stab)

.stabstr
 *(.stabstr)

.stab.excl
 *(.stab.excl)

.stab.exclstr
 *(.stab.exclstr)

.stab.index
 *(.stab.index)

.stab.indexstr
 *(.stab.indexstr)

.comment        0x0000000000000000       0x23
 *(.comment)
 .comment       0x0000000000000000       0x23 obj/default/disp7seg.o
                                         0x24 (size before relaxing)
 .comment       0x0000000000000000       0x24 obj/default/drawwave.o
 .comment       0x0000000000000000       0x24 obj/default/getfilename.o
 .comment       0x0000000000000000       0x24 obj/default/loadbmp.o
 .comment       0x0000000000000000       0x24 obj/default/mmcfs/fatfs/ff.o
 .comment       0x0000000000000000       0x24 obj/default/mmcfs/fatfs/mmcbb.o
 .comment       0x0000000000000000       0x24 obj/default/mmcfs/fatfs/option/cc932.o
 .comment       0x0000000000000000       0x24 obj/default/mmcfs/gettime.o
 .comment       0x0000000000000000       0x24 obj/default/mmcfs/mmc_spi.o
 .comment       0x0000000000000000       0x24 obj/default/mmcfs/mmcfs.o
 .comment       0x0000000000000000       0x24 obj/default/nd_lib/nd_egl.o
 .comment       0x0000000000000000       0x24 obj/default/playwav.o
 .comment       0x0000000000000000       0x24 obj/default/wav_player.o
 .comment       0x0000000000000000       0x24 c:/develop/altera/15.0/nios2eds/bin/gnu/h-x86_64-mingw32/bin/../lib/gcc/nios2-elf/4.9.1/../../../../../H-x86_64-mingw32/nios2-elf/lib/mhw-mulx\libc.a(lib_a-malloc.o)
 .comment       0x0000000000000000       0x24 c:/develop/altera/15.0/nios2eds/bin/gnu/h-x86_64-mingw32/bin/../lib/gcc/nios2-elf/4.9.1/../../../../../H-x86_64-mingw32/nios2-elf/lib/mhw-mulx\libc.a(lib_a-mallocr.o)
 .comment       0x0000000000000000       0x24 c:/develop/altera/15.0/nios2eds/bin/gnu/h-x86_64-mingw32/bin/../lib/gcc/nios2-elf/4.9.1/../../../../../H-x86_64-mingw32/nios2-elf/lib/mhw-mulx\libc.a(lib_a-memcpy.o)
 .comment       0x0000000000000000       0x24 c:/develop/altera/15.0/nios2eds/bin/gnu/h-x86_64-mingw32/bin/../lib/gcc/nios2-elf/4.9.1/../../../../../H-x86_64-mingw32/nios2-elf/lib/mhw-mulx\libc.a(lib_a-memset.o)
 .comment       0x0000000000000000       0x24 c:/develop/altera/15.0/nios2eds/bin/gnu/h-x86_64-mingw32/bin/../lib/gcc/nios2-elf/4.9.1/../../../../../H-x86_64-mingw32/nios2-elf/lib/mhw-mulx\libc.a(lib_a-printf.o)
 .comment       0x0000000000000000       0x24 c:/develop/altera/15.0/nios2eds/bin/gnu/h-x86_64-mingw32/bin/../lib/gcc/nios2-elf/4.9.1/../../../../../H-x86_64-mingw32/nios2-elf/lib/mhw-mulx\libc.a(lib_a-puts.o)
 .comment       0x0000000000000000       0x24 c:/develop/altera/15.0/nios2eds/bin/gnu/h-x86_64-mingw32/bin/../lib/gcc/nios2-elf/4.9.1/../../../../../H-x86_64-mingw32/nios2-elf/lib/mhw-mulx\libc.a(lib_a-sbrkr.o)
 .comment       0x0000000000000000       0x24 c:/develop/altera/15.0/nios2eds/bin/gnu/h-x86_64-mingw32/bin/../lib/gcc/nios2-elf/4.9.1/../../../../../H-x86_64-mingw32/nios2-elf/lib/mhw-mulx\libc.a(lib_a-strcpy.o)
 .comment       0x0000000000000000       0x24 c:/develop/altera/15.0/nios2eds/bin/gnu/h-x86_64-mingw32/bin/../lib/gcc/nios2-elf/4.9.1/../../../../../H-x86_64-mingw32/nios2-elf/lib/mhw-mulx\libc.a(lib_a-strlen.o)
 .comment       0x0000000000000000       0x24 c:/develop/altera/15.0/nios2eds/bin/gnu/h-x86_64-mingw32/bin/../lib/gcc/nios2-elf/4.9.1/../../../../../H-x86_64-mingw32/nios2-elf/lib/mhw-mulx\libc.a(lib_a-vfprintf.o)
 .comment       0x0000000000000000       0x24 c:/develop/altera/15.0/nios2eds/bin/gnu/h-x86_64-mingw32/bin/../lib/gcc/nios2-elf/4.9.1/../../../../../H-x86_64-mingw32/nios2-elf/lib/mhw-mulx\libc.a(lib_a-wsetup.o)
 .comment       0x0000000000000000       0x24 c:/develop/altera/15.0/nios2eds/bin/gnu/h-x86_64-mingw32/bin/../lib/gcc/nios2-elf/4.9.1/../../../../../H-x86_64-mingw32/nios2-elf/lib/mhw-mulx\libc.a(lib_a-dtoa.o)
 .comment       0x0000000000000000       0x24 c:/develop/altera/15.0/nios2eds/bin/gnu/h-x86_64-mingw32/bin/../lib/gcc/nios2-elf/4.9.1/../../../../../H-x86_64-mingw32/nios2-elf/lib/mhw-mulx\libc.a(lib_a-fflush.o)
 .comment       0x0000000000000000       0x24 c:/develop/altera/15.0/nios2eds/bin/gnu/h-x86_64-mingw32/bin/../lib/gcc/nios2-elf/4.9.1/../../../../../H-x86_64-mingw32/nios2-elf/lib/mhw-mulx\libc.a(lib_a-findfp.o)
 .comment       0x0000000000000000       0x24 c:/develop/altera/15.0/nios2eds/bin/gnu/h-x86_64-mingw32/bin/../lib/gcc/nios2-elf/4.9.1/../../../../../H-x86_64-mingw32/nios2-elf/lib/mhw-mulx\libc.a(lib_a-freer.o)
 .comment       0x0000000000000000       0x24 c:/develop/altera/15.0/nios2eds/bin/gnu/h-x86_64-mingw32/bin/../lib/gcc/nios2-elf/4.9.1/../../../../../H-x86_64-mingw32/nios2-elf/lib/mhw-mulx\libc.a(lib_a-fvwrite.o)
 .comment       0x0000000000000000       0x24 c:/develop/altera/15.0/nios2eds/bin/gnu/h-x86_64-mingw32/bin/../lib/gcc/nios2-elf/4.9.1/../../../../../H-x86_64-mingw32/nios2-elf/lib/mhw-mulx\libc.a(lib_a-fwalk.o)
 .comment       0x0000000000000000       0x24 c:/develop/altera/15.0/nios2eds/bin/gnu/h-x86_64-mingw32/bin/../lib/gcc/nios2-elf/4.9.1/../../../../../H-x86_64-mingw32/nios2-elf/lib/mhw-mulx\libc.a(lib_a-impure.o)
 .comment       0x0000000000000000       0x24 c:/develop/altera/15.0/nios2eds/bin/gnu/h-x86_64-mingw32/bin/../lib/gcc/nios2-elf/4.9.1/../../../../../H-x86_64-mingw32/nios2-elf/lib/mhw-mulx\libc.a(lib_a-int_errno.o)
 .comment       0x0000000000000000       0x24 c:/develop/altera/15.0/nios2eds/bin/gnu/h-x86_64-mingw32/bin/../lib/gcc/nios2-elf/4.9.1/../../../../../H-x86_64-mingw32/nios2-elf/lib/mhw-mulx\libc.a(lib_a-locale.o)
 .comment       0x0000000000000000       0x24 c:/develop/altera/15.0/nios2eds/bin/gnu/h-x86_64-mingw32/bin/../lib/gcc/nios2-elf/4.9.1/../../../../../H-x86_64-mingw32/nios2-elf/lib/mhw-mulx\libc.a(lib_a-makebuf.o)
 .comment       0x0000000000000000       0x24 c:/develop/altera/15.0/nios2eds/bin/gnu/h-x86_64-mingw32/bin/../lib/gcc/nios2-elf/4.9.1/../../../../../H-x86_64-mingw32/nios2-elf/lib/mhw-mulx\libc.a(lib_a-memchr.o)
 .comment       0x0000000000000000       0x24 c:/develop/altera/15.0/nios2eds/bin/gnu/h-x86_64-mingw32/bin/../lib/gcc/nios2-elf/4.9.1/../../../../../H-x86_64-mingw32/nios2-elf/lib/mhw-mulx\libc.a(lib_a-memmove.o)
 .comment       0x0000000000000000       0x24 c:/develop/altera/15.0/nios2eds/bin/gnu/h-x86_64-mingw32/bin/../lib/gcc/nios2-elf/4.9.1/../../../../../H-x86_64-mingw32/nios2-elf/lib/mhw-mulx\libc.a(lib_a-mprec.o)
 .comment       0x0000000000000000       0x24 c:/develop/altera/15.0/nios2eds/bin/gnu/h-x86_64-mingw32/bin/../lib/gcc/nios2-elf/4.9.1/../../../../../H-x86_64-mingw32/nios2-elf/lib/mhw-mulx\libc.a(lib_a-reallocr.o)
 .comment       0x0000000000000000       0x24 c:/develop/altera/15.0/nios2eds/bin/gnu/h-x86_64-mingw32/bin/../lib/gcc/nios2-elf/4.9.1/../../../../../H-x86_64-mingw32/nios2-elf/lib/mhw-mulx\libc.a(lib_a-s_fpclassify.o)
 .comment       0x0000000000000000       0x24 c:/develop/altera/15.0/nios2eds/bin/gnu/h-x86_64-mingw32/bin/../lib/gcc/nios2-elf/4.9.1/../../../../../H-x86_64-mingw32/nios2-elf/lib/mhw-mulx\libc.a(lib_a-stdio.o)
 .comment       0x0000000000000000       0x24 c:/develop/altera/15.0/nios2eds/bin/gnu/h-x86_64-mingw32/bin/../lib/gcc/nios2-elf/4.9.1/../../../../../H-x86_64-mingw32/nios2-elf/lib/mhw-mulx\libc.a(lib_a-strcmp.o)
 .comment       0x0000000000000000       0x24 c:/develop/altera/15.0/nios2eds/bin/gnu/h-x86_64-mingw32/bin/../lib/gcc/nios2-elf/4.9.1/../../../../../H-x86_64-mingw32/nios2-elf/lib/mhw-mulx\libc.a(lib_a-vfiprintf.o)
 .comment       0x0000000000000000       0x24 c:/develop/altera/15.0/nios2eds/bin/gnu/h-x86_64-mingw32/bin/../lib/gcc/nios2-elf/4.9.1/../../../../../H-x86_64-mingw32/nios2-elf/lib/mhw-mulx\libc.a(lib_a-writer.o)
 .comment       0x0000000000000000       0x24 c:/develop/altera/15.0/nios2eds/bin/gnu/h-x86_64-mingw32/bin/../lib/gcc/nios2-elf/4.9.1/../../../../../H-x86_64-mingw32/nios2-elf/lib/mhw-mulx\libc.a(closer.o)
 .comment       0x0000000000000000       0x24 c:/develop/altera/15.0/nios2eds/bin/gnu/h-x86_64-mingw32/bin/../lib/gcc/nios2-elf/4.9.1/../../../../../H-x86_64-mingw32/nios2-elf/lib/mhw-mulx\libc.a(lib_a-callocr.o)
 .comment       0x0000000000000000       0x24 c:/develop/altera/15.0/nios2eds/bin/gnu/h-x86_64-mingw32/bin/../lib/gcc/nios2-elf/4.9.1/../../../../../H-x86_64-mingw32/nios2-elf/lib/mhw-mulx\libc.a(lib_a-fclose.o)
 .comment       0x0000000000000000       0x24 c:/develop/altera/15.0/nios2eds/bin/gnu/h-x86_64-mingw32/bin/../lib/gcc/nios2-elf/4.9.1/../../../../../H-x86_64-mingw32/nios2-elf/lib/mhw-mulx\libc.a(lib_a-fputwc.o)
 .comment       0x0000000000000000       0x24 c:/develop/altera/15.0/nios2eds/bin/gnu/h-x86_64-mingw32/bin/../lib/gcc/nios2-elf/4.9.1/../../../../../H-x86_64-mingw32/nios2-elf/lib/mhw-mulx\libc.a(lib_a-fstatr.o)
 .comment       0x0000000000000000       0x24 c:/develop/altera/15.0/nios2eds/bin/gnu/h-x86_64-mingw32/bin/../lib/gcc/nios2-elf/4.9.1/../../../../../H-x86_64-mingw32/nios2-elf/lib/mhw-mulx\libc.a(lib_a-isattyr.o)
 .comment       0x0000000000000000       0x24 c:/develop/altera/15.0/nios2eds/bin/gnu/h-x86_64-mingw32/bin/../lib/gcc/nios2-elf/4.9.1/../../../../../H-x86_64-mingw32/nios2-elf/lib/mhw-mulx\libc.a(lib_a-lseekr.o)
 .comment       0x0000000000000000       0x24 c:/develop/altera/15.0/nios2eds/bin/gnu/h-x86_64-mingw32/bin/../lib/gcc/nios2-elf/4.9.1/../../../../../H-x86_64-mingw32/nios2-elf/lib/mhw-mulx\libc.a(lib_a-readr.o)
 .comment       0x0000000000000000       0x24 c:/develop/altera/15.0/nios2eds/bin/gnu/h-x86_64-mingw32/bin/../lib/gcc/nios2-elf/4.9.1/../../../../../H-x86_64-mingw32/nios2-elf/lib/mhw-mulx\libc.a(lib_a-wbuf.o)
 .comment       0x0000000000000000       0x24 c:/develop/altera/15.0/nios2eds/bin/gnu/h-x86_64-mingw32/bin/../lib/gcc/nios2-elf/4.9.1/../../../../../H-x86_64-mingw32/nios2-elf/lib/mhw-mulx\libc.a(lib_a-wcrtomb.o)
 .comment       0x0000000000000000       0x24 c:/develop/altera/15.0/nios2eds/bin/gnu/h-x86_64-mingw32/bin/../lib/gcc/nios2-elf/4.9.1/../../../../../H-x86_64-mingw32/nios2-elf/lib/mhw-mulx\libc.a(lib_a-wctomb_r.o)
 .comment       0x0000000000000000       0x24 c:/develop/altera/15.0/nios2eds/bin/gnu/h-x86_64-mingw32/bin/../lib/gcc/nios2-elf/4.9.1/mhw-mulx\libgcc.a(_udivdi3.o)
 .comment       0x0000000000000000       0x24 c:/develop/altera/15.0/nios2eds/bin/gnu/h-x86_64-mingw32/bin/../lib/gcc/nios2-elf/4.9.1/mhw-mulx\libgcc.a(_umoddi3.o)
 .comment       0x0000000000000000       0x24 c:/develop/altera/15.0/nios2eds/bin/gnu/h-x86_64-mingw32/bin/../lib/gcc/nios2-elf/4.9.1/mhw-mulx\libgcc.a(lib2-divmod.o)
 .comment       0x0000000000000000       0x24 c:/develop/altera/15.0/nios2eds/bin/gnu/h-x86_64-mingw32/bin/../lib/gcc/nios2-elf/4.9.1/mhw-mulx\libgcc.a(adddf3.o)
 .comment       0x0000000000000000       0x24 c:/develop/altera/15.0/nios2eds/bin/gnu/h-x86_64-mingw32/bin/../lib/gcc/nios2-elf/4.9.1/mhw-mulx\libgcc.a(divdf3.o)
 .comment       0x0000000000000000       0x24 c:/develop/altera/15.0/nios2eds/bin/gnu/h-x86_64-mingw32/bin/../lib/gcc/nios2-elf/4.9.1/mhw-mulx\libgcc.a(eqdf2.o)
 .comment       0x0000000000000000       0x24 c:/develop/altera/15.0/nios2eds/bin/gnu/h-x86_64-mingw32/bin/../lib/gcc/nios2-elf/4.9.1/mhw-mulx\libgcc.a(gedf2.o)
 .comment       0x0000000000000000       0x24 c:/develop/altera/15.0/nios2eds/bin/gnu/h-x86_64-mingw32/bin/../lib/gcc/nios2-elf/4.9.1/mhw-mulx\libgcc.a(ledf2.o)
 .comment       0x0000000000000000       0x24 c:/develop/altera/15.0/nios2eds/bin/gnu/h-x86_64-mingw32/bin/../lib/gcc/nios2-elf/4.9.1/mhw-mulx\libgcc.a(muldf3.o)
 .comment       0x0000000000000000       0x24 c:/develop/altera/15.0/nios2eds/bin/gnu/h-x86_64-mingw32/bin/../lib/gcc/nios2-elf/4.9.1/mhw-mulx\libgcc.a(subdf3.o)
 .comment       0x0000000000000000       0x24 c:/develop/altera/15.0/nios2eds/bin/gnu/h-x86_64-mingw32/bin/../lib/gcc/nios2-elf/4.9.1/mhw-mulx\libgcc.a(fixdfsi.o)
 .comment       0x0000000000000000       0x24 c:/develop/altera/15.0/nios2eds/bin/gnu/h-x86_64-mingw32/bin/../lib/gcc/nios2-elf/4.9.1/mhw-mulx\libgcc.a(floatsidf.o)
 .comment       0x0000000000000000       0x24 c:/develop/altera/15.0/nios2eds/bin/gnu/h-x86_64-mingw32/bin/../lib/gcc/nios2-elf/4.9.1/mhw-mulx\libgcc.a(floatunsidf.o)
 .comment       0x0000000000000000       0x24 c:/develop/altera/15.0/nios2eds/bin/gnu/h-x86_64-mingw32/bin/../lib/gcc/nios2-elf/4.9.1/mhw-mulx\libgcc.a(_clz.o)
 .comment       0x0000000000000000       0x24 c:/develop/altera/15.0/nios2eds/bin/gnu/h-x86_64-mingw32/bin/../lib/gcc/nios2-elf/4.9.1/mhw-mulx\libgcc.a(_clzsi2.o)
 .comment       0x0000000000000000       0x24 ../cineraria_wavplay_bsp/\libhal_bsp.a(alt_alarm_start.o)
 .comment       0x0000000000000000       0x24 ../cineraria_wavplay_bsp/\libhal_bsp.a(alt_close.o)
 .comment       0x0000000000000000       0x24 ../cineraria_wavplay_bsp/\libhal_bsp.a(alt_dev.o)
 .comment       0x0000000000000000       0x24 ../cineraria_wavplay_bsp/\libhal_bsp.a(alt_errno.o)
 .comment       0x0000000000000000       0x24 ../cineraria_wavplay_bsp/\libhal_bsp.a(alt_fs_reg.o)
 .comment       0x0000000000000000       0x24 ../cineraria_wavplay_bsp/\libhal_bsp.a(alt_fstat.o)
 .comment       0x0000000000000000       0x24 ../cineraria_wavplay_bsp/\libhal_bsp.a(alt_iic.o)
 .comment       0x0000000000000000       0x24 ../cineraria_wavplay_bsp/\libhal_bsp.a(alt_iic_isr_register.o)
 .comment       0x0000000000000000       0x24 ../cineraria_wavplay_bsp/\libhal_bsp.a(alt_irq_handler.o)
 .comment       0x0000000000000000       0x24 ../cineraria_wavplay_bsp/\libhal_bsp.a(alt_irq_vars.o)
 .comment       0x0000000000000000       0x24 ../cineraria_wavplay_bsp/\libhal_bsp.a(alt_isatty.o)
 .comment       0x0000000000000000       0x24 ../cineraria_wavplay_bsp/\libhal_bsp.a(alt_load.o)
 .comment       0x0000000000000000       0x24 ../cineraria_wavplay_bsp/\libhal_bsp.a(alt_lseek.o)
 .comment       0x0000000000000000       0x24 ../cineraria_wavplay_bsp/\libhal_bsp.a(alt_main.o)
 .comment       0x0000000000000000       0x24 ../cineraria_wavplay_bsp/\libhal_bsp.a(alt_malloc_lock.o)
 .comment       0x0000000000000000       0x24 ../cineraria_wavplay_bsp/\libhal_bsp.a(alt_read.o)
 .comment       0x0000000000000000       0x24 ../cineraria_wavplay_bsp/\libhal_bsp.a(alt_release_fd.o)
 .comment       0x0000000000000000       0x24 ../cineraria_wavplay_bsp/\libhal_bsp.a(alt_sbrk.o)
 .comment       0x0000000000000000       0x24 ../cineraria_wavplay_bsp/\libhal_bsp.a(alt_tick.o)
 .comment       0x0000000000000000       0x24 ../cineraria_wavplay_bsp/\libhal_bsp.a(alt_uncached_free.o)
 .comment       0x0000000000000000       0x24 ../cineraria_wavplay_bsp/\libhal_bsp.a(alt_uncached_malloc.o)
 .comment       0x0000000000000000       0x24 ../cineraria_wavplay_bsp/\libhal_bsp.a(alt_write.o)
 .comment       0x0000000000000000       0x24 ../cineraria_wavplay_bsp/\libhal_bsp.a(alt_sys_init.o)
 .comment       0x0000000000000000       0x24 ../cineraria_wavplay_bsp/\libhal_bsp.a(altera_avalon_jtag_uart_fd.o)
 .comment       0x0000000000000000       0x24 ../cineraria_wavplay_bsp/\libhal_bsp.a(altera_avalon_jtag_uart_init.o)
 .comment       0x0000000000000000       0x24 ../cineraria_wavplay_bsp/\libhal_bsp.a(altera_avalon_jtag_uart_ioctl.o)
 .comment       0x0000000000000000       0x24 ../cineraria_wavplay_bsp/\libhal_bsp.a(altera_avalon_jtag_uart_read.o)
 .comment       0x0000000000000000       0x24 ../cineraria_wavplay_bsp/\libhal_bsp.a(altera_avalon_jtag_uart_write.o)
 .comment       0x0000000000000000       0x24 ../cineraria_wavplay_bsp/\libhal_bsp.a(altera_avalon_timer_sc.o)
 .comment       0x0000000000000000       0x24 ../cineraria_wavplay_bsp/\libhal_bsp.a(altera_epcq_controller.o)
 .comment       0x0000000000000000       0x24 ../cineraria_wavplay_bsp/\libhal_bsp.a(alt_busy_sleep.o)
 .comment       0x0000000000000000       0x24 ../cineraria_wavplay_bsp/\libhal_bsp.a(alt_dcache_flush.o)
 .comment       0x0000000000000000       0x24 ../cineraria_wavplay_bsp/\libhal_bsp.a(alt_dcache_flush_all.o)
 .comment       0x0000000000000000       0x24 ../cineraria_wavplay_bsp/\libhal_bsp.a(alt_dev_llist_insert.o)
 .comment       0x0000000000000000       0x24 ../cineraria_wavplay_bsp/\libhal_bsp.a(alt_do_ctors.o)
 .comment       0x0000000000000000       0x24 ../cineraria_wavplay_bsp/\libhal_bsp.a(alt_do_dtors.o)
 .comment       0x0000000000000000       0x24 ../cineraria_wavplay_bsp/\libhal_bsp.a(alt_flash_dev.o)
 .comment       0x0000000000000000       0x24 ../cineraria_wavplay_bsp/\libhal_bsp.a(alt_icache_flush_all.o)
 .comment       0x0000000000000000       0x24 ../cineraria_wavplay_bsp/\libhal_bsp.a(alt_instruction_exception_entry.o)
 .comment       0x0000000000000000       0x24 ../cineraria_wavplay_bsp/\libhal_bsp.a(alt_io_redirect.o)
 .comment       0x0000000000000000       0x24 ../cineraria_wavplay_bsp/\libhal_bsp.a(alt_open.o)
 .comment       0x0000000000000000       0x24 ../cineraria_wavplay_bsp/\libhal_bsp.a(altera_nios2_gen2_irq.o)
 .comment       0x0000000000000000       0x24 ../cineraria_wavplay_bsp/\libhal_bsp.a(alt_find_dev.o)
 .comment       0x0000000000000000       0x24 ../cineraria_wavplay_bsp/\libhal_bsp.a(alt_find_file.o)
 .comment       0x0000000000000000       0x24 ../cineraria_wavplay_bsp/\libhal_bsp.a(alt_get_fd.o)
 .comment       0x0000000000000000       0x24 ../cineraria_wavplay_bsp/\libhal_bsp.a(alt_icache_flush.o)
 .comment       0x0000000000000000       0x24 c:/develop/altera/15.0/nios2eds/bin/gnu/h-x86_64-mingw32/bin/../lib/gcc/nios2-elf/4.9.1/../../../../../H-x86_64-mingw32/nios2-elf/lib/mhw-mulx\libc.a(lib_a-atexit.o)
 .comment       0x0000000000000000       0x24 c:/develop/altera/15.0/nios2eds/bin/gnu/h-x86_64-mingw32/bin/../lib/gcc/nios2-elf/4.9.1/../../../../../H-x86_64-mingw32/nios2-elf/lib/mhw-mulx\libc.a(lib_a-exit.o)
 .comment       0x0000000000000000       0x24 c:/develop/altera/15.0/nios2eds/bin/gnu/h-x86_64-mingw32/bin/../lib/gcc/nios2-elf/4.9.1/../../../../../H-x86_64-mingw32/nios2-elf/lib/mhw-mulx\libc.a(lib_a-malign.o)
 .comment       0x0000000000000000       0x24 c:/develop/altera/15.0/nios2eds/bin/gnu/h-x86_64-mingw32/bin/../lib/gcc/nios2-elf/4.9.1/../../../../../H-x86_64-mingw32/nios2-elf/lib/mhw-mulx\libc.a(lib_a-malignr.o)
 .comment       0x0000000000000000       0x24 c:/develop/altera/15.0/nios2eds/bin/gnu/h-x86_64-mingw32/bin/../lib/gcc/nios2-elf/4.9.1/../../../../../H-x86_64-mingw32/nios2-elf/lib/mhw-mulx\libc.a(lib_a-memcmp.o)
 .comment       0x0000000000000000       0x24 c:/develop/altera/15.0/nios2eds/bin/gnu/h-x86_64-mingw32/bin/../lib/gcc/nios2-elf/4.9.1/../../../../../H-x86_64-mingw32/nios2-elf/lib/mhw-mulx\libc.a(lib_a-__atexit.o)
 .comment       0x0000000000000000       0x24 c:/develop/altera/15.0/nios2eds/bin/gnu/h-x86_64-mingw32/bin/../lib/gcc/nios2-elf/4.9.1/../../../../../H-x86_64-mingw32/nios2-elf/lib/mhw-mulx\libc.a(lib_a-__call_atexit.o)
 .comment       0x0000000000000000       0x24 ../cineraria_wavplay_bsp/\libhal_bsp.a(alt_exit.o)

.debug
 *(.debug)

.line
 *(.line)

.debug_srcinfo
 *(.debug_srcinfo)

.debug_sfnames
 *(.debug_sfnames)

.debug_aranges  0x0000000000000000      0xfc8
 *(.debug_aranges)
 .debug_aranges
                0x0000000000000000       0x20 ../cineraria_wavplay_bsp//obj/HAL/src/crt0.o
 .debug_aranges
                0x0000000000000020       0x20 obj/default/disp7seg.o
 .debug_aranges
                0x0000000000000040       0x20 obj/default/drawwave.o
 .debug_aranges
                0x0000000000000060       0x20 obj/default/getfilename.o
 .debug_aranges
                0x0000000000000080       0x20 obj/default/loadbmp.o
 .debug_aranges
                0x00000000000000a0       0x20 obj/default/mmcfs/fatfs/ff.o
 .debug_aranges
                0x00000000000000c0       0x20 obj/default/mmcfs/fatfs/mmcbb.o
 .debug_aranges
                0x00000000000000e0       0x20 obj/default/mmcfs/fatfs/option/cc932.o
 .debug_aranges
                0x0000000000000100       0x20 obj/default/mmcfs/gettime.o
 .debug_aranges
                0x0000000000000120       0x20 obj/default/mmcfs/mmc_spi.o
 .debug_aranges
                0x0000000000000140       0x20 obj/default/mmcfs/mmcfs.o
 .debug_aranges
                0x0000000000000160       0x20 obj/default/nd_lib/nd_egl.o
 .debug_aranges
                0x0000000000000180       0x20 obj/default/playwav.o
 .debug_aranges
                0x00000000000001a0       0x20 obj/default/wav_player.o
 .debug_aranges
                0x00000000000001c0       0x20 c:/develop/altera/15.0/nios2eds/bin/gnu/h-x86_64-mingw32/bin/../lib/gcc/nios2-elf/4.9.1/../../../../../H-x86_64-mingw32/nios2-elf/lib/mhw-mulx\libc.a(lib_a-malloc.o)
 .debug_aranges
                0x00000000000001e0       0x20 c:/develop/altera/15.0/nios2eds/bin/gnu/h-x86_64-mingw32/bin/../lib/gcc/nios2-elf/4.9.1/../../../../../H-x86_64-mingw32/nios2-elf/lib/mhw-mulx\libc.a(lib_a-mallocr.o)
 .debug_aranges
                0x0000000000000200       0x20 c:/develop/altera/15.0/nios2eds/bin/gnu/h-x86_64-mingw32/bin/../lib/gcc/nios2-elf/4.9.1/../../../../../H-x86_64-mingw32/nios2-elf/lib/mhw-mulx\libc.a(lib_a-memcpy.o)
 .debug_aranges
                0x0000000000000220       0x20 c:/develop/altera/15.0/nios2eds/bin/gnu/h-x86_64-mingw32/bin/../lib/gcc/nios2-elf/4.9.1/../../../../../H-x86_64-mingw32/nios2-elf/lib/mhw-mulx\libc.a(lib_a-memset.o)
 .debug_aranges
                0x0000000000000240       0x20 c:/develop/altera/15.0/nios2eds/bin/gnu/h-x86_64-mingw32/bin/../lib/gcc/nios2-elf/4.9.1/../../../../../H-x86_64-mingw32/nios2-elf/lib/mhw-mulx\libc.a(lib_a-printf.o)
 .debug_aranges
                0x0000000000000260       0x20 c:/develop/altera/15.0/nios2eds/bin/gnu/h-x86_64-mingw32/bin/../lib/gcc/nios2-elf/4.9.1/../../../../../H-x86_64-mingw32/nios2-elf/lib/mhw-mulx\libc.a(lib_a-puts.o)
 .debug_aranges
                0x0000000000000280       0x20 c:/develop/altera/15.0/nios2eds/bin/gnu/h-x86_64-mingw32/bin/../lib/gcc/nios2-elf/4.9.1/../../../../../H-x86_64-mingw32/nios2-elf/lib/mhw-mulx\libc.a(lib_a-sbrkr.o)
 .debug_aranges
                0x00000000000002a0       0x20 c:/develop/altera/15.0/nios2eds/bin/gnu/h-x86_64-mingw32/bin/../lib/gcc/nios2-elf/4.9.1/../../../../../H-x86_64-mingw32/nios2-elf/lib/mhw-mulx\libc.a(lib_a-strcpy.o)
 .debug_aranges
                0x00000000000002c0       0x20 c:/develop/altera/15.0/nios2eds/bin/gnu/h-x86_64-mingw32/bin/../lib/gcc/nios2-elf/4.9.1/../../../../../H-x86_64-mingw32/nios2-elf/lib/mhw-mulx\libc.a(lib_a-strlen.o)
 .debug_aranges
                0x00000000000002e0       0x20 c:/develop/altera/15.0/nios2eds/bin/gnu/h-x86_64-mingw32/bin/../lib/gcc/nios2-elf/4.9.1/../../../../../H-x86_64-mingw32/nios2-elf/lib/mhw-mulx\libc.a(lib_a-vfprintf.o)
 .debug_aranges
                0x0000000000000300       0x20 c:/develop/altera/15.0/nios2eds/bin/gnu/h-x86_64-mingw32/bin/../lib/gcc/nios2-elf/4.9.1/../../../../../H-x86_64-mingw32/nios2-elf/lib/mhw-mulx\libc.a(lib_a-wsetup.o)
 .debug_aranges
                0x0000000000000320       0x20 c:/develop/altera/15.0/nios2eds/bin/gnu/h-x86_64-mingw32/bin/../lib/gcc/nios2-elf/4.9.1/../../../../../H-x86_64-mingw32/nios2-elf/lib/mhw-mulx\libc.a(lib_a-dtoa.o)
 .debug_aranges
                0x0000000000000340       0x20 c:/develop/altera/15.0/nios2eds/bin/gnu/h-x86_64-mingw32/bin/../lib/gcc/nios2-elf/4.9.1/../../../../../H-x86_64-mingw32/nios2-elf/lib/mhw-mulx\libc.a(lib_a-fflush.o)
 .debug_aranges
                0x0000000000000360       0x20 c:/develop/altera/15.0/nios2eds/bin/gnu/h-x86_64-mingw32/bin/../lib/gcc/nios2-elf/4.9.1/../../../../../H-x86_64-mingw32/nios2-elf/lib/mhw-mulx\libc.a(lib_a-findfp.o)
 .debug_aranges
                0x0000000000000380       0x20 c:/develop/altera/15.0/nios2eds/bin/gnu/h-x86_64-mingw32/bin/../lib/gcc/nios2-elf/4.9.1/../../../../../H-x86_64-mingw32/nios2-elf/lib/mhw-mulx\libc.a(lib_a-freer.o)
 .debug_aranges
                0x00000000000003a0       0x20 c:/develop/altera/15.0/nios2eds/bin/gnu/h-x86_64-mingw32/bin/../lib/gcc/nios2-elf/4.9.1/../../../../../H-x86_64-mingw32/nios2-elf/lib/mhw-mulx\libc.a(lib_a-fvwrite.o)
 .debug_aranges
                0x00000000000003c0       0x20 c:/develop/altera/15.0/nios2eds/bin/gnu/h-x86_64-mingw32/bin/../lib/gcc/nios2-elf/4.9.1/../../../../../H-x86_64-mingw32/nios2-elf/lib/mhw-mulx\libc.a(lib_a-fwalk.o)
 .debug_aranges
                0x00000000000003e0       0x18 c:/develop/altera/15.0/nios2eds/bin/gnu/h-x86_64-mingw32/bin/../lib/gcc/nios2-elf/4.9.1/../../../../../H-x86_64-mingw32/nios2-elf/lib/mhw-mulx\libc.a(lib_a-impure.o)
 .debug_aranges
                0x00000000000003f8       0x18 c:/develop/altera/15.0/nios2eds/bin/gnu/h-x86_64-mingw32/bin/../lib/gcc/nios2-elf/4.9.1/../../../../../H-x86_64-mingw32/nios2-elf/lib/mhw-mulx\libc.a(lib_a-int_errno.o)
 .debug_aranges
                0x0000000000000410       0x20 c:/develop/altera/15.0/nios2eds/bin/gnu/h-x86_64-mingw32/bin/../lib/gcc/nios2-elf/4.9.1/../../../../../H-x86_64-mingw32/nios2-elf/lib/mhw-mulx\libc.a(lib_a-locale.o)
 .debug_aranges
                0x0000000000000430       0x20 c:/develop/altera/15.0/nios2eds/bin/gnu/h-x86_64-mingw32/bin/../lib/gcc/nios2-elf/4.9.1/../../../../../H-x86_64-mingw32/nios2-elf/lib/mhw-mulx\libc.a(lib_a-makebuf.o)
 .debug_aranges
                0x0000000000000450       0x20 c:/develop/altera/15.0/nios2eds/bin/gnu/h-x86_64-mingw32/bin/../lib/gcc/nios2-elf/4.9.1/../../../../../H-x86_64-mingw32/nios2-elf/lib/mhw-mulx\libc.a(lib_a-memchr.o)
 .debug_aranges
                0x0000000000000470       0x20 c:/develop/altera/15.0/nios2eds/bin/gnu/h-x86_64-mingw32/bin/../lib/gcc/nios2-elf/4.9.1/../../../../../H-x86_64-mingw32/nios2-elf/lib/mhw-mulx\libc.a(lib_a-memmove.o)
 .debug_aranges
                0x0000000000000490       0x20 c:/develop/altera/15.0/nios2eds/bin/gnu/h-x86_64-mingw32/bin/../lib/gcc/nios2-elf/4.9.1/../../../../../H-x86_64-mingw32/nios2-elf/lib/mhw-mulx\libc.a(lib_a-mprec.o)
 .debug_aranges
                0x00000000000004b0       0x20 c:/develop/altera/15.0/nios2eds/bin/gnu/h-x86_64-mingw32/bin/../lib/gcc/nios2-elf/4.9.1/../../../../../H-x86_64-mingw32/nios2-elf/lib/mhw-mulx\libc.a(lib_a-reallocr.o)
 .debug_aranges
                0x00000000000004d0       0x20 c:/develop/altera/15.0/nios2eds/bin/gnu/h-x86_64-mingw32/bin/../lib/gcc/nios2-elf/4.9.1/../../../../../H-x86_64-mingw32/nios2-elf/lib/mhw-mulx\libc.a(lib_a-s_fpclassify.o)
 .debug_aranges
                0x00000000000004f0       0x20 c:/develop/altera/15.0/nios2eds/bin/gnu/h-x86_64-mingw32/bin/../lib/gcc/nios2-elf/4.9.1/../../../../../H-x86_64-mingw32/nios2-elf/lib/mhw-mulx\libc.a(lib_a-stdio.o)
 .debug_aranges
                0x0000000000000510       0x20 c:/develop/altera/15.0/nios2eds/bin/gnu/h-x86_64-mingw32/bin/../lib/gcc/nios2-elf/4.9.1/../../../../../H-x86_64-mingw32/nios2-elf/lib/mhw-mulx\libc.a(lib_a-strcmp.o)
 .debug_aranges
                0x0000000000000530       0x20 c:/develop/altera/15.0/nios2eds/bin/gnu/h-x86_64-mingw32/bin/../lib/gcc/nios2-elf/4.9.1/../../../../../H-x86_64-mingw32/nios2-elf/lib/mhw-mulx\libc.a(lib_a-vfiprintf.o)
 .debug_aranges
                0x0000000000000550       0x20 c:/develop/altera/15.0/nios2eds/bin/gnu/h-x86_64-mingw32/bin/../lib/gcc/nios2-elf/4.9.1/../../../../../H-x86_64-mingw32/nios2-elf/lib/mhw-mulx\libc.a(lib_a-writer.o)
 .debug_aranges
                0x0000000000000570       0x20 c:/develop/altera/15.0/nios2eds/bin/gnu/h-x86_64-mingw32/bin/../lib/gcc/nios2-elf/4.9.1/../../../../../H-x86_64-mingw32/nios2-elf/lib/mhw-mulx\libc.a(closer.o)
 .debug_aranges
                0x0000000000000590       0x20 c:/develop/altera/15.0/nios2eds/bin/gnu/h-x86_64-mingw32/bin/../lib/gcc/nios2-elf/4.9.1/../../../../../H-x86_64-mingw32/nios2-elf/lib/mhw-mulx\libc.a(lib_a-callocr.o)
 .debug_aranges
                0x00000000000005b0       0x20 c:/develop/altera/15.0/nios2eds/bin/gnu/h-x86_64-mingw32/bin/../lib/gcc/nios2-elf/4.9.1/../../../../../H-x86_64-mingw32/nios2-elf/lib/mhw-mulx\libc.a(lib_a-fclose.o)
 .debug_aranges
                0x00000000000005d0       0x20 c:/develop/altera/15.0/nios2eds/bin/gnu/h-x86_64-mingw32/bin/../lib/gcc/nios2-elf/4.9.1/../../../../../H-x86_64-mingw32/nios2-elf/lib/mhw-mulx\libc.a(lib_a-fputwc.o)
 .debug_aranges
                0x00000000000005f0       0x20 c:/develop/altera/15.0/nios2eds/bin/gnu/h-x86_64-mingw32/bin/../lib/gcc/nios2-elf/4.9.1/../../../../../H-x86_64-mingw32/nios2-elf/lib/mhw-mulx\libc.a(lib_a-fstatr.o)
 .debug_aranges
                0x0000000000000610       0x20 c:/develop/altera/15.0/nios2eds/bin/gnu/h-x86_64-mingw32/bin/../lib/gcc/nios2-elf/4.9.1/../../../../../H-x86_64-mingw32/nios2-elf/lib/mhw-mulx\libc.a(lib_a-isattyr.o)
 .debug_aranges
                0x0000000000000630       0x20 c:/develop/altera/15.0/nios2eds/bin/gnu/h-x86_64-mingw32/bin/../lib/gcc/nios2-elf/4.9.1/../../../../../H-x86_64-mingw32/nios2-elf/lib/mhw-mulx\libc.a(lib_a-lseekr.o)
 .debug_aranges
                0x0000000000000650       0x20 c:/develop/altera/15.0/nios2eds/bin/gnu/h-x86_64-mingw32/bin/../lib/gcc/nios2-elf/4.9.1/../../../../../H-x86_64-mingw32/nios2-elf/lib/mhw-mulx\libc.a(lib_a-readr.o)
 .debug_aranges
                0x0000000000000670       0x20 c:/develop/altera/15.0/nios2eds/bin/gnu/h-x86_64-mingw32/bin/../lib/gcc/nios2-elf/4.9.1/../../../../../H-x86_64-mingw32/nios2-elf/lib/mhw-mulx\libc.a(lib_a-wbuf.o)
 .debug_aranges
                0x0000000000000690       0x20 c:/develop/altera/15.0/nios2eds/bin/gnu/h-x86_64-mingw32/bin/../lib/gcc/nios2-elf/4.9.1/../../../../../H-x86_64-mingw32/nios2-elf/lib/mhw-mulx\libc.a(lib_a-wcrtomb.o)
 .debug_aranges
                0x00000000000006b0       0x20 c:/develop/altera/15.0/nios2eds/bin/gnu/h-x86_64-mingw32/bin/../lib/gcc/nios2-elf/4.9.1/../../../../../H-x86_64-mingw32/nios2-elf/lib/mhw-mulx\libc.a(lib_a-wctomb_r.o)
 .debug_aranges
                0x00000000000006d0       0x20 c:/develop/altera/15.0/nios2eds/bin/gnu/h-x86_64-mingw32/bin/../lib/gcc/nios2-elf/4.9.1/mhw-mulx\libgcc.a(_udivdi3.o)
 .debug_aranges
                0x00000000000006f0       0x20 c:/develop/altera/15.0/nios2eds/bin/gnu/h-x86_64-mingw32/bin/../lib/gcc/nios2-elf/4.9.1/mhw-mulx\libgcc.a(_umoddi3.o)
 .debug_aranges
                0x0000000000000710       0x20 c:/develop/altera/15.0/nios2eds/bin/gnu/h-x86_64-mingw32/bin/../lib/gcc/nios2-elf/4.9.1/mhw-mulx\libgcc.a(lib2-divmod.o)
 .debug_aranges
                0x0000000000000730       0x20 c:/develop/altera/15.0/nios2eds/bin/gnu/h-x86_64-mingw32/bin/../lib/gcc/nios2-elf/4.9.1/mhw-mulx\libgcc.a(adddf3.o)
 .debug_aranges
                0x0000000000000750       0x20 c:/develop/altera/15.0/nios2eds/bin/gnu/h-x86_64-mingw32/bin/../lib/gcc/nios2-elf/4.9.1/mhw-mulx\libgcc.a(divdf3.o)
 .debug_aranges
                0x0000000000000770       0x20 c:/develop/altera/15.0/nios2eds/bin/gnu/h-x86_64-mingw32/bin/../lib/gcc/nios2-elf/4.9.1/mhw-mulx\libgcc.a(eqdf2.o)
 .debug_aranges
                0x0000000000000790       0x20 c:/develop/altera/15.0/nios2eds/bin/gnu/h-x86_64-mingw32/bin/../lib/gcc/nios2-elf/4.9.1/mhw-mulx\libgcc.a(gedf2.o)
 .debug_aranges
                0x00000000000007b0       0x20 c:/develop/altera/15.0/nios2eds/bin/gnu/h-x86_64-mingw32/bin/../lib/gcc/nios2-elf/4.9.1/mhw-mulx\libgcc.a(ledf2.o)
 .debug_aranges
                0x00000000000007d0       0x20 c:/develop/altera/15.0/nios2eds/bin/gnu/h-x86_64-mingw32/bin/../lib/gcc/nios2-elf/4.9.1/mhw-mulx\libgcc.a(muldf3.o)
 .debug_aranges
                0x00000000000007f0       0x20 c:/develop/altera/15.0/nios2eds/bin/gnu/h-x86_64-mingw32/bin/../lib/gcc/nios2-elf/4.9.1/mhw-mulx\libgcc.a(subdf3.o)
 .debug_aranges
                0x0000000000000810       0x20 c:/develop/altera/15.0/nios2eds/bin/gnu/h-x86_64-mingw32/bin/../lib/gcc/nios2-elf/4.9.1/mhw-mulx\libgcc.a(fixdfsi.o)
 .debug_aranges
                0x0000000000000830       0x20 c:/develop/altera/15.0/nios2eds/bin/gnu/h-x86_64-mingw32/bin/../lib/gcc/nios2-elf/4.9.1/mhw-mulx\libgcc.a(floatsidf.o)
 .debug_aranges
                0x0000000000000850       0x20 c:/develop/altera/15.0/nios2eds/bin/gnu/h-x86_64-mingw32/bin/../lib/gcc/nios2-elf/4.9.1/mhw-mulx\libgcc.a(floatunsidf.o)
 .debug_aranges
                0x0000000000000870       0x18 c:/develop/altera/15.0/nios2eds/bin/gnu/h-x86_64-mingw32/bin/../lib/gcc/nios2-elf/4.9.1/mhw-mulx\libgcc.a(_clz.o)
 .debug_aranges
                0x0000000000000888       0x20 c:/develop/altera/15.0/nios2eds/bin/gnu/h-x86_64-mingw32/bin/../lib/gcc/nios2-elf/4.9.1/mhw-mulx\libgcc.a(_clzsi2.o)
 .debug_aranges
                0x00000000000008a8       0x20 ../cineraria_wavplay_bsp/\libhal_bsp.a(alt_alarm_start.o)
 .debug_aranges
                0x00000000000008c8       0x20 ../cineraria_wavplay_bsp/\libhal_bsp.a(alt_close.o)
 .debug_aranges
                0x00000000000008e8       0x20 ../cineraria_wavplay_bsp/\libhal_bsp.a(alt_dev.o)
 .debug_aranges
                0x0000000000000908       0x18 ../cineraria_wavplay_bsp/\libhal_bsp.a(alt_errno.o)
 .debug_aranges
                0x0000000000000920       0x20 ../cineraria_wavplay_bsp/\libhal_bsp.a(alt_fs_reg.o)
 .debug_aranges
                0x0000000000000940       0x20 ../cineraria_wavplay_bsp/\libhal_bsp.a(alt_fstat.o)
 .debug_aranges
                0x0000000000000960       0x20 ../cineraria_wavplay_bsp/\libhal_bsp.a(alt_iic.o)
 .debug_aranges
                0x0000000000000980       0x20 ../cineraria_wavplay_bsp/\libhal_bsp.a(alt_iic_isr_register.o)
 .debug_aranges
                0x00000000000009a0       0x30 ../cineraria_wavplay_bsp/\libhal_bsp.a(alt_irq_entry.o)
 .debug_aranges
                0x00000000000009d0       0x20 ../cineraria_wavplay_bsp/\libhal_bsp.a(alt_irq_handler.o)
 .debug_aranges
                0x00000000000009f0       0x18 ../cineraria_wavplay_bsp/\libhal_bsp.a(alt_irq_vars.o)
 .debug_aranges
                0x0000000000000a08       0x20 ../cineraria_wavplay_bsp/\libhal_bsp.a(alt_isatty.o)
 .debug_aranges
                0x0000000000000a28       0x20 ../cineraria_wavplay_bsp/\libhal_bsp.a(alt_load.o)
 .debug_aranges
                0x0000000000000a48       0x20 ../cineraria_wavplay_bsp/\libhal_bsp.a(alt_lseek.o)
 .debug_aranges
                0x0000000000000a68       0x20 ../cineraria_wavplay_bsp/\libhal_bsp.a(alt_main.o)
 .debug_aranges
                0x0000000000000a88       0x20 ../cineraria_wavplay_bsp/\libhal_bsp.a(alt_malloc_lock.o)
 .debug_aranges
                0x0000000000000aa8       0x20 ../cineraria_wavplay_bsp/\libhal_bsp.a(alt_read.o)
 .debug_aranges
                0x0000000000000ac8       0x20 ../cineraria_wavplay_bsp/\libhal_bsp.a(alt_release_fd.o)
 .debug_aranges
                0x0000000000000ae8       0x20 ../cineraria_wavplay_bsp/\libhal_bsp.a(alt_sbrk.o)
 .debug_aranges
                0x0000000000000b08       0x20 ../cineraria_wavplay_bsp/\libhal_bsp.a(alt_tick.o)
 .debug_aranges
                0x0000000000000b28       0x20 ../cineraria_wavplay_bsp/\libhal_bsp.a(alt_uncached_free.o)
 .debug_aranges
                0x0000000000000b48       0x20 ../cineraria_wavplay_bsp/\libhal_bsp.a(alt_uncached_malloc.o)
 .debug_aranges
                0x0000000000000b68       0x20 ../cineraria_wavplay_bsp/\libhal_bsp.a(alt_write.o)
 .debug_aranges
                0x0000000000000b88       0x20 ../cineraria_wavplay_bsp/\libhal_bsp.a(alt_sys_init.o)
 .debug_aranges
                0x0000000000000ba8       0x20 ../cineraria_wavplay_bsp/\libhal_bsp.a(altera_avalon_jtag_uart_fd.o)
 .debug_aranges
                0x0000000000000bc8       0x20 ../cineraria_wavplay_bsp/\libhal_bsp.a(altera_avalon_jtag_uart_init.o)
 .debug_aranges
                0x0000000000000be8       0x20 ../cineraria_wavplay_bsp/\libhal_bsp.a(altera_avalon_jtag_uart_ioctl.o)
 .debug_aranges
                0x0000000000000c08       0x20 ../cineraria_wavplay_bsp/\libhal_bsp.a(altera_avalon_jtag_uart_read.o)
 .debug_aranges
                0x0000000000000c28       0x20 ../cineraria_wavplay_bsp/\libhal_bsp.a(altera_avalon_jtag_uart_write.o)
 .debug_aranges
                0x0000000000000c48       0x20 ../cineraria_wavplay_bsp/\libhal_bsp.a(altera_avalon_timer_sc.o)
 .debug_aranges
                0x0000000000000c68       0x20 ../cineraria_wavplay_bsp/\libhal_bsp.a(altera_epcq_controller.o)
 .debug_aranges
                0x0000000000000c88       0x20 ../cineraria_wavplay_bsp/\libhal_bsp.a(alt_busy_sleep.o)
 .debug_aranges
                0x0000000000000ca8       0x20 ../cineraria_wavplay_bsp/\libhal_bsp.a(alt_dcache_flush.o)
 .debug_aranges
                0x0000000000000cc8       0x20 ../cineraria_wavplay_bsp/\libhal_bsp.a(alt_dcache_flush_all.o)
 .debug_aranges
                0x0000000000000ce8       0x20 ../cineraria_wavplay_bsp/\libhal_bsp.a(alt_dev_llist_insert.o)
 .debug_aranges
                0x0000000000000d08       0x20 ../cineraria_wavplay_bsp/\libhal_bsp.a(alt_do_ctors.o)
 .debug_aranges
                0x0000000000000d28       0x20 ../cineraria_wavplay_bsp/\libhal_bsp.a(alt_do_dtors.o)
 .debug_aranges
                0x0000000000000d48       0x38 ../cineraria_wavplay_bsp/\libhal_bsp.a(alt_exception_entry.o)
 .debug_aranges
                0x0000000000000d80       0x20 ../cineraria_wavplay_bsp/\libhal_bsp.a(alt_flash_dev.o)
 .debug_aranges
                0x0000000000000da0       0x20 ../cineraria_wavplay_bsp/\libhal_bsp.a(alt_icache_flush_all.o)
 .debug_aranges
                0x0000000000000dc0       0x28 ../cineraria_wavplay_bsp/\libhal_bsp.a(alt_instruction_exception_entry.o)
 .debug_aranges
                0x0000000000000de8       0x20 ../cineraria_wavplay_bsp/\libhal_bsp.a(alt_io_redirect.o)
 .debug_aranges
                0x0000000000000e08       0x20 ../cineraria_wavplay_bsp/\libhal_bsp.a(alt_open.o)
 .debug_aranges
                0x0000000000000e28       0x20 ../cineraria_wavplay_bsp/\libhal_bsp.a(altera_nios2_gen2_irq.o)
 .debug_aranges
                0x0000000000000e48       0x20 ../cineraria_wavplay_bsp/\libhal_bsp.a(alt_find_dev.o)
 .debug_aranges
                0x0000000000000e68       0x20 ../cineraria_wavplay_bsp/\libhal_bsp.a(alt_find_file.o)
 .debug_aranges
                0x0000000000000e88       0x20 ../cineraria_wavplay_bsp/\libhal_bsp.a(alt_get_fd.o)
 .debug_aranges
                0x0000000000000ea8       0x20 ../cineraria_wavplay_bsp/\libhal_bsp.a(alt_icache_flush.o)
 .debug_aranges
                0x0000000000000ec8       0x20 c:/develop/altera/15.0/nios2eds/bin/gnu/h-x86_64-mingw32/bin/../lib/gcc/nios2-elf/4.9.1/../../../../../H-x86_64-mingw32/nios2-elf/lib/mhw-mulx\libc.a(lib_a-atexit.o)
 .debug_aranges
                0x0000000000000ee8       0x20 c:/develop/altera/15.0/nios2eds/bin/gnu/h-x86_64-mingw32/bin/../lib/gcc/nios2-elf/4.9.1/../../../../../H-x86_64-mingw32/nios2-elf/lib/mhw-mulx\libc.a(lib_a-exit.o)
 .debug_aranges
                0x0000000000000f08       0x20 c:/develop/altera/15.0/nios2eds/bin/gnu/h-x86_64-mingw32/bin/../lib/gcc/nios2-elf/4.9.1/../../../../../H-x86_64-mingw32/nios2-elf/lib/mhw-mulx\libc.a(lib_a-malign.o)
 .debug_aranges
                0x0000000000000f28       0x20 c:/develop/altera/15.0/nios2eds/bin/gnu/h-x86_64-mingw32/bin/../lib/gcc/nios2-elf/4.9.1/../../../../../H-x86_64-mingw32/nios2-elf/lib/mhw-mulx\libc.a(lib_a-malignr.o)
 .debug_aranges
                0x0000000000000f48       0x20 c:/develop/altera/15.0/nios2eds/bin/gnu/h-x86_64-mingw32/bin/../lib/gcc/nios2-elf/4.9.1/../../../../../H-x86_64-mingw32/nios2-elf/lib/mhw-mulx\libc.a(lib_a-memcmp.o)
 .debug_aranges
                0x0000000000000f68       0x20 c:/develop/altera/15.0/nios2eds/bin/gnu/h-x86_64-mingw32/bin/../lib/gcc/nios2-elf/4.9.1/../../../../../H-x86_64-mingw32/nios2-elf/lib/mhw-mulx\libc.a(lib_a-__atexit.o)
 .debug_aranges
                0x0000000000000f88       0x20 c:/develop/altera/15.0/nios2eds/bin/gnu/h-x86_64-mingw32/bin/../lib/gcc/nios2-elf/4.9.1/../../../../../H-x86_64-mingw32/nios2-elf/lib/mhw-mulx\libc.a(lib_a-__call_atexit.o)
 .debug_aranges
                0x0000000000000fa8       0x20 ../cineraria_wavplay_bsp/\libhal_bsp.a(alt_exit.o)

.debug_pubnames
 *(.debug_pubnames)

.debug_info     0x0000000000000000    0x33ac6
 *(.debug_info .gnu.linkonce.wi.*)
 .debug_info    0x0000000000000000       0x7b ../cineraria_wavplay_bsp//obj/HAL/src/crt0.o
 .debug_info    0x000000000000007b      0x2ee obj/default/disp7seg.o
 .debug_info    0x0000000000000369      0x429 obj/default/drawwave.o
 .debug_info    0x0000000000000792      0x522 obj/default/getfilename.o
 .debug_info    0x0000000000000cb4      0x6be obj/default/loadbmp.o
 .debug_info    0x0000000000001372     0x62b8 obj/default/mmcfs/fatfs/ff.o
 .debug_info    0x000000000000762a     0x17e6 obj/default/mmcfs/fatfs/mmcbb.o
 .debug_info    0x0000000000008e10      0x1c6 obj/default/mmcfs/fatfs/option/cc932.o
 .debug_info    0x0000000000008fd6       0x9a obj/default/mmcfs/gettime.o
 .debug_info    0x0000000000009070      0x2a9 obj/default/mmcfs/mmc_spi.o
 .debug_info    0x0000000000009319      0xb9f obj/default/mmcfs/mmcfs.o
 .debug_info    0x0000000000009eb8     0x157a obj/default/nd_lib/nd_egl.o
 .debug_info    0x000000000000b432      0x9cd obj/default/playwav.o
 .debug_info    0x000000000000bdff      0x4e4 obj/default/wav_player.o
 .debug_info    0x000000000000c2e3      0x910 c:/develop/altera/15.0/nios2eds/bin/gnu/h-x86_64-mingw32/bin/../lib/gcc/nios2-elf/4.9.1/../../../../../H-x86_64-mingw32/nios2-elf/lib/mhw-mulx\libc.a(lib_a-malloc.o)
 .debug_info    0x000000000000cbf3      0xd71 c:/develop/altera/15.0/nios2eds/bin/gnu/h-x86_64-mingw32/bin/../lib/gcc/nios2-elf/4.9.1/../../../../../H-x86_64-mingw32/nios2-elf/lib/mhw-mulx\libc.a(lib_a-mallocr.o)
 .debug_info    0x000000000000d964      0x133 c:/develop/altera/15.0/nios2eds/bin/gnu/h-x86_64-mingw32/bin/../lib/gcc/nios2-elf/4.9.1/../../../../../H-x86_64-mingw32/nios2-elf/lib/mhw-mulx\libc.a(lib_a-memcpy.o)
 .debug_info    0x000000000000da97      0x11a c:/develop/altera/15.0/nios2eds/bin/gnu/h-x86_64-mingw32/bin/../lib/gcc/nios2-elf/4.9.1/../../../../../H-x86_64-mingw32/nios2-elf/lib/mhw-mulx\libc.a(lib_a-memset.o)
 .debug_info    0x000000000000dbb1      0x9af c:/develop/altera/15.0/nios2eds/bin/gnu/h-x86_64-mingw32/bin/../lib/gcc/nios2-elf/4.9.1/../../../../../H-x86_64-mingw32/nios2-elf/lib/mhw-mulx\libc.a(lib_a-printf.o)
 .debug_info    0x000000000000e560      0x9f4 c:/develop/altera/15.0/nios2eds/bin/gnu/h-x86_64-mingw32/bin/../lib/gcc/nios2-elf/4.9.1/../../../../../H-x86_64-mingw32/nios2-elf/lib/mhw-mulx\libc.a(lib_a-puts.o)
 .debug_info    0x000000000000ef54      0x8ef c:/develop/altera/15.0/nios2eds/bin/gnu/h-x86_64-mingw32/bin/../lib/gcc/nios2-elf/4.9.1/../../../../../H-x86_64-mingw32/nios2-elf/lib/mhw-mulx\libc.a(lib_a-sbrkr.o)
 .debug_info    0x000000000000f843      0x110 c:/develop/altera/15.0/nios2eds/bin/gnu/h-x86_64-mingw32/bin/../lib/gcc/nios2-elf/4.9.1/../../../../../H-x86_64-mingw32/nios2-elf/lib/mhw-mulx\libc.a(lib_a-strcpy.o)
 .debug_info    0x000000000000f953       0xdb c:/develop/altera/15.0/nios2eds/bin/gnu/h-x86_64-mingw32/bin/../lib/gcc/nios2-elf/4.9.1/../../../../../H-x86_64-mingw32/nios2-elf/lib/mhw-mulx\libc.a(lib_a-strlen.o)
 .debug_info    0x000000000000fa2e     0x17d1 c:/develop/altera/15.0/nios2eds/bin/gnu/h-x86_64-mingw32/bin/../lib/gcc/nios2-elf/4.9.1/../../../../../H-x86_64-mingw32/nios2-elf/lib/mhw-mulx\libc.a(lib_a-vfprintf.o)
 .debug_info    0x00000000000111ff      0x91d c:/develop/altera/15.0/nios2eds/bin/gnu/h-x86_64-mingw32/bin/../lib/gcc/nios2-elf/4.9.1/../../../../../H-x86_64-mingw32/nios2-elf/lib/mhw-mulx\libc.a(lib_a-wsetup.o)
 .debug_info    0x0000000000011b1c     0x1348 c:/develop/altera/15.0/nios2eds/bin/gnu/h-x86_64-mingw32/bin/../lib/gcc/nios2-elf/4.9.1/../../../../../H-x86_64-mingw32/nios2-elf/lib/mhw-mulx\libc.a(lib_a-dtoa.o)
 .debug_info    0x0000000000012e64      0xa3a c:/develop/altera/15.0/nios2eds/bin/gnu/h-x86_64-mingw32/bin/../lib/gcc/nios2-elf/4.9.1/../../../../../H-x86_64-mingw32/nios2-elf/lib/mhw-mulx\libc.a(lib_a-fflush.o)
 .debug_info    0x000000000001389e      0xd38 c:/develop/altera/15.0/nios2eds/bin/gnu/h-x86_64-mingw32/bin/../lib/gcc/nios2-elf/4.9.1/../../../../../H-x86_64-mingw32/nios2-elf/lib/mhw-mulx\libc.a(lib_a-findfp.o)
 .debug_info    0x00000000000145d6      0xc02 c:/develop/altera/15.0/nios2eds/bin/gnu/h-x86_64-mingw32/bin/../lib/gcc/nios2-elf/4.9.1/../../../../../H-x86_64-mingw32/nios2-elf/lib/mhw-mulx\libc.a(lib_a-freer.o)
 .debug_info    0x00000000000151d8      0xc31 c:/develop/altera/15.0/nios2eds/bin/gnu/h-x86_64-mingw32/bin/../lib/gcc/nios2-elf/4.9.1/../../../../../H-x86_64-mingw32/nios2-elf/lib/mhw-mulx\libc.a(lib_a-fvwrite.o)
 .debug_info    0x0000000000015e09      0xab7 c:/develop/altera/15.0/nios2eds/bin/gnu/h-x86_64-mingw32/bin/../lib/gcc/nios2-elf/4.9.1/../../../../../H-x86_64-mingw32/nios2-elf/lib/mhw-mulx\libc.a(lib_a-fwalk.o)
 .debug_info    0x00000000000168c0      0x88f c:/develop/altera/15.0/nios2eds/bin/gnu/h-x86_64-mingw32/bin/../lib/gcc/nios2-elf/4.9.1/../../../../../H-x86_64-mingw32/nios2-elf/lib/mhw-mulx\libc.a(lib_a-impure.o)
 .debug_info    0x000000000001714f       0x83 c:/develop/altera/15.0/nios2eds/bin/gnu/h-x86_64-mingw32/bin/../lib/gcc/nios2-elf/4.9.1/../../../../../H-x86_64-mingw32/nios2-elf/lib/mhw-mulx\libc.a(lib_a-int_errno.o)
 .debug_info    0x00000000000171d2      0xc19 c:/develop/altera/15.0/nios2eds/bin/gnu/h-x86_64-mingw32/bin/../lib/gcc/nios2-elf/4.9.1/../../../../../H-x86_64-mingw32/nios2-elf/lib/mhw-mulx\libc.a(lib_a-locale.o)
 .debug_info    0x0000000000017deb      0xaff c:/develop/altera/15.0/nios2eds/bin/gnu/h-x86_64-mingw32/bin/../lib/gcc/nios2-elf/4.9.1/../../../../../H-x86_64-mingw32/nios2-elf/lib/mhw-mulx\libc.a(lib_a-makebuf.o)
 .debug_info    0x00000000000188ea      0x12b c:/develop/altera/15.0/nios2eds/bin/gnu/h-x86_64-mingw32/bin/../lib/gcc/nios2-elf/4.9.1/../../../../../H-x86_64-mingw32/nios2-elf/lib/mhw-mulx\libc.a(lib_a-memchr.o)
 .debug_info    0x0000000000018a15      0x133 c:/develop/altera/15.0/nios2eds/bin/gnu/h-x86_64-mingw32/bin/../lib/gcc/nios2-elf/4.9.1/../../../../../H-x86_64-mingw32/nios2-elf/lib/mhw-mulx\libc.a(lib_a-memmove.o)
 .debug_info    0x0000000000018b48     0x1680 c:/develop/altera/15.0/nios2eds/bin/gnu/h-x86_64-mingw32/bin/../lib/gcc/nios2-elf/4.9.1/../../../../../H-x86_64-mingw32/nios2-elf/lib/mhw-mulx\libc.a(lib_a-mprec.o)
 .debug_info    0x000000000001a1c8      0xcc6 c:/develop/altera/15.0/nios2eds/bin/gnu/h-x86_64-mingw32/bin/../lib/gcc/nios2-elf/4.9.1/../../../../../H-x86_64-mingw32/nios2-elf/lib/mhw-mulx\libc.a(lib_a-reallocr.o)
 .debug_info    0x000000000001ae8e       0xdc c:/develop/altera/15.0/nios2eds/bin/gnu/h-x86_64-mingw32/bin/../lib/gcc/nios2-elf/4.9.1/../../../../../H-x86_64-mingw32/nios2-elf/lib/mhw-mulx\libc.a(lib_a-s_fpclassify.o)
 .debug_info    0x000000000001af6a      0xb83 c:/develop/altera/15.0/nios2eds/bin/gnu/h-x86_64-mingw32/bin/../lib/gcc/nios2-elf/4.9.1/../../../../../H-x86_64-mingw32/nios2-elf/lib/mhw-mulx\libc.a(lib_a-stdio.o)
 .debug_info    0x000000000001baed       0xdd c:/develop/altera/15.0/nios2eds/bin/gnu/h-x86_64-mingw32/bin/../lib/gcc/nios2-elf/4.9.1/../../../../../H-x86_64-mingw32/nios2-elf/lib/mhw-mulx\libc.a(lib_a-strcmp.o)
 .debug_info    0x000000000001bbca     0x1567 c:/develop/altera/15.0/nios2eds/bin/gnu/h-x86_64-mingw32/bin/../lib/gcc/nios2-elf/4.9.1/../../../../../H-x86_64-mingw32/nios2-elf/lib/mhw-mulx\libc.a(lib_a-vfiprintf.o)
 .debug_info    0x000000000001d131      0x921 c:/develop/altera/15.0/nios2eds/bin/gnu/h-x86_64-mingw32/bin/../lib/gcc/nios2-elf/4.9.1/../../../../../H-x86_64-mingw32/nios2-elf/lib/mhw-mulx\libc.a(lib_a-writer.o)
 .debug_info    0x000000000001da52      0x8ce c:/develop/altera/15.0/nios2eds/bin/gnu/h-x86_64-mingw32/bin/../lib/gcc/nios2-elf/4.9.1/../../../../../H-x86_64-mingw32/nios2-elf/lib/mhw-mulx\libc.a(closer.o)
 .debug_info    0x000000000001e320      0x9e1 c:/develop/altera/15.0/nios2eds/bin/gnu/h-x86_64-mingw32/bin/../lib/gcc/nios2-elf/4.9.1/../../../../../H-x86_64-mingw32/nios2-elf/lib/mhw-mulx\libc.a(lib_a-callocr.o)
 .debug_info    0x000000000001ed01      0xa12 c:/develop/altera/15.0/nios2eds/bin/gnu/h-x86_64-mingw32/bin/../lib/gcc/nios2-elf/4.9.1/../../../../../H-x86_64-mingw32/nios2-elf/lib/mhw-mulx\libc.a(lib_a-fclose.o)
 .debug_info    0x000000000001f713      0xaac c:/develop/altera/15.0/nios2eds/bin/gnu/h-x86_64-mingw32/bin/../lib/gcc/nios2-elf/4.9.1/../../../../../H-x86_64-mingw32/nios2-elf/lib/mhw-mulx\libc.a(lib_a-fputwc.o)
 .debug_info    0x00000000000201bf      0xa5c c:/develop/altera/15.0/nios2eds/bin/gnu/h-x86_64-mingw32/bin/../lib/gcc/nios2-elf/4.9.1/../../../../../H-x86_64-mingw32/nios2-elf/lib/mhw-mulx\libc.a(lib_a-fstatr.o)
 .debug_info    0x0000000000020c1b      0x8ce c:/develop/altera/15.0/nios2eds/bin/gnu/h-x86_64-mingw32/bin/../lib/gcc/nios2-elf/4.9.1/../../../../../H-x86_64-mingw32/nios2-elf/lib/mhw-mulx\libc.a(lib_a-isattyr.o)
 .debug_info    0x00000000000214e9      0x91a c:/develop/altera/15.0/nios2eds/bin/gnu/h-x86_64-mingw32/bin/../lib/gcc/nios2-elf/4.9.1/../../../../../H-x86_64-mingw32/nios2-elf/lib/mhw-mulx\libc.a(lib_a-lseekr.o)
 .debug_info    0x0000000000021e03      0x91a c:/develop/altera/15.0/nios2eds/bin/gnu/h-x86_64-mingw32/bin/../lib/gcc/nios2-elf/4.9.1/../../../../../H-x86_64-mingw32/nios2-elf/lib/mhw-mulx\libc.a(lib_a-readr.o)
 .debug_info    0x000000000002271d      0x9b2 c:/develop/altera/15.0/nios2eds/bin/gnu/h-x86_64-mingw32/bin/../lib/gcc/nios2-elf/4.9.1/../../../../../H-x86_64-mingw32/nios2-elf/lib/mhw-mulx\libc.a(lib_a-wbuf.o)
 .debug_info    0x00000000000230cf      0xa52 c:/develop/altera/15.0/nios2eds/bin/gnu/h-x86_64-mingw32/bin/../lib/gcc/nios2-elf/4.9.1/../../../../../H-x86_64-mingw32/nios2-elf/lib/mhw-mulx\libc.a(lib_a-wcrtomb.o)
 .debug_info    0x0000000000023b21      0x99a c:/develop/altera/15.0/nios2eds/bin/gnu/h-x86_64-mingw32/bin/../lib/gcc/nios2-elf/4.9.1/../../../../../H-x86_64-mingw32/nios2-elf/lib/mhw-mulx\libc.a(lib_a-wctomb_r.o)
 .debug_info    0x00000000000244bb      0x70c c:/develop/altera/15.0/nios2eds/bin/gnu/h-x86_64-mingw32/bin/../lib/gcc/nios2-elf/4.9.1/mhw-mulx\libgcc.a(_udivdi3.o)
 .debug_info    0x0000000000024bc7      0x765 c:/develop/altera/15.0/nios2eds/bin/gnu/h-x86_64-mingw32/bin/../lib/gcc/nios2-elf/4.9.1/mhw-mulx\libgcc.a(_umoddi3.o)
 .debug_info    0x000000000002532c      0x234 c:/develop/altera/15.0/nios2eds/bin/gnu/h-x86_64-mingw32/bin/../lib/gcc/nios2-elf/4.9.1/mhw-mulx\libgcc.a(lib2-divmod.o)
 .debug_info    0x0000000000025560      0x485 c:/develop/altera/15.0/nios2eds/bin/gnu/h-x86_64-mingw32/bin/../lib/gcc/nios2-elf/4.9.1/mhw-mulx\libgcc.a(adddf3.o)
 .debug_info    0x00000000000259e5      0x5c6 c:/develop/altera/15.0/nios2eds/bin/gnu/h-x86_64-mingw32/bin/../lib/gcc/nios2-elf/4.9.1/mhw-mulx\libgcc.a(divdf3.o)
 .debug_info    0x0000000000025fab      0x1e2 c:/develop/altera/15.0/nios2eds/bin/gnu/h-x86_64-mingw32/bin/../lib/gcc/nios2-elf/4.9.1/mhw-mulx\libgcc.a(eqdf2.o)
 .debug_info    0x000000000002618d      0x202 c:/develop/altera/15.0/nios2eds/bin/gnu/h-x86_64-mingw32/bin/../lib/gcc/nios2-elf/4.9.1/mhw-mulx\libgcc.a(gedf2.o)
 .debug_info    0x000000000002638f      0x202 c:/develop/altera/15.0/nios2eds/bin/gnu/h-x86_64-mingw32/bin/../lib/gcc/nios2-elf/4.9.1/mhw-mulx\libgcc.a(ledf2.o)
 .debug_info    0x0000000000026591      0x5f2 c:/develop/altera/15.0/nios2eds/bin/gnu/h-x86_64-mingw32/bin/../lib/gcc/nios2-elf/4.9.1/mhw-mulx\libgcc.a(muldf3.o)
 .debug_info    0x0000000000026b83      0x4a2 c:/develop/altera/15.0/nios2eds/bin/gnu/h-x86_64-mingw32/bin/../lib/gcc/nios2-elf/4.9.1/mhw-mulx\libgcc.a(subdf3.o)
 .debug_info    0x0000000000027025      0x1a6 c:/develop/altera/15.0/nios2eds/bin/gnu/h-x86_64-mingw32/bin/../lib/gcc/nios2-elf/4.9.1/mhw-mulx\libgcc.a(fixdfsi.o)
 .debug_info    0x00000000000271cb      0x1b6 c:/develop/altera/15.0/nios2eds/bin/gnu/h-x86_64-mingw32/bin/../lib/gcc/nios2-elf/4.9.1/mhw-mulx\libgcc.a(floatsidf.o)
 .debug_info    0x0000000000027381      0x1af c:/develop/altera/15.0/nios2eds/bin/gnu/h-x86_64-mingw32/bin/../lib/gcc/nios2-elf/4.9.1/mhw-mulx\libgcc.a(floatunsidf.o)
 .debug_info    0x0000000000027530       0xab c:/develop/altera/15.0/nios2eds/bin/gnu/h-x86_64-mingw32/bin/../lib/gcc/nios2-elf/4.9.1/mhw-mulx\libgcc.a(_clz.o)
 .debug_info    0x00000000000275db      0x11d c:/develop/altera/15.0/nios2eds/bin/gnu/h-x86_64-mingw32/bin/../lib/gcc/nios2-elf/4.9.1/mhw-mulx\libgcc.a(_clzsi2.o)
 .debug_info    0x00000000000276f8      0x2b6 ../cineraria_wavplay_bsp/\libhal_bsp.a(alt_alarm_start.o)
 .debug_info    0x00000000000279ae      0x36e ../cineraria_wavplay_bsp/\libhal_bsp.a(alt_close.o)
 .debug_info    0x0000000000027d1c      0x492 ../cineraria_wavplay_bsp/\libhal_bsp.a(alt_dev.o)
 .debug_info    0x00000000000281ae       0x9f ../cineraria_wavplay_bsp/\libhal_bsp.a(alt_errno.o)
 .debug_info    0x000000000002824d      0x2f8 ../cineraria_wavplay_bsp/\libhal_bsp.a(alt_fs_reg.o)
 .debug_info    0x0000000000028545      0x4a0 ../cineraria_wavplay_bsp/\libhal_bsp.a(alt_fstat.o)
 .debug_info    0x00000000000289e5      0x39d ../cineraria_wavplay_bsp/\libhal_bsp.a(alt_iic.o)
 .debug_info    0x0000000000028d82      0x249 ../cineraria_wavplay_bsp/\libhal_bsp.a(alt_iic_isr_register.o)
 .debug_info    0x0000000000028fcb       0x80 ../cineraria_wavplay_bsp/\libhal_bsp.a(alt_irq_entry.o)
 .debug_info    0x000000000002904b      0x183 ../cineraria_wavplay_bsp/\libhal_bsp.a(alt_irq_handler.o)
 .debug_info    0x00000000000291ce       0x88 ../cineraria_wavplay_bsp/\libhal_bsp.a(alt_irq_vars.o)
 .debug_info    0x0000000000029256      0x4b7 ../cineraria_wavplay_bsp/\libhal_bsp.a(alt_isatty.o)
 .debug_info    0x000000000002970d      0x1fb ../cineraria_wavplay_bsp/\libhal_bsp.a(alt_load.o)
 .debug_info    0x0000000000029908      0x373 ../cineraria_wavplay_bsp/\libhal_bsp.a(alt_lseek.o)
 .debug_info    0x0000000000029c7b      0x257 ../cineraria_wavplay_bsp/\libhal_bsp.a(alt_main.o)
 .debug_info    0x0000000000029ed2      0x89d ../cineraria_wavplay_bsp/\libhal_bsp.a(alt_malloc_lock.o)
 .debug_info    0x000000000002a76f      0x4ef ../cineraria_wavplay_bsp/\libhal_bsp.a(alt_read.o)
 .debug_info    0x000000000002ac5e      0x2b1 ../cineraria_wavplay_bsp/\libhal_bsp.a(alt_release_fd.o)
 .debug_info    0x000000000002af0f      0x1a5 ../cineraria_wavplay_bsp/\libhal_bsp.a(alt_sbrk.o)
 .debug_info    0x000000000002b0b4      0x320 ../cineraria_wavplay_bsp/\libhal_bsp.a(alt_tick.o)
 .debug_info    0x000000000002b3d4       0xd7 ../cineraria_wavplay_bsp/\libhal_bsp.a(alt_uncached_free.o)
 .debug_info    0x000000000002b4ab      0x150 ../cineraria_wavplay_bsp/\libhal_bsp.a(alt_uncached_malloc.o)
 .debug_info    0x000000000002b5fb      0x4f6 ../cineraria_wavplay_bsp/\libhal_bsp.a(alt_write.o)
 .debug_info    0x000000000002baf1      0x922 ../cineraria_wavplay_bsp/\libhal_bsp.a(alt_sys_init.o)
 .debug_info    0x000000000002c413      0x609 ../cineraria_wavplay_bsp/\libhal_bsp.a(altera_avalon_jtag_uart_fd.o)
 .debug_info    0x000000000002ca1c      0x44a ../cineraria_wavplay_bsp/\libhal_bsp.a(altera_avalon_jtag_uart_init.o)
 .debug_info    0x000000000002ce66      0x27a ../cineraria_wavplay_bsp/\libhal_bsp.a(altera_avalon_jtag_uart_ioctl.o)
 .debug_info    0x000000000002d0e0      0x37b ../cineraria_wavplay_bsp/\libhal_bsp.a(altera_avalon_jtag_uart_read.o)
 .debug_info    0x000000000002d45b      0x37a ../cineraria_wavplay_bsp/\libhal_bsp.a(altera_avalon_jtag_uart_write.o)
 .debug_info    0x000000000002d7d5      0x29f ../cineraria_wavplay_bsp/\libhal_bsp.a(altera_avalon_timer_sc.o)
 .debug_info    0x000000000002da74      0xb0d ../cineraria_wavplay_bsp/\libhal_bsp.a(altera_epcq_controller.o)
 .debug_info    0x000000000002e581       0xcf ../cineraria_wavplay_bsp/\libhal_bsp.a(alt_busy_sleep.o)
 .debug_info    0x000000000002e650       0xd7 ../cineraria_wavplay_bsp/\libhal_bsp.a(alt_dcache_flush.o)
 .debug_info    0x000000000002e727       0x9f ../cineraria_wavplay_bsp/\libhal_bsp.a(alt_dcache_flush_all.o)
 .debug_info    0x000000000002e7c6      0x1b0 ../cineraria_wavplay_bsp/\libhal_bsp.a(alt_dev_llist_insert.o)
 .debug_info    0x000000000002e976       0x84 ../cineraria_wavplay_bsp/\libhal_bsp.a(alt_do_ctors.o)
 .debug_info    0x000000000002e9fa       0x84 ../cineraria_wavplay_bsp/\libhal_bsp.a(alt_do_dtors.o)
 .debug_info    0x000000000002ea7e       0x86 ../cineraria_wavplay_bsp/\libhal_bsp.a(alt_exception_entry.o)
 .debug_info    0x000000000002eb04      0x5dd ../cineraria_wavplay_bsp/\libhal_bsp.a(alt_flash_dev.o)
 .debug_info    0x000000000002f0e1       0xc5 ../cineraria_wavplay_bsp/\libhal_bsp.a(alt_icache_flush_all.o)
 .debug_info    0x000000000002f1a6      0x1e9 ../cineraria_wavplay_bsp/\libhal_bsp.a(alt_instruction_exception_entry.o)
 .debug_info    0x000000000002f38f      0x5e7 ../cineraria_wavplay_bsp/\libhal_bsp.a(alt_io_redirect.o)
 .debug_info    0x000000000002f976      0x4ac ../cineraria_wavplay_bsp/\libhal_bsp.a(alt_open.o)
 .debug_info    0x000000000002fe22       0x8b ../cineraria_wavplay_bsp/\libhal_bsp.a(altera_nios2_gen2_irq.o)
 .debug_info    0x000000000002fead      0x356 ../cineraria_wavplay_bsp/\libhal_bsp.a(alt_find_dev.o)
 .debug_info    0x0000000000030203      0x33d ../cineraria_wavplay_bsp/\libhal_bsp.a(alt_find_file.o)
 .debug_info    0x0000000000030540      0x30a ../cineraria_wavplay_bsp/\libhal_bsp.a(alt_get_fd.o)
 .debug_info    0x000000000003084a       0xd7 ../cineraria_wavplay_bsp/\libhal_bsp.a(alt_icache_flush.o)
 .debug_info    0x0000000000030921      0x10a c:/develop/altera/15.0/nios2eds/bin/gnu/h-x86_64-mingw32/bin/../lib/gcc/nios2-elf/4.9.1/../../../../../H-x86_64-mingw32/nios2-elf/lib/mhw-mulx\libc.a(lib_a-atexit.o)
 .debug_info    0x0000000000030a2b      0x8df c:/develop/altera/15.0/nios2eds/bin/gnu/h-x86_64-mingw32/bin/../lib/gcc/nios2-elf/4.9.1/../../../../../H-x86_64-mingw32/nios2-elf/lib/mhw-mulx\libc.a(lib_a-exit.o)
 .debug_info    0x000000000003130a      0x8df c:/develop/altera/15.0/nios2eds/bin/gnu/h-x86_64-mingw32/bin/../lib/gcc/nios2-elf/4.9.1/../../../../../H-x86_64-mingw32/nios2-elf/lib/mhw-mulx\libc.a(lib_a-malign.o)
 .debug_info    0x0000000000031be9      0xa68 c:/develop/altera/15.0/nios2eds/bin/gnu/h-x86_64-mingw32/bin/../lib/gcc/nios2-elf/4.9.1/../../../../../H-x86_64-mingw32/nios2-elf/lib/mhw-mulx\libc.a(lib_a-malignr.o)
 .debug_info    0x0000000000032651      0x113 c:/develop/altera/15.0/nios2eds/bin/gnu/h-x86_64-mingw32/bin/../lib/gcc/nios2-elf/4.9.1/../../../../../H-x86_64-mingw32/nios2-elf/lib/mhw-mulx\libc.a(lib_a-memcmp.o)
 .debug_info    0x0000000000032764      0x93b c:/develop/altera/15.0/nios2eds/bin/gnu/h-x86_64-mingw32/bin/../lib/gcc/nios2-elf/4.9.1/../../../../../H-x86_64-mingw32/nios2-elf/lib/mhw-mulx\libc.a(lib_a-__atexit.o)
 .debug_info    0x000000000003309f      0x948 c:/develop/altera/15.0/nios2eds/bin/gnu/h-x86_64-mingw32/bin/../lib/gcc/nios2-elf/4.9.1/../../../../../H-x86_64-mingw32/nios2-elf/lib/mhw-mulx\libc.a(lib_a-__call_atexit.o)
 .debug_info    0x00000000000339e7       0xdf ../cineraria_wavplay_bsp/\libhal_bsp.a(alt_exit.o)

.debug_abbrev   0x0000000000000000     0xbc3d
 *(.debug_abbrev)
 .debug_abbrev  0x0000000000000000       0x14 ../cineraria_wavplay_bsp//obj/HAL/src/crt0.o
 .debug_abbrev  0x0000000000000014      0x17c obj/default/disp7seg.o
 .debug_abbrev  0x0000000000000190      0x18b obj/default/drawwave.o
 .debug_abbrev  0x000000000000031b      0x190 obj/default/getfilename.o
 .debug_abbrev  0x00000000000004ab      0x169 obj/default/loadbmp.o
 .debug_abbrev  0x0000000000000614      0x359 obj/default/mmcfs/fatfs/ff.o
 .debug_abbrev  0x000000000000096d      0x2d8 obj/default/mmcfs/fatfs/mmcbb.o
 .debug_abbrev  0x0000000000000c45       0xd6 obj/default/mmcfs/fatfs/option/cc932.o
 .debug_abbrev  0x0000000000000d1b       0x51 obj/default/mmcfs/gettime.o
 .debug_abbrev  0x0000000000000d6c      0x187 obj/default/mmcfs/mmc_spi.o
 .debug_abbrev  0x0000000000000ef3      0x205 obj/default/mmcfs/mmcfs.o
 .debug_abbrev  0x00000000000010f8      0x377 obj/default/nd_lib/nd_egl.o
 .debug_abbrev  0x000000000000146f      0x25b obj/default/playwav.o
 .debug_abbrev  0x00000000000016ca      0x158 obj/default/wav_player.o
 .debug_abbrev  0x0000000000001822      0x1fa c:/develop/altera/15.0/nios2eds/bin/gnu/h-x86_64-mingw32/bin/../lib/gcc/nios2-elf/4.9.1/../../../../../H-x86_64-mingw32/nios2-elf/lib/mhw-mulx\libc.a(lib_a-malloc.o)
 .debug_abbrev  0x0000000000001a1c      0x2ad c:/develop/altera/15.0/nios2eds/bin/gnu/h-x86_64-mingw32/bin/../lib/gcc/nios2-elf/4.9.1/../../../../../H-x86_64-mingw32/nios2-elf/lib/mhw-mulx\libc.a(lib_a-mallocr.o)
 .debug_abbrev  0x0000000000001cc9       0x9c c:/develop/altera/15.0/nios2eds/bin/gnu/h-x86_64-mingw32/bin/../lib/gcc/nios2-elf/4.9.1/../../../../../H-x86_64-mingw32/nios2-elf/lib/mhw-mulx\libc.a(lib_a-memcpy.o)
 .debug_abbrev  0x0000000000001d65       0xae c:/develop/altera/15.0/nios2eds/bin/gnu/h-x86_64-mingw32/bin/../lib/gcc/nios2-elf/4.9.1/../../../../../H-x86_64-mingw32/nios2-elf/lib/mhw-mulx\libc.a(lib_a-memset.o)
 .debug_abbrev  0x0000000000001e13      0x234 c:/develop/altera/15.0/nios2eds/bin/gnu/h-x86_64-mingw32/bin/../lib/gcc/nios2-elf/4.9.1/../../../../../H-x86_64-mingw32/nios2-elf/lib/mhw-mulx\libc.a(lib_a-printf.o)
 .debug_abbrev  0x0000000000002047      0x226 c:/develop/altera/15.0/nios2eds/bin/gnu/h-x86_64-mingw32/bin/../lib/gcc/nios2-elf/4.9.1/../../../../../H-x86_64-mingw32/nios2-elf/lib/mhw-mulx\libc.a(lib_a-puts.o)
 .debug_abbrev  0x000000000000226d      0x1fd c:/develop/altera/15.0/nios2eds/bin/gnu/h-x86_64-mingw32/bin/../lib/gcc/nios2-elf/4.9.1/../../../../../H-x86_64-mingw32/nios2-elf/lib/mhw-mulx\libc.a(lib_a-sbrkr.o)
 .debug_abbrev  0x000000000000246a       0x83 c:/develop/altera/15.0/nios2eds/bin/gnu/h-x86_64-mingw32/bin/../lib/gcc/nios2-elf/4.9.1/../../../../../H-x86_64-mingw32/nios2-elf/lib/mhw-mulx\libc.a(lib_a-strcpy.o)
 .debug_abbrev  0x00000000000024ed       0x90 c:/develop/altera/15.0/nios2eds/bin/gnu/h-x86_64-mingw32/bin/../lib/gcc/nios2-elf/4.9.1/../../../../../H-x86_64-mingw32/nios2-elf/lib/mhw-mulx\libc.a(lib_a-strlen.o)
 .debug_abbrev  0x000000000000257d      0x3c2 c:/develop/altera/15.0/nios2eds/bin/gnu/h-x86_64-mingw32/bin/../lib/gcc/nios2-elf/4.9.1/../../../../../H-x86_64-mingw32/nios2-elf/lib/mhw-mulx\libc.a(lib_a-vfprintf.o)
 .debug_abbrev  0x000000000000293f      0x1f3 c:/develop/altera/15.0/nios2eds/bin/gnu/h-x86_64-mingw32/bin/../lib/gcc/nios2-elf/4.9.1/../../../../../H-x86_64-mingw32/nios2-elf/lib/mhw-mulx\libc.a(lib_a-wsetup.o)
 .debug_abbrev  0x0000000000002b32      0x2c9 c:/develop/altera/15.0/nios2eds/bin/gnu/h-x86_64-mingw32/bin/../lib/gcc/nios2-elf/4.9.1/../../../../../H-x86_64-mingw32/nios2-elf/lib/mhw-mulx\libc.a(lib_a-dtoa.o)
 .debug_abbrev  0x0000000000002dfb      0x275 c:/develop/altera/15.0/nios2eds/bin/gnu/h-x86_64-mingw32/bin/../lib/gcc/nios2-elf/4.9.1/../../../../../H-x86_64-mingw32/nios2-elf/lib/mhw-mulx\libc.a(lib_a-fflush.o)
 .debug_abbrev  0x0000000000003070      0x36b c:/develop/altera/15.0/nios2eds/bin/gnu/h-x86_64-mingw32/bin/../lib/gcc/nios2-elf/4.9.1/../../../../../H-x86_64-mingw32/nios2-elf/lib/mhw-mulx\libc.a(lib_a-findfp.o)
 .debug_abbrev  0x00000000000033db      0x27b c:/develop/altera/15.0/nios2eds/bin/gnu/h-x86_64-mingw32/bin/../lib/gcc/nios2-elf/4.9.1/../../../../../H-x86_64-mingw32/nios2-elf/lib/mhw-mulx\libc.a(lib_a-freer.o)
 .debug_abbrev  0x0000000000003656      0x252 c:/develop/altera/15.0/nios2eds/bin/gnu/h-x86_64-mingw32/bin/../lib/gcc/nios2-elf/4.9.1/../../../../../H-x86_64-mingw32/nios2-elf/lib/mhw-mulx\libc.a(lib_a-fvwrite.o)
 .debug_abbrev  0x00000000000038a8      0x242 c:/develop/altera/15.0/nios2eds/bin/gnu/h-x86_64-mingw32/bin/../lib/gcc/nios2-elf/4.9.1/../../../../../H-x86_64-mingw32/nios2-elf/lib/mhw-mulx\libc.a(lib_a-fwalk.o)
 .debug_abbrev  0x0000000000003aea      0x180 c:/develop/altera/15.0/nios2eds/bin/gnu/h-x86_64-mingw32/bin/../lib/gcc/nios2-elf/4.9.1/../../../../../H-x86_64-mingw32/nios2-elf/lib/mhw-mulx\libc.a(lib_a-impure.o)
 .debug_abbrev  0x0000000000003c6a       0x37 c:/develop/altera/15.0/nios2eds/bin/gnu/h-x86_64-mingw32/bin/../lib/gcc/nios2-elf/4.9.1/../../../../../H-x86_64-mingw32/nios2-elf/lib/mhw-mulx\libc.a(lib_a-int_errno.o)
 .debug_abbrev  0x0000000000003ca1      0x2b3 c:/develop/altera/15.0/nios2eds/bin/gnu/h-x86_64-mingw32/bin/../lib/gcc/nios2-elf/4.9.1/../../../../../H-x86_64-mingw32/nios2-elf/lib/mhw-mulx\libc.a(lib_a-locale.o)
 .debug_abbrev  0x0000000000003f54      0x206 c:/develop/altera/15.0/nios2eds/bin/gnu/h-x86_64-mingw32/bin/../lib/gcc/nios2-elf/4.9.1/../../../../../H-x86_64-mingw32/nios2-elf/lib/mhw-mulx\libc.a(lib_a-makebuf.o)
 .debug_abbrev  0x000000000000415a       0xab c:/develop/altera/15.0/nios2eds/bin/gnu/h-x86_64-mingw32/bin/../lib/gcc/nios2-elf/4.9.1/../../../../../H-x86_64-mingw32/nios2-elf/lib/mhw-mulx\libc.a(lib_a-memchr.o)
 .debug_abbrev  0x0000000000004205       0x9c c:/develop/altera/15.0/nios2eds/bin/gnu/h-x86_64-mingw32/bin/../lib/gcc/nios2-elf/4.9.1/../../../../../H-x86_64-mingw32/nios2-elf/lib/mhw-mulx\libc.a(lib_a-memmove.o)
 .debug_abbrev  0x00000000000042a1      0x3c2 c:/develop/altera/15.0/nios2eds/bin/gnu/h-x86_64-mingw32/bin/../lib/gcc/nios2-elf/4.9.1/../../../../../H-x86_64-mingw32/nios2-elf/lib/mhw-mulx\libc.a(lib_a-mprec.o)
 .debug_abbrev  0x0000000000004663      0x269 c:/develop/altera/15.0/nios2eds/bin/gnu/h-x86_64-mingw32/bin/../lib/gcc/nios2-elf/4.9.1/../../../../../H-x86_64-mingw32/nios2-elf/lib/mhw-mulx\libc.a(lib_a-reallocr.o)
 .debug_abbrev  0x00000000000048cc       0x7e c:/develop/altera/15.0/nios2eds/bin/gnu/h-x86_64-mingw32/bin/../lib/gcc/nios2-elf/4.9.1/../../../../../H-x86_64-mingw32/nios2-elf/lib/mhw-mulx\libc.a(lib_a-s_fpclassify.o)
 .debug_abbrev  0x000000000000494a      0x246 c:/develop/altera/15.0/nios2eds/bin/gnu/h-x86_64-mingw32/bin/../lib/gcc/nios2-elf/4.9.1/../../../../../H-x86_64-mingw32/nios2-elf/lib/mhw-mulx\libc.a(lib_a-stdio.o)
 .debug_abbrev  0x0000000000004b90       0x74 c:/develop/altera/15.0/nios2eds/bin/gnu/h-x86_64-mingw32/bin/../lib/gcc/nios2-elf/4.9.1/../../../../../H-x86_64-mingw32/nios2-elf/lib/mhw-mulx\libc.a(lib_a-strcmp.o)
 .debug_abbrev  0x0000000000004c04      0x3f8 c:/develop/altera/15.0/nios2eds/bin/gnu/h-x86_64-mingw32/bin/../lib/gcc/nios2-elf/4.9.1/../../../../../H-x86_64-mingw32/nios2-elf/lib/mhw-mulx\libc.a(lib_a-vfiprintf.o)
 .debug_abbrev  0x0000000000004ffc      0x1de c:/develop/altera/15.0/nios2eds/bin/gnu/h-x86_64-mingw32/bin/../lib/gcc/nios2-elf/4.9.1/../../../../../H-x86_64-mingw32/nios2-elf/lib/mhw-mulx\libc.a(lib_a-writer.o)
 .debug_abbrev  0x00000000000051da      0x1d9 c:/develop/altera/15.0/nios2eds/bin/gnu/h-x86_64-mingw32/bin/../lib/gcc/nios2-elf/4.9.1/../../../../../H-x86_64-mingw32/nios2-elf/lib/mhw-mulx\libc.a(closer.o)
 .debug_abbrev  0x00000000000053b3      0x213 c:/develop/altera/15.0/nios2eds/bin/gnu/h-x86_64-mingw32/bin/../lib/gcc/nios2-elf/4.9.1/../../../../../H-x86_64-mingw32/nios2-elf/lib/mhw-mulx\libc.a(lib_a-callocr.o)
 .debug_abbrev  0x00000000000055c6      0x2a9 c:/develop/altera/15.0/nios2eds/bin/gnu/h-x86_64-mingw32/bin/../lib/gcc/nios2-elf/4.9.1/../../../../../H-x86_64-mingw32/nios2-elf/lib/mhw-mulx\libc.a(lib_a-fclose.o)
 .debug_abbrev  0x000000000000586f      0x289 c:/develop/altera/15.0/nios2eds/bin/gnu/h-x86_64-mingw32/bin/../lib/gcc/nios2-elf/4.9.1/../../../../../H-x86_64-mingw32/nios2-elf/lib/mhw-mulx\libc.a(lib_a-fputwc.o)
 .debug_abbrev  0x0000000000005af8      0x1e8 c:/develop/altera/15.0/nios2eds/bin/gnu/h-x86_64-mingw32/bin/../lib/gcc/nios2-elf/4.9.1/../../../../../H-x86_64-mingw32/nios2-elf/lib/mhw-mulx\libc.a(lib_a-fstatr.o)
 .debug_abbrev  0x0000000000005ce0      0x1d9 c:/develop/altera/15.0/nios2eds/bin/gnu/h-x86_64-mingw32/bin/../lib/gcc/nios2-elf/4.9.1/../../../../../H-x86_64-mingw32/nios2-elf/lib/mhw-mulx\libc.a(lib_a-isattyr.o)
 .debug_abbrev  0x0000000000005eb9      0x1e8 c:/develop/altera/15.0/nios2eds/bin/gnu/h-x86_64-mingw32/bin/../lib/gcc/nios2-elf/4.9.1/../../../../../H-x86_64-mingw32/nios2-elf/lib/mhw-mulx\libc.a(lib_a-lseekr.o)
 .debug_abbrev  0x00000000000060a1      0x1d9 c:/develop/altera/15.0/nios2eds/bin/gnu/h-x86_64-mingw32/bin/../lib/gcc/nios2-elf/4.9.1/../../../../../H-x86_64-mingw32/nios2-elf/lib/mhw-mulx\libc.a(lib_a-readr.o)
 .debug_abbrev  0x000000000000627a      0x238 c:/develop/altera/15.0/nios2eds/bin/gnu/h-x86_64-mingw32/bin/../lib/gcc/nios2-elf/4.9.1/../../../../../H-x86_64-mingw32/nios2-elf/lib/mhw-mulx\libc.a(lib_a-wbuf.o)
 .debug_abbrev  0x00000000000064b2      0x21c c:/develop/altera/15.0/nios2eds/bin/gnu/h-x86_64-mingw32/bin/../lib/gcc/nios2-elf/4.9.1/../../../../../H-x86_64-mingw32/nios2-elf/lib/mhw-mulx\libc.a(lib_a-wcrtomb.o)
 .debug_abbrev  0x00000000000066ce      0x212 c:/develop/altera/15.0/nios2eds/bin/gnu/h-x86_64-mingw32/bin/../lib/gcc/nios2-elf/4.9.1/../../../../../H-x86_64-mingw32/nios2-elf/lib/mhw-mulx\libc.a(lib_a-wctomb_r.o)
 .debug_abbrev  0x00000000000068e0      0x170 c:/develop/altera/15.0/nios2eds/bin/gnu/h-x86_64-mingw32/bin/../lib/gcc/nios2-elf/4.9.1/mhw-mulx\libgcc.a(_udivdi3.o)
 .debug_abbrev  0x0000000000006a50      0x193 c:/develop/altera/15.0/nios2eds/bin/gnu/h-x86_64-mingw32/bin/../lib/gcc/nios2-elf/4.9.1/mhw-mulx\libgcc.a(_umoddi3.o)
 .debug_abbrev  0x0000000000006be3       0xd9 c:/develop/altera/15.0/nios2eds/bin/gnu/h-x86_64-mingw32/bin/../lib/gcc/nios2-elf/4.9.1/mhw-mulx\libgcc.a(lib2-divmod.o)
 .debug_abbrev  0x0000000000006cbc      0x13a c:/develop/altera/15.0/nios2eds/bin/gnu/h-x86_64-mingw32/bin/../lib/gcc/nios2-elf/4.9.1/mhw-mulx\libgcc.a(adddf3.o)
 .debug_abbrev  0x0000000000006df6      0x120 c:/develop/altera/15.0/nios2eds/bin/gnu/h-x86_64-mingw32/bin/../lib/gcc/nios2-elf/4.9.1/mhw-mulx\libgcc.a(divdf3.o)
 .debug_abbrev  0x0000000000006f16      0x128 c:/develop/altera/15.0/nios2eds/bin/gnu/h-x86_64-mingw32/bin/../lib/gcc/nios2-elf/4.9.1/mhw-mulx\libgcc.a(eqdf2.o)
 .debug_abbrev  0x000000000000703e      0x137 c:/develop/altera/15.0/nios2eds/bin/gnu/h-x86_64-mingw32/bin/../lib/gcc/nios2-elf/4.9.1/mhw-mulx\libgcc.a(gedf2.o)
 .debug_abbrev  0x0000000000007175      0x137 c:/develop/altera/15.0/nios2eds/bin/gnu/h-x86_64-mingw32/bin/../lib/gcc/nios2-elf/4.9.1/mhw-mulx\libgcc.a(ledf2.o)
 .debug_abbrev  0x00000000000072ac      0x132 c:/develop/altera/15.0/nios2eds/bin/gnu/h-x86_64-mingw32/bin/../lib/gcc/nios2-elf/4.9.1/mhw-mulx\libgcc.a(muldf3.o)
 .debug_abbrev  0x00000000000073de      0x133 c:/develop/altera/15.0/nios2eds/bin/gnu/h-x86_64-mingw32/bin/../lib/gcc/nios2-elf/4.9.1/mhw-mulx\libgcc.a(subdf3.o)
 .debug_abbrev  0x0000000000007511      0x119 c:/develop/altera/15.0/nios2eds/bin/gnu/h-x86_64-mingw32/bin/../lib/gcc/nios2-elf/4.9.1/mhw-mulx\libgcc.a(fixdfsi.o)
 .debug_abbrev  0x000000000000762a      0x11e c:/develop/altera/15.0/nios2eds/bin/gnu/h-x86_64-mingw32/bin/../lib/gcc/nios2-elf/4.9.1/mhw-mulx\libgcc.a(floatsidf.o)
 .debug_abbrev  0x0000000000007748      0x117 c:/develop/altera/15.0/nios2eds/bin/gnu/h-x86_64-mingw32/bin/../lib/gcc/nios2-elf/4.9.1/mhw-mulx\libgcc.a(floatunsidf.o)
 .debug_abbrev  0x000000000000785f       0x5d c:/develop/altera/15.0/nios2eds/bin/gnu/h-x86_64-mingw32/bin/../lib/gcc/nios2-elf/4.9.1/mhw-mulx\libgcc.a(_clz.o)
 .debug_abbrev  0x00000000000078bc       0xbe c:/develop/altera/15.0/nios2eds/bin/gnu/h-x86_64-mingw32/bin/../lib/gcc/nios2-elf/4.9.1/mhw-mulx\libgcc.a(_clzsi2.o)
 .debug_abbrev  0x000000000000797a      0x187 ../cineraria_wavplay_bsp/\libhal_bsp.a(alt_alarm_start.o)
 .debug_abbrev  0x0000000000007b01      0x176 ../cineraria_wavplay_bsp/\libhal_bsp.a(alt_close.o)
 .debug_abbrev  0x0000000000007c77       0xd9 ../cineraria_wavplay_bsp/\libhal_bsp.a(alt_dev.o)
 .debug_abbrev  0x0000000000007d50       0x5a ../cineraria_wavplay_bsp/\libhal_bsp.a(alt_errno.o)
 .debug_abbrev  0x0000000000007daa      0x10f ../cineraria_wavplay_bsp/\libhal_bsp.a(alt_fs_reg.o)
 .debug_abbrev  0x0000000000007eb9      0x13f ../cineraria_wavplay_bsp/\libhal_bsp.a(alt_fstat.o)
 .debug_abbrev  0x0000000000007ff8      0x17d ../cineraria_wavplay_bsp/\libhal_bsp.a(alt_iic.o)
 .debug_abbrev  0x0000000000008175      0x1a6 ../cineraria_wavplay_bsp/\libhal_bsp.a(alt_iic_isr_register.o)
 .debug_abbrev  0x000000000000831b       0x12 ../cineraria_wavplay_bsp/\libhal_bsp.a(alt_irq_entry.o)
 .debug_abbrev  0x000000000000832d      0x12b ../cineraria_wavplay_bsp/\libhal_bsp.a(alt_irq_handler.o)
 .debug_abbrev  0x0000000000008458       0x40 ../cineraria_wavplay_bsp/\libhal_bsp.a(alt_irq_vars.o)
 .debug_abbrev  0x0000000000008498      0x151 ../cineraria_wavplay_bsp/\libhal_bsp.a(alt_isatty.o)
 .debug_abbrev  0x00000000000085e9      0x10f ../cineraria_wavplay_bsp/\libhal_bsp.a(alt_load.o)
 .debug_abbrev  0x00000000000086f8      0x13c ../cineraria_wavplay_bsp/\libhal_bsp.a(alt_lseek.o)
 .debug_abbrev  0x0000000000008834      0x14d ../cineraria_wavplay_bsp/\libhal_bsp.a(alt_main.o)
 .debug_abbrev  0x0000000000008981      0x1a5 ../cineraria_wavplay_bsp/\libhal_bsp.a(alt_malloc_lock.o)
 .debug_abbrev  0x0000000000008b26      0x15a ../cineraria_wavplay_bsp/\libhal_bsp.a(alt_read.o)
 .debug_abbrev  0x0000000000008c80       0xde ../cineraria_wavplay_bsp/\libhal_bsp.a(alt_release_fd.o)
 .debug_abbrev  0x0000000000008d5e      0x12a ../cineraria_wavplay_bsp/\libhal_bsp.a(alt_sbrk.o)
 .debug_abbrev  0x0000000000008e88      0x186 ../cineraria_wavplay_bsp/\libhal_bsp.a(alt_tick.o)
 .debug_abbrev  0x000000000000900e       0xa7 ../cineraria_wavplay_bsp/\libhal_bsp.a(alt_uncached_free.o)
 .debug_abbrev  0x00000000000090b5       0xed ../cineraria_wavplay_bsp/\libhal_bsp.a(alt_uncached_malloc.o)
 .debug_abbrev  0x00000000000091a2      0x15f ../cineraria_wavplay_bsp/\libhal_bsp.a(alt_write.o)
 .debug_abbrev  0x0000000000009301      0x211 ../cineraria_wavplay_bsp/\libhal_bsp.a(alt_sys_init.o)
 .debug_abbrev  0x0000000000009512      0x177 ../cineraria_wavplay_bsp/\libhal_bsp.a(altera_avalon_jtag_uart_fd.o)
 .debug_abbrev  0x0000000000009689      0x20b ../cineraria_wavplay_bsp/\libhal_bsp.a(altera_avalon_jtag_uart_init.o)
 .debug_abbrev  0x0000000000009894      0x120 ../cineraria_wavplay_bsp/\libhal_bsp.a(altera_avalon_jtag_uart_ioctl.o)
 .debug_abbrev  0x00000000000099b4      0x1d9 ../cineraria_wavplay_bsp/\libhal_bsp.a(altera_avalon_jtag_uart_read.o)
 .debug_abbrev  0x0000000000009b8d      0x1c6 ../cineraria_wavplay_bsp/\libhal_bsp.a(altera_avalon_jtag_uart_write.o)
 .debug_abbrev  0x0000000000009d53      0x1ad ../cineraria_wavplay_bsp/\libhal_bsp.a(altera_avalon_timer_sc.o)
 .debug_abbrev  0x0000000000009f00      0x2d5 ../cineraria_wavplay_bsp/\libhal_bsp.a(altera_epcq_controller.o)
 .debug_abbrev  0x000000000000a1d5       0x8d ../cineraria_wavplay_bsp/\libhal_bsp.a(alt_busy_sleep.o)
 .debug_abbrev  0x000000000000a262       0x9b ../cineraria_wavplay_bsp/\libhal_bsp.a(alt_dcache_flush.o)
 .debug_abbrev  0x000000000000a2fd       0x5a ../cineraria_wavplay_bsp/\libhal_bsp.a(alt_dcache_flush_all.o)
 .debug_abbrev  0x000000000000a357      0x11e ../cineraria_wavplay_bsp/\libhal_bsp.a(alt_dev_llist_insert.o)
 .debug_abbrev  0x000000000000a475       0x79 ../cineraria_wavplay_bsp/\libhal_bsp.a(alt_do_ctors.o)
 .debug_abbrev  0x000000000000a4ee       0x79 ../cineraria_wavplay_bsp/\libhal_bsp.a(alt_do_dtors.o)
 .debug_abbrev  0x000000000000a567       0x12 ../cineraria_wavplay_bsp/\libhal_bsp.a(alt_exception_entry.o)
 .debug_abbrev  0x000000000000a579      0x16a ../cineraria_wavplay_bsp/\libhal_bsp.a(alt_flash_dev.o)
 .debug_abbrev  0x000000000000a6e3       0x8a ../cineraria_wavplay_bsp/\libhal_bsp.a(alt_icache_flush_all.o)
 .debug_abbrev  0x000000000000a76d       0xcd ../cineraria_wavplay_bsp/\libhal_bsp.a(alt_instruction_exception_entry.o)
 .debug_abbrev  0x000000000000a83a      0x1df ../cineraria_wavplay_bsp/\libhal_bsp.a(alt_io_redirect.o)
 .debug_abbrev  0x000000000000aa19      0x1e8 ../cineraria_wavplay_bsp/\libhal_bsp.a(alt_open.o)
 .debug_abbrev  0x000000000000ac01       0x42 ../cineraria_wavplay_bsp/\libhal_bsp.a(altera_nios2_gen2_irq.o)
 .debug_abbrev  0x000000000000ac43      0x12e ../cineraria_wavplay_bsp/\libhal_bsp.a(alt_find_dev.o)
 .debug_abbrev  0x000000000000ad71      0x13f ../cineraria_wavplay_bsp/\libhal_bsp.a(alt_find_file.o)
 .debug_abbrev  0x000000000000aeb0      0x10d ../cineraria_wavplay_bsp/\libhal_bsp.a(alt_get_fd.o)
 .debug_abbrev  0x000000000000afbd       0x9b ../cineraria_wavplay_bsp/\libhal_bsp.a(alt_icache_flush.o)
 .debug_abbrev  0x000000000000b058       0xb8 c:/develop/altera/15.0/nios2eds/bin/gnu/h-x86_64-mingw32/bin/../lib/gcc/nios2-elf/4.9.1/../../../../../H-x86_64-mingw32/nios2-elf/lib/mhw-mulx\libc.a(lib_a-atexit.o)
 .debug_abbrev  0x000000000000b110      0x1e6 c:/develop/altera/15.0/nios2eds/bin/gnu/h-x86_64-mingw32/bin/../lib/gcc/nios2-elf/4.9.1/../../../../../H-x86_64-mingw32/nios2-elf/lib/mhw-mulx\libc.a(lib_a-exit.o)
 .debug_abbrev  0x000000000000b2f6      0x1cd c:/develop/altera/15.0/nios2eds/bin/gnu/h-x86_64-mingw32/bin/../lib/gcc/nios2-elf/4.9.1/../../../../../H-x86_64-mingw32/nios2-elf/lib/mhw-mulx\libc.a(lib_a-malign.o)
 .debug_abbrev  0x000000000000b4c3      0x229 c:/develop/altera/15.0/nios2eds/bin/gnu/h-x86_64-mingw32/bin/../lib/gcc/nios2-elf/4.9.1/../../../../../H-x86_64-mingw32/nios2-elf/lib/mhw-mulx\libc.a(lib_a-malignr.o)
 .debug_abbrev  0x000000000000b6ec       0x7f c:/develop/altera/15.0/nios2eds/bin/gnu/h-x86_64-mingw32/bin/../lib/gcc/nios2-elf/4.9.1/../../../../../H-x86_64-mingw32/nios2-elf/lib/mhw-mulx\libc.a(lib_a-memcmp.o)
 .debug_abbrev  0x000000000000b76b      0x21e c:/develop/altera/15.0/nios2eds/bin/gnu/h-x86_64-mingw32/bin/../lib/gcc/nios2-elf/4.9.1/../../../../../H-x86_64-mingw32/nios2-elf/lib/mhw-mulx\libc.a(lib_a-__atexit.o)
 .debug_abbrev  0x000000000000b989      0x210 c:/develop/altera/15.0/nios2eds/bin/gnu/h-x86_64-mingw32/bin/../lib/gcc/nios2-elf/4.9.1/../../../../../H-x86_64-mingw32/nios2-elf/lib/mhw-mulx\libc.a(lib_a-__call_atexit.o)
 .debug_abbrev  0x000000000000bb99       0xa4 ../cineraria_wavplay_bsp/\libhal_bsp.a(alt_exit.o)

.debug_line     0x0000000000000000     0xf891
 *(.debug_line)
 .debug_line    0x0000000000000000       0x5a ../cineraria_wavplay_bsp//obj/HAL/src/crt0.o
 .debug_line    0x000000000000005a      0x12d obj/default/disp7seg.o
 .debug_line    0x0000000000000187      0x198 obj/default/drawwave.o
 .debug_line    0x000000000000031f      0x158 obj/default/getfilename.o
 .debug_line    0x0000000000000477      0x19f obj/default/loadbmp.o
 .debug_line    0x0000000000000616     0x2011 obj/default/mmcfs/fatfs/ff.o
 .debug_line    0x0000000000002627      0x398 obj/default/mmcfs/fatfs/mmcbb.o
 .debug_line    0x00000000000029bf       0x9c obj/default/mmcfs/fatfs/option/cc932.o
 .debug_line    0x0000000000002a5b       0x5b obj/default/mmcfs/gettime.o
 .debug_line    0x0000000000002ab6      0x102 obj/default/mmcfs/mmc_spi.o
 .debug_line    0x0000000000002bb8      0x29b obj/default/mmcfs/mmcfs.o
 .debug_line    0x0000000000002e53      0x6f4 obj/default/nd_lib/nd_egl.o
 .debug_line    0x0000000000003547      0x21f obj/default/playwav.o
 .debug_line    0x0000000000003766      0x218 obj/default/wav_player.o
 .debug_line    0x000000000000397e      0x1e7 c:/develop/altera/15.0/nios2eds/bin/gnu/h-x86_64-mingw32/bin/../lib/gcc/nios2-elf/4.9.1/../../../../../H-x86_64-mingw32/nios2-elf/lib/mhw-mulx\libc.a(lib_a-malloc.o)
 .debug_line    0x0000000000003b65      0x400 c:/develop/altera/15.0/nios2eds/bin/gnu/h-x86_64-mingw32/bin/../lib/gcc/nios2-elf/4.9.1/../../../../../H-x86_64-mingw32/nios2-elf/lib/mhw-mulx\libc.a(lib_a-mallocr.o)
 .debug_line    0x0000000000003f65      0x187 c:/develop/altera/15.0/nios2eds/bin/gnu/h-x86_64-mingw32/bin/../lib/gcc/nios2-elf/4.9.1/../../../../../H-x86_64-mingw32/nios2-elf/lib/mhw-mulx\libc.a(lib_a-memcpy.o)
 .debug_line    0x00000000000040ec      0x191 c:/develop/altera/15.0/nios2eds/bin/gnu/h-x86_64-mingw32/bin/../lib/gcc/nios2-elf/4.9.1/../../../../../H-x86_64-mingw32/nios2-elf/lib/mhw-mulx\libc.a(lib_a-memset.o)
 .debug_line    0x000000000000427d      0x200 c:/develop/altera/15.0/nios2eds/bin/gnu/h-x86_64-mingw32/bin/../lib/gcc/nios2-elf/4.9.1/../../../../../H-x86_64-mingw32/nios2-elf/lib/mhw-mulx\libc.a(lib_a-printf.o)
 .debug_line    0x000000000000447d      0x226 c:/develop/altera/15.0/nios2eds/bin/gnu/h-x86_64-mingw32/bin/../lib/gcc/nios2-elf/4.9.1/../../../../../H-x86_64-mingw32/nios2-elf/lib/mhw-mulx\libc.a(lib_a-puts.o)
 .debug_line    0x00000000000046a3      0x1ec c:/develop/altera/15.0/nios2eds/bin/gnu/h-x86_64-mingw32/bin/../lib/gcc/nios2-elf/4.9.1/../../../../../H-x86_64-mingw32/nios2-elf/lib/mhw-mulx\libc.a(lib_a-sbrkr.o)
 .debug_line    0x000000000000488f       0xf6 c:/develop/altera/15.0/nios2eds/bin/gnu/h-x86_64-mingw32/bin/../lib/gcc/nios2-elf/4.9.1/../../../../../H-x86_64-mingw32/nios2-elf/lib/mhw-mulx\libc.a(lib_a-strcpy.o)
 .debug_line    0x0000000000004985      0x171 c:/develop/altera/15.0/nios2eds/bin/gnu/h-x86_64-mingw32/bin/../lib/gcc/nios2-elf/4.9.1/../../../../../H-x86_64-mingw32/nios2-elf/lib/mhw-mulx\libc.a(lib_a-strlen.o)
 .debug_line    0x0000000000004af6      0xacd c:/develop/altera/15.0/nios2eds/bin/gnu/h-x86_64-mingw32/bin/../lib/gcc/nios2-elf/4.9.1/../../../../../H-x86_64-mingw32/nios2-elf/lib/mhw-mulx\libc.a(lib_a-vfprintf.o)
 .debug_line    0x00000000000055c3      0x25b c:/develop/altera/15.0/nios2eds/bin/gnu/h-x86_64-mingw32/bin/../lib/gcc/nios2-elf/4.9.1/../../../../../H-x86_64-mingw32/nios2-elf/lib/mhw-mulx\libc.a(lib_a-wsetup.o)
 .debug_line    0x000000000000581e      0x7ee c:/develop/altera/15.0/nios2eds/bin/gnu/h-x86_64-mingw32/bin/../lib/gcc/nios2-elf/4.9.1/../../../../../H-x86_64-mingw32/nios2-elf/lib/mhw-mulx\libc.a(lib_a-dtoa.o)
 .debug_line    0x000000000000600c      0x2c0 c:/develop/altera/15.0/nios2eds/bin/gnu/h-x86_64-mingw32/bin/../lib/gcc/nios2-elf/4.9.1/../../../../../H-x86_64-mingw32/nios2-elf/lib/mhw-mulx\libc.a(lib_a-fflush.o)
 .debug_line    0x00000000000062cc      0x307 c:/develop/altera/15.0/nios2eds/bin/gnu/h-x86_64-mingw32/bin/../lib/gcc/nios2-elf/4.9.1/../../../../../H-x86_64-mingw32/nios2-elf/lib/mhw-mulx\libc.a(lib_a-findfp.o)
 .debug_line    0x00000000000065d3      0x2e7 c:/develop/altera/15.0/nios2eds/bin/gnu/h-x86_64-mingw32/bin/../lib/gcc/nios2-elf/4.9.1/../../../../../H-x86_64-mingw32/nios2-elf/lib/mhw-mulx\libc.a(lib_a-freer.o)
 .debug_line    0x00000000000068ba      0x35a c:/develop/altera/15.0/nios2eds/bin/gnu/h-x86_64-mingw32/bin/../lib/gcc/nios2-elf/4.9.1/../../../../../H-x86_64-mingw32/nios2-elf/lib/mhw-mulx\libc.a(lib_a-fvwrite.o)
 .debug_line    0x0000000000006c14      0x22b c:/develop/altera/15.0/nios2eds/bin/gnu/h-x86_64-mingw32/bin/../lib/gcc/nios2-elf/4.9.1/../../../../../H-x86_64-mingw32/nios2-elf/lib/mhw-mulx\libc.a(lib_a-fwalk.o)
 .debug_line    0x0000000000006e3f      0x162 c:/develop/altera/15.0/nios2eds/bin/gnu/h-x86_64-mingw32/bin/../lib/gcc/nios2-elf/4.9.1/../../../../../H-x86_64-mingw32/nios2-elf/lib/mhw-mulx\libc.a(lib_a-impure.o)
 .debug_line    0x0000000000006fa1       0x60 c:/develop/altera/15.0/nios2eds/bin/gnu/h-x86_64-mingw32/bin/../lib/gcc/nios2-elf/4.9.1/../../../../../H-x86_64-mingw32/nios2-elf/lib/mhw-mulx\libc.a(lib_a-int_errno.o)
 .debug_line    0x0000000000007001      0x230 c:/develop/altera/15.0/nios2eds/bin/gnu/h-x86_64-mingw32/bin/../lib/gcc/nios2-elf/4.9.1/../../../../../H-x86_64-mingw32/nios2-elf/lib/mhw-mulx\libc.a(lib_a-locale.o)
 .debug_line    0x0000000000007231      0x277 c:/develop/altera/15.0/nios2eds/bin/gnu/h-x86_64-mingw32/bin/../lib/gcc/nios2-elf/4.9.1/../../../../../H-x86_64-mingw32/nios2-elf/lib/mhw-mulx\libc.a(lib_a-makebuf.o)
 .debug_line    0x00000000000074a8      0x190 c:/develop/altera/15.0/nios2eds/bin/gnu/h-x86_64-mingw32/bin/../lib/gcc/nios2-elf/4.9.1/../../../../../H-x86_64-mingw32/nios2-elf/lib/mhw-mulx\libc.a(lib_a-memchr.o)
 .debug_line    0x0000000000007638      0x18e c:/develop/altera/15.0/nios2eds/bin/gnu/h-x86_64-mingw32/bin/../lib/gcc/nios2-elf/4.9.1/../../../../../H-x86_64-mingw32/nios2-elf/lib/mhw-mulx\libc.a(lib_a-memmove.o)
 .debug_line    0x00000000000077c6      0x69b c:/develop/altera/15.0/nios2eds/bin/gnu/h-x86_64-mingw32/bin/../lib/gcc/nios2-elf/4.9.1/../../../../../H-x86_64-mingw32/nios2-elf/lib/mhw-mulx\libc.a(lib_a-mprec.o)
 .debug_line    0x0000000000007e61      0x2ff c:/develop/altera/15.0/nios2eds/bin/gnu/h-x86_64-mingw32/bin/../lib/gcc/nios2-elf/4.9.1/../../../../../H-x86_64-mingw32/nios2-elf/lib/mhw-mulx\libc.a(lib_a-reallocr.o)
 .debug_line    0x0000000000008160      0x17e c:/develop/altera/15.0/nios2eds/bin/gnu/h-x86_64-mingw32/bin/../lib/gcc/nios2-elf/4.9.1/../../../../../H-x86_64-mingw32/nios2-elf/lib/mhw-mulx\libc.a(lib_a-s_fpclassify.o)
 .debug_line    0x00000000000082de      0x22a c:/develop/altera/15.0/nios2eds/bin/gnu/h-x86_64-mingw32/bin/../lib/gcc/nios2-elf/4.9.1/../../../../../H-x86_64-mingw32/nios2-elf/lib/mhw-mulx\libc.a(lib_a-stdio.o)
 .debug_line    0x0000000000008508       0xf9 c:/develop/altera/15.0/nios2eds/bin/gnu/h-x86_64-mingw32/bin/../lib/gcc/nios2-elf/4.9.1/../../../../../H-x86_64-mingw32/nios2-elf/lib/mhw-mulx\libc.a(lib_a-strcmp.o)
 .debug_line    0x0000000000008601      0x7c1 c:/develop/altera/15.0/nios2eds/bin/gnu/h-x86_64-mingw32/bin/../lib/gcc/nios2-elf/4.9.1/../../../../../H-x86_64-mingw32/nios2-elf/lib/mhw-mulx\libc.a(lib_a-vfiprintf.o)
 .debug_line    0x0000000000008dc2      0x1f9 c:/develop/altera/15.0/nios2eds/bin/gnu/h-x86_64-mingw32/bin/../lib/gcc/nios2-elf/4.9.1/../../../../../H-x86_64-mingw32/nios2-elf/lib/mhw-mulx\libc.a(lib_a-writer.o)
 .debug_line    0x0000000000008fbb      0x1f9 c:/develop/altera/15.0/nios2eds/bin/gnu/h-x86_64-mingw32/bin/../lib/gcc/nios2-elf/4.9.1/../../../../../H-x86_64-mingw32/nios2-elf/lib/mhw-mulx\libc.a(closer.o)
 .debug_line    0x00000000000091b4      0x1b9 c:/develop/altera/15.0/nios2eds/bin/gnu/h-x86_64-mingw32/bin/../lib/gcc/nios2-elf/4.9.1/../../../../../H-x86_64-mingw32/nios2-elf/lib/mhw-mulx\libc.a(lib_a-callocr.o)
 .debug_line    0x000000000000936d      0x22c c:/develop/altera/15.0/nios2eds/bin/gnu/h-x86_64-mingw32/bin/../lib/gcc/nios2-elf/4.9.1/../../../../../H-x86_64-mingw32/nios2-elf/lib/mhw-mulx\libc.a(lib_a-fclose.o)
 .debug_line    0x0000000000009599      0x254 c:/develop/altera/15.0/nios2eds/bin/gnu/h-x86_64-mingw32/bin/../lib/gcc/nios2-elf/4.9.1/../../../../../H-x86_64-mingw32/nios2-elf/lib/mhw-mulx\libc.a(lib_a-fputwc.o)
 .debug_line    0x00000000000097ed      0x202 c:/develop/altera/15.0/nios2eds/bin/gnu/h-x86_64-mingw32/bin/../lib/gcc/nios2-elf/4.9.1/../../../../../H-x86_64-mingw32/nios2-elf/lib/mhw-mulx\libc.a(lib_a-fstatr.o)
 .debug_line    0x00000000000099ef      0x1fa c:/develop/altera/15.0/nios2eds/bin/gnu/h-x86_64-mingw32/bin/../lib/gcc/nios2-elf/4.9.1/../../../../../H-x86_64-mingw32/nios2-elf/lib/mhw-mulx\libc.a(lib_a-isattyr.o)
 .debug_line    0x0000000000009be9      0x204 c:/develop/altera/15.0/nios2eds/bin/gnu/h-x86_64-mingw32/bin/../lib/gcc/nios2-elf/4.9.1/../../../../../H-x86_64-mingw32/nios2-elf/lib/mhw-mulx\libc.a(lib_a-lseekr.o)
 .debug_line    0x0000000000009ded      0x1f8 c:/develop/altera/15.0/nios2eds/bin/gnu/h-x86_64-mingw32/bin/../lib/gcc/nios2-elf/4.9.1/../../../../../H-x86_64-mingw32/nios2-elf/lib/mhw-mulx\libc.a(lib_a-readr.o)
 .debug_line    0x0000000000009fe5      0x273 c:/develop/altera/15.0/nios2eds/bin/gnu/h-x86_64-mingw32/bin/../lib/gcc/nios2-elf/4.9.1/../../../../../H-x86_64-mingw32/nios2-elf/lib/mhw-mulx\libc.a(lib_a-wbuf.o)
 .debug_line    0x000000000000a258      0x21c c:/develop/altera/15.0/nios2eds/bin/gnu/h-x86_64-mingw32/bin/../lib/gcc/nios2-elf/4.9.1/../../../../../H-x86_64-mingw32/nios2-elf/lib/mhw-mulx\libc.a(lib_a-wcrtomb.o)
 .debug_line    0x000000000000a474      0x211 c:/develop/altera/15.0/nios2eds/bin/gnu/h-x86_64-mingw32/bin/../lib/gcc/nios2-elf/4.9.1/../../../../../H-x86_64-mingw32/nios2-elf/lib/mhw-mulx\libc.a(lib_a-wctomb_r.o)
 .debug_line    0x000000000000a685      0x13a c:/develop/altera/15.0/nios2eds/bin/gnu/h-x86_64-mingw32/bin/../lib/gcc/nios2-elf/4.9.1/mhw-mulx\libgcc.a(_udivdi3.o)
 .debug_line    0x000000000000a7bf      0x14b c:/develop/altera/15.0/nios2eds/bin/gnu/h-x86_64-mingw32/bin/../lib/gcc/nios2-elf/4.9.1/mhw-mulx\libgcc.a(_umoddi3.o)
 .debug_line    0x000000000000a90a       0xc7 c:/develop/altera/15.0/nios2eds/bin/gnu/h-x86_64-mingw32/bin/../lib/gcc/nios2-elf/4.9.1/mhw-mulx\libgcc.a(lib2-divmod.o)
 .debug_line    0x000000000000a9d1      0x386 c:/develop/altera/15.0/nios2eds/bin/gnu/h-x86_64-mingw32/bin/../lib/gcc/nios2-elf/4.9.1/mhw-mulx\libgcc.a(adddf3.o)
 .debug_line    0x000000000000ad57      0x2a6 c:/develop/altera/15.0/nios2eds/bin/gnu/h-x86_64-mingw32/bin/../lib/gcc/nios2-elf/4.9.1/mhw-mulx\libgcc.a(divdf3.o)
 .debug_line    0x000000000000affd       0xae c:/develop/altera/15.0/nios2eds/bin/gnu/h-x86_64-mingw32/bin/../lib/gcc/nios2-elf/4.9.1/mhw-mulx\libgcc.a(eqdf2.o)
 .debug_line    0x000000000000b0ab       0xce c:/develop/altera/15.0/nios2eds/bin/gnu/h-x86_64-mingw32/bin/../lib/gcc/nios2-elf/4.9.1/mhw-mulx\libgcc.a(gedf2.o)
 .debug_line    0x000000000000b179       0xcd c:/develop/altera/15.0/nios2eds/bin/gnu/h-x86_64-mingw32/bin/../lib/gcc/nios2-elf/4.9.1/mhw-mulx\libgcc.a(ledf2.o)
 .debug_line    0x000000000000b246      0x1de c:/develop/altera/15.0/nios2eds/bin/gnu/h-x86_64-mingw32/bin/../lib/gcc/nios2-elf/4.9.1/mhw-mulx\libgcc.a(muldf3.o)
 .debug_line    0x000000000000b424      0x3a1 c:/develop/altera/15.0/nios2eds/bin/gnu/h-x86_64-mingw32/bin/../lib/gcc/nios2-elf/4.9.1/mhw-mulx\libgcc.a(subdf3.o)
 .debug_line    0x000000000000b7c5       0x9c c:/develop/altera/15.0/nios2eds/bin/gnu/h-x86_64-mingw32/bin/../lib/gcc/nios2-elf/4.9.1/mhw-mulx\libgcc.a(fixdfsi.o)
 .debug_line    0x000000000000b861       0xa0 c:/develop/altera/15.0/nios2eds/bin/gnu/h-x86_64-mingw32/bin/../lib/gcc/nios2-elf/4.9.1/mhw-mulx\libgcc.a(floatsidf.o)
 .debug_line    0x000000000000b901       0x96 c:/develop/altera/15.0/nios2eds/bin/gnu/h-x86_64-mingw32/bin/../lib/gcc/nios2-elf/4.9.1/mhw-mulx\libgcc.a(floatunsidf.o)
 .debug_line    0x000000000000b997       0x56 c:/develop/altera/15.0/nios2eds/bin/gnu/h-x86_64-mingw32/bin/../lib/gcc/nios2-elf/4.9.1/mhw-mulx\libgcc.a(_clz.o)
 .debug_line    0x000000000000b9ed       0xba c:/develop/altera/15.0/nios2eds/bin/gnu/h-x86_64-mingw32/bin/../lib/gcc/nios2-elf/4.9.1/mhw-mulx\libgcc.a(_clzsi2.o)
 .debug_line    0x000000000000baa7       0xeb ../cineraria_wavplay_bsp/\libhal_bsp.a(alt_alarm_start.o)
 .debug_line    0x000000000000bb92      0x15f ../cineraria_wavplay_bsp/\libhal_bsp.a(alt_close.o)
 .debug_line    0x000000000000bcf1       0xf6 ../cineraria_wavplay_bsp/\libhal_bsp.a(alt_dev.o)
 .debug_line    0x000000000000bde7       0x51 ../cineraria_wavplay_bsp/\libhal_bsp.a(alt_errno.o)
 .debug_line    0x000000000000be38       0xc4 ../cineraria_wavplay_bsp/\libhal_bsp.a(alt_fs_reg.o)
 .debug_line    0x000000000000befc      0x157 ../cineraria_wavplay_bsp/\libhal_bsp.a(alt_fstat.o)
 .debug_line    0x000000000000c053       0xf1 ../cineraria_wavplay_bsp/\libhal_bsp.a(alt_iic.o)
 .debug_line    0x000000000000c144       0xd8 ../cineraria_wavplay_bsp/\libhal_bsp.a(alt_iic_isr_register.o)
 .debug_line    0x000000000000c21c       0x6b ../cineraria_wavplay_bsp/\libhal_bsp.a(alt_irq_entry.o)
 .debug_line    0x000000000000c287       0xab ../cineraria_wavplay_bsp/\libhal_bsp.a(alt_irq_handler.o)
 .debug_line    0x000000000000c332       0x50 ../cineraria_wavplay_bsp/\libhal_bsp.a(alt_irq_vars.o)
 .debug_line    0x000000000000c382      0x14c ../cineraria_wavplay_bsp/\libhal_bsp.a(alt_isatty.o)
 .debug_line    0x000000000000c4ce       0xa9 ../cineraria_wavplay_bsp/\libhal_bsp.a(alt_load.o)
 .debug_line    0x000000000000c577      0x14d ../cineraria_wavplay_bsp/\libhal_bsp.a(alt_lseek.o)
 .debug_line    0x000000000000c6c4      0x179 ../cineraria_wavplay_bsp/\libhal_bsp.a(alt_main.o)
 .debug_line    0x000000000000c83d      0x11f ../cineraria_wavplay_bsp/\libhal_bsp.a(alt_malloc_lock.o)
 .debug_line    0x000000000000c95c      0x1db ../cineraria_wavplay_bsp/\libhal_bsp.a(alt_read.o)
 .debug_line    0x000000000000cb37       0xac ../cineraria_wavplay_bsp/\libhal_bsp.a(alt_release_fd.o)
 .debug_line    0x000000000000cbe3       0xf1 ../cineraria_wavplay_bsp/\libhal_bsp.a(alt_sbrk.o)
 .debug_line    0x000000000000ccd4      0x121 ../cineraria_wavplay_bsp/\libhal_bsp.a(alt_tick.o)
 .debug_line    0x000000000000cdf5       0xc2 ../cineraria_wavplay_bsp/\libhal_bsp.a(alt_uncached_free.o)
 .debug_line    0x000000000000ceb7      0x15b ../cineraria_wavplay_bsp/\libhal_bsp.a(alt_uncached_malloc.o)
 .debug_line    0x000000000000d012      0x1d3 ../cineraria_wavplay_bsp/\libhal_bsp.a(alt_write.o)
 .debug_line    0x000000000000d1e5      0x1b4 ../cineraria_wavplay_bsp/\libhal_bsp.a(alt_sys_init.o)
 .debug_line    0x000000000000d399      0x122 ../cineraria_wavplay_bsp/\libhal_bsp.a(altera_avalon_jtag_uart_fd.o)
 .debug_line    0x000000000000d4bb      0x1aa ../cineraria_wavplay_bsp/\libhal_bsp.a(altera_avalon_jtag_uart_init.o)
 .debug_line    0x000000000000d665      0x114 ../cineraria_wavplay_bsp/\libhal_bsp.a(altera_avalon_jtag_uart_ioctl.o)
 .debug_line    0x000000000000d779      0x173 ../cineraria_wavplay_bsp/\libhal_bsp.a(altera_avalon_jtag_uart_read.o)
 .debug_line    0x000000000000d8ec      0x1a3 ../cineraria_wavplay_bsp/\libhal_bsp.a(altera_avalon_jtag_uart_write.o)
 .debug_line    0x000000000000da8f       0xfe ../cineraria_wavplay_bsp/\libhal_bsp.a(altera_avalon_timer_sc.o)
 .debug_line    0x000000000000db8d      0x2f4 ../cineraria_wavplay_bsp/\libhal_bsp.a(altera_epcq_controller.o)
 .debug_line    0x000000000000de81       0xb4 ../cineraria_wavplay_bsp/\libhal_bsp.a(alt_busy_sleep.o)
 .debug_line    0x000000000000df35       0x74 ../cineraria_wavplay_bsp/\libhal_bsp.a(alt_dcache_flush.o)
 .debug_line    0x000000000000dfa9       0x5a ../cineraria_wavplay_bsp/\libhal_bsp.a(alt_dcache_flush_all.o)
 .debug_line    0x000000000000e003       0xe1 ../cineraria_wavplay_bsp/\libhal_bsp.a(alt_dev_llist_insert.o)
 .debug_line    0x000000000000e0e4       0x5f ../cineraria_wavplay_bsp/\libhal_bsp.a(alt_do_ctors.o)
 .debug_line    0x000000000000e143       0x5f ../cineraria_wavplay_bsp/\libhal_bsp.a(alt_do_dtors.o)
 .debug_line    0x000000000000e1a2       0xb3 ../cineraria_wavplay_bsp/\libhal_bsp.a(alt_exception_entry.o)
 .debug_line    0x000000000000e255       0xea ../cineraria_wavplay_bsp/\libhal_bsp.a(alt_flash_dev.o)
 .debug_line    0x000000000000e33f       0x87 ../cineraria_wavplay_bsp/\libhal_bsp.a(alt_icache_flush_all.o)
 .debug_line    0x000000000000e3c6       0xc7 ../cineraria_wavplay_bsp/\libhal_bsp.a(alt_instruction_exception_entry.o)
 .debug_line    0x000000000000e48d      0x164 ../cineraria_wavplay_bsp/\libhal_bsp.a(alt_io_redirect.o)
 .debug_line    0x000000000000e5f1      0x112 ../cineraria_wavplay_bsp/\libhal_bsp.a(alt_open.o)
 .debug_line    0x000000000000e703       0x50 ../cineraria_wavplay_bsp/\libhal_bsp.a(altera_nios2_gen2_irq.o)
 .debug_line    0x000000000000e753      0x173 ../cineraria_wavplay_bsp/\libhal_bsp.a(alt_find_dev.o)
 .debug_line    0x000000000000e8c6      0x18c ../cineraria_wavplay_bsp/\libhal_bsp.a(alt_find_file.o)
 .debug_line    0x000000000000ea52       0xcc ../cineraria_wavplay_bsp/\libhal_bsp.a(alt_get_fd.o)
 .debug_line    0x000000000000eb1e       0x77 ../cineraria_wavplay_bsp/\libhal_bsp.a(alt_icache_flush.o)
 .debug_line    0x000000000000eb95       0xe9 c:/develop/altera/15.0/nios2eds/bin/gnu/h-x86_64-mingw32/bin/../lib/gcc/nios2-elf/4.9.1/../../../../../H-x86_64-mingw32/nios2-elf/lib/mhw-mulx\libc.a(lib_a-atexit.o)
 .debug_line    0x000000000000ec7e      0x1fd c:/develop/altera/15.0/nios2eds/bin/gnu/h-x86_64-mingw32/bin/../lib/gcc/nios2-elf/4.9.1/../../../../../H-x86_64-mingw32/nios2-elf/lib/mhw-mulx\libc.a(lib_a-exit.o)
 .debug_line    0x000000000000ee7b      0x1e6 c:/develop/altera/15.0/nios2eds/bin/gnu/h-x86_64-mingw32/bin/../lib/gcc/nios2-elf/4.9.1/../../../../../H-x86_64-mingw32/nios2-elf/lib/mhw-mulx\libc.a(lib_a-malign.o)
 .debug_line    0x000000000000f061      0x1dc c:/develop/altera/15.0/nios2eds/bin/gnu/h-x86_64-mingw32/bin/../lib/gcc/nios2-elf/4.9.1/../../../../../H-x86_64-mingw32/nios2-elf/lib/mhw-mulx\libc.a(lib_a-malignr.o)
 .debug_line    0x000000000000f23d      0x178 c:/develop/altera/15.0/nios2eds/bin/gnu/h-x86_64-mingw32/bin/../lib/gcc/nios2-elf/4.9.1/../../../../../H-x86_64-mingw32/nios2-elf/lib/mhw-mulx\libc.a(lib_a-memcmp.o)
 .debug_line    0x000000000000f3b5      0x227 c:/develop/altera/15.0/nios2eds/bin/gnu/h-x86_64-mingw32/bin/../lib/gcc/nios2-elf/4.9.1/../../../../../H-x86_64-mingw32/nios2-elf/lib/mhw-mulx\libc.a(lib_a-__atexit.o)
 .debug_line    0x000000000000f5dc      0x244 c:/develop/altera/15.0/nios2eds/bin/gnu/h-x86_64-mingw32/bin/../lib/gcc/nios2-elf/4.9.1/../../../../../H-x86_64-mingw32/nios2-elf/lib/mhw-mulx\libc.a(lib_a-__call_atexit.o)
 .debug_line    0x000000000000f820       0x71 ../cineraria_wavplay_bsp/\libhal_bsp.a(alt_exit.o)

.debug_frame    0x0000000000000000     0x30fc
 *(.debug_frame)
 .debug_frame   0x0000000000000000       0x40 obj/default/disp7seg.o
 .debug_frame   0x0000000000000040       0x58 obj/default/drawwave.o
 .debug_frame   0x0000000000000098       0x64 obj/default/getfilename.o
 .debug_frame   0x00000000000000fc       0x58 obj/default/loadbmp.o
 .debug_frame   0x0000000000000154      0x844 obj/default/mmcfs/fatfs/ff.o
 .debug_frame   0x0000000000000998      0x13c obj/default/mmcfs/fatfs/mmcbb.o
 .debug_frame   0x0000000000000ad4       0x30 obj/default/mmcfs/fatfs/option/cc932.o
 .debug_frame   0x0000000000000b04       0x20 obj/default/mmcfs/gettime.o
 .debug_frame   0x0000000000000b24       0xe0 obj/default/mmcfs/mmc_spi.o
 .debug_frame   0x0000000000000c04      0x104 obj/default/mmcfs/mmcfs.o
 .debug_frame   0x0000000000000d08      0x3f8 obj/default/nd_lib/nd_egl.o
 .debug_frame   0x0000000000001100       0xe4 obj/default/playwav.o
 .debug_frame   0x00000000000011e4       0x48 obj/default/wav_player.o
 .debug_frame   0x000000000000122c       0x30 c:/develop/altera/15.0/nios2eds/bin/gnu/h-x86_64-mingw32/bin/../lib/gcc/nios2-elf/4.9.1/../../../../../H-x86_64-mingw32/nios2-elf/lib/mhw-mulx\libc.a(lib_a-malloc.o)
 .debug_frame   0x000000000000125c       0x54 c:/develop/altera/15.0/nios2eds/bin/gnu/h-x86_64-mingw32/bin/../lib/gcc/nios2-elf/4.9.1/../../../../../H-x86_64-mingw32/nios2-elf/lib/mhw-mulx\libc.a(lib_a-mallocr.o)
 .debug_frame   0x00000000000012b0       0x30 c:/develop/altera/15.0/nios2eds/bin/gnu/h-x86_64-mingw32/bin/../lib/gcc/nios2-elf/4.9.1/../../../../../H-x86_64-mingw32/nios2-elf/lib/mhw-mulx\libc.a(lib_a-memcpy.o)
 .debug_frame   0x00000000000012e0       0x20 c:/develop/altera/15.0/nios2eds/bin/gnu/h-x86_64-mingw32/bin/../lib/gcc/nios2-elf/4.9.1/../../../../../H-x86_64-mingw32/nios2-elf/lib/mhw-mulx\libc.a(lib_a-memset.o)
 .debug_frame   0x0000000000001300       0x48 c:/develop/altera/15.0/nios2eds/bin/gnu/h-x86_64-mingw32/bin/../lib/gcc/nios2-elf/4.9.1/../../../../../H-x86_64-mingw32/nios2-elf/lib/mhw-mulx\libc.a(lib_a-printf.o)
 .debug_frame   0x0000000000001348       0x48 c:/develop/altera/15.0/nios2eds/bin/gnu/h-x86_64-mingw32/bin/../lib/gcc/nios2-elf/4.9.1/../../../../../H-x86_64-mingw32/nios2-elf/lib/mhw-mulx\libc.a(lib_a-puts.o)
 .debug_frame   0x0000000000001390       0x38 c:/develop/altera/15.0/nios2eds/bin/gnu/h-x86_64-mingw32/bin/../lib/gcc/nios2-elf/4.9.1/../../../../../H-x86_64-mingw32/nios2-elf/lib/mhw-mulx\libc.a(lib_a-sbrkr.o)
 .debug_frame   0x00000000000013c8       0x20 c:/develop/altera/15.0/nios2eds/bin/gnu/h-x86_64-mingw32/bin/../lib/gcc/nios2-elf/4.9.1/../../../../../H-x86_64-mingw32/nios2-elf/lib/mhw-mulx\libc.a(lib_a-strcpy.o)
 .debug_frame   0x00000000000013e8       0x20 c:/develop/altera/15.0/nios2eds/bin/gnu/h-x86_64-mingw32/bin/../lib/gcc/nios2-elf/4.9.1/../../../../../H-x86_64-mingw32/nios2-elf/lib/mhw-mulx\libc.a(lib_a-strlen.o)
 .debug_frame   0x0000000000001408       0x68 c:/develop/altera/15.0/nios2eds/bin/gnu/h-x86_64-mingw32/bin/../lib/gcc/nios2-elf/4.9.1/../../../../../H-x86_64-mingw32/nios2-elf/lib/mhw-mulx\libc.a(lib_a-vfprintf.o)
 .debug_frame   0x0000000000001470       0x38 c:/develop/altera/15.0/nios2eds/bin/gnu/h-x86_64-mingw32/bin/../lib/gcc/nios2-elf/4.9.1/../../../../../H-x86_64-mingw32/nios2-elf/lib/mhw-mulx\libc.a(lib_a-wsetup.o)
 .debug_frame   0x00000000000014a8       0x98 c:/develop/altera/15.0/nios2eds/bin/gnu/h-x86_64-mingw32/bin/../lib/gcc/nios2-elf/4.9.1/../../../../../H-x86_64-mingw32/nios2-elf/lib/mhw-mulx\libc.a(lib_a-dtoa.o)
 .debug_frame   0x0000000000001540       0x50 c:/develop/altera/15.0/nios2eds/bin/gnu/h-x86_64-mingw32/bin/../lib/gcc/nios2-elf/4.9.1/../../../../../H-x86_64-mingw32/nios2-elf/lib/mhw-mulx\libc.a(lib_a-fflush.o)
 .debug_frame   0x0000000000001590      0x160 c:/develop/altera/15.0/nios2eds/bin/gnu/h-x86_64-mingw32/bin/../lib/gcc/nios2-elf/4.9.1/../../../../../H-x86_64-mingw32/nios2-elf/lib/mhw-mulx\libc.a(lib_a-findfp.o)
 .debug_frame   0x00000000000016f0       0x70 c:/develop/altera/15.0/nios2eds/bin/gnu/h-x86_64-mingw32/bin/../lib/gcc/nios2-elf/4.9.1/../../../../../H-x86_64-mingw32/nios2-elf/lib/mhw-mulx\libc.a(lib_a-freer.o)
 .debug_frame   0x0000000000001760       0x78 c:/develop/altera/15.0/nios2eds/bin/gnu/h-x86_64-mingw32/bin/../lib/gcc/nios2-elf/4.9.1/../../../../../H-x86_64-mingw32/nios2-elf/lib/mhw-mulx\libc.a(lib_a-fvwrite.o)
 .debug_frame   0x00000000000017d8       0x88 c:/develop/altera/15.0/nios2eds/bin/gnu/h-x86_64-mingw32/bin/../lib/gcc/nios2-elf/4.9.1/../../../../../H-x86_64-mingw32/nios2-elf/lib/mhw-mulx\libc.a(lib_a-fwalk.o)
 .debug_frame   0x0000000000001860       0xa8 c:/develop/altera/15.0/nios2eds/bin/gnu/h-x86_64-mingw32/bin/../lib/gcc/nios2-elf/4.9.1/../../../../../H-x86_64-mingw32/nios2-elf/lib/mhw-mulx\libc.a(lib_a-locale.o)
 .debug_frame   0x0000000000001908       0x4c c:/develop/altera/15.0/nios2eds/bin/gnu/h-x86_64-mingw32/bin/../lib/gcc/nios2-elf/4.9.1/../../../../../H-x86_64-mingw32/nios2-elf/lib/mhw-mulx\libc.a(lib_a-makebuf.o)
 .debug_frame   0x0000000000001954       0x20 c:/develop/altera/15.0/nios2eds/bin/gnu/h-x86_64-mingw32/bin/../lib/gcc/nios2-elf/4.9.1/../../../../../H-x86_64-mingw32/nios2-elf/lib/mhw-mulx\libc.a(lib_a-memchr.o)
 .debug_frame   0x0000000000001974       0x20 c:/develop/altera/15.0/nios2eds/bin/gnu/h-x86_64-mingw32/bin/../lib/gcc/nios2-elf/4.9.1/../../../../../H-x86_64-mingw32/nios2-elf/lib/mhw-mulx\libc.a(lib_a-memmove.o)
 .debug_frame   0x0000000000001994      0x2e8 c:/develop/altera/15.0/nios2eds/bin/gnu/h-x86_64-mingw32/bin/../lib/gcc/nios2-elf/4.9.1/../../../../../H-x86_64-mingw32/nios2-elf/lib/mhw-mulx\libc.a(lib_a-mprec.o)
 .debug_frame   0x0000000000001c7c       0x70 c:/develop/altera/15.0/nios2eds/bin/gnu/h-x86_64-mingw32/bin/../lib/gcc/nios2-elf/4.9.1/../../../../../H-x86_64-mingw32/nios2-elf/lib/mhw-mulx\libc.a(lib_a-reallocr.o)
 .debug_frame   0x0000000000001cec       0x20 c:/develop/altera/15.0/nios2eds/bin/gnu/h-x86_64-mingw32/bin/../lib/gcc/nios2-elf/4.9.1/../../../../../H-x86_64-mingw32/nios2-elf/lib/mhw-mulx\libc.a(lib_a-s_fpclassify.o)
 .debug_frame   0x0000000000001d0c       0xb4 c:/develop/altera/15.0/nios2eds/bin/gnu/h-x86_64-mingw32/bin/../lib/gcc/nios2-elf/4.9.1/../../../../../H-x86_64-mingw32/nios2-elf/lib/mhw-mulx\libc.a(lib_a-stdio.o)
 .debug_frame   0x0000000000001dc0       0x20 c:/develop/altera/15.0/nios2eds/bin/gnu/h-x86_64-mingw32/bin/../lib/gcc/nios2-elf/4.9.1/../../../../../H-x86_64-mingw32/nios2-elf/lib/mhw-mulx\libc.a(lib_a-strcmp.o)
 .debug_frame   0x0000000000001de0       0xbc c:/develop/altera/15.0/nios2eds/bin/gnu/h-x86_64-mingw32/bin/../lib/gcc/nios2-elf/4.9.1/../../../../../H-x86_64-mingw32/nios2-elf/lib/mhw-mulx\libc.a(lib_a-vfiprintf.o)
 .debug_frame   0x0000000000001e9c       0x38 c:/develop/altera/15.0/nios2eds/bin/gnu/h-x86_64-mingw32/bin/../lib/gcc/nios2-elf/4.9.1/../../../../../H-x86_64-mingw32/nios2-elf/lib/mhw-mulx\libc.a(lib_a-writer.o)
 .debug_frame   0x0000000000001ed4       0x38 c:/develop/altera/15.0/nios2eds/bin/gnu/h-x86_64-mingw32/bin/../lib/gcc/nios2-elf/4.9.1/../../../../../H-x86_64-mingw32/nios2-elf/lib/mhw-mulx\libc.a(closer.o)
 .debug_frame   0x0000000000001f0c       0x40 c:/develop/altera/15.0/nios2eds/bin/gnu/h-x86_64-mingw32/bin/../lib/gcc/nios2-elf/4.9.1/../../../../../H-x86_64-mingw32/nios2-elf/lib/mhw-mulx\libc.a(lib_a-callocr.o)
 .debug_frame   0x0000000000001f4c       0x60 c:/develop/altera/15.0/nios2eds/bin/gnu/h-x86_64-mingw32/bin/../lib/gcc/nios2-elf/4.9.1/../../../../../H-x86_64-mingw32/nios2-elf/lib/mhw-mulx\libc.a(lib_a-fclose.o)
 .debug_frame   0x0000000000001fac       0x70 c:/develop/altera/15.0/nios2eds/bin/gnu/h-x86_64-mingw32/bin/../lib/gcc/nios2-elf/4.9.1/../../../../../H-x86_64-mingw32/nios2-elf/lib/mhw-mulx\libc.a(lib_a-fputwc.o)
 .debug_frame   0x000000000000201c       0x38 c:/develop/altera/15.0/nios2eds/bin/gnu/h-x86_64-mingw32/bin/../lib/gcc/nios2-elf/4.9.1/../../../../../H-x86_64-mingw32/nios2-elf/lib/mhw-mulx\libc.a(lib_a-fstatr.o)
 .debug_frame   0x0000000000002054       0x38 c:/develop/altera/15.0/nios2eds/bin/gnu/h-x86_64-mingw32/bin/../lib/gcc/nios2-elf/4.9.1/../../../../../H-x86_64-mingw32/nios2-elf/lib/mhw-mulx\libc.a(lib_a-isattyr.o)
 .debug_frame   0x000000000000208c       0x38 c:/develop/altera/15.0/nios2eds/bin/gnu/h-x86_64-mingw32/bin/../lib/gcc/nios2-elf/4.9.1/../../../../../H-x86_64-mingw32/nios2-elf/lib/mhw-mulx\libc.a(lib_a-lseekr.o)
 .debug_frame   0x00000000000020c4       0x38 c:/develop/altera/15.0/nios2eds/bin/gnu/h-x86_64-mingw32/bin/../lib/gcc/nios2-elf/4.9.1/../../../../../H-x86_64-mingw32/nios2-elf/lib/mhw-mulx\libc.a(lib_a-readr.o)
 .debug_frame   0x00000000000020fc       0x4c c:/develop/altera/15.0/nios2eds/bin/gnu/h-x86_64-mingw32/bin/../lib/gcc/nios2-elf/4.9.1/../../../../../H-x86_64-mingw32/nios2-elf/lib/mhw-mulx\libc.a(lib_a-wbuf.o)
 .debug_frame   0x0000000000002148       0x74 c:/develop/altera/15.0/nios2eds/bin/gnu/h-x86_64-mingw32/bin/../lib/gcc/nios2-elf/4.9.1/../../../../../H-x86_64-mingw32/nios2-elf/lib/mhw-mulx\libc.a(lib_a-wcrtomb.o)
 .debug_frame   0x00000000000021bc       0x44 c:/develop/altera/15.0/nios2eds/bin/gnu/h-x86_64-mingw32/bin/../lib/gcc/nios2-elf/4.9.1/../../../../../H-x86_64-mingw32/nios2-elf/lib/mhw-mulx\libc.a(lib_a-wctomb_r.o)
 .debug_frame   0x0000000000002200       0x54 c:/develop/altera/15.0/nios2eds/bin/gnu/h-x86_64-mingw32/bin/../lib/gcc/nios2-elf/4.9.1/mhw-mulx\libgcc.a(_udivdi3.o)
 .debug_frame   0x0000000000002254       0x54 c:/develop/altera/15.0/nios2eds/bin/gnu/h-x86_64-mingw32/bin/../lib/gcc/nios2-elf/4.9.1/mhw-mulx\libgcc.a(_umoddi3.o)
 .debug_frame   0x00000000000022a8       0x8c c:/develop/altera/15.0/nios2eds/bin/gnu/h-x86_64-mingw32/bin/../lib/gcc/nios2-elf/4.9.1/mhw-mulx\libgcc.a(lib2-divmod.o)
 .debug_frame   0x0000000000002334       0x40 c:/develop/altera/15.0/nios2eds/bin/gnu/h-x86_64-mingw32/bin/../lib/gcc/nios2-elf/4.9.1/mhw-mulx\libgcc.a(adddf3.o)
 .debug_frame   0x0000000000002374       0x58 c:/develop/altera/15.0/nios2eds/bin/gnu/h-x86_64-mingw32/bin/../lib/gcc/nios2-elf/4.9.1/mhw-mulx\libgcc.a(divdf3.o)
 .debug_frame   0x00000000000023cc       0x20 c:/develop/altera/15.0/nios2eds/bin/gnu/h-x86_64-mingw32/bin/../lib/gcc/nios2-elf/4.9.1/mhw-mulx\libgcc.a(eqdf2.o)
 .debug_frame   0x00000000000023ec       0x20 c:/develop/altera/15.0/nios2eds/bin/gnu/h-x86_64-mingw32/bin/../lib/gcc/nios2-elf/4.9.1/mhw-mulx\libgcc.a(gedf2.o)
 .debug_frame   0x000000000000240c       0x20 c:/develop/altera/15.0/nios2eds/bin/gnu/h-x86_64-mingw32/bin/../lib/gcc/nios2-elf/4.9.1/mhw-mulx\libgcc.a(ledf2.o)
 .debug_frame   0x000000000000242c       0x58 c:/develop/altera/15.0/nios2eds/bin/gnu/h-x86_64-mingw32/bin/../lib/gcc/nios2-elf/4.9.1/mhw-mulx\libgcc.a(muldf3.o)
 .debug_frame   0x0000000000002484       0x44 c:/develop/altera/15.0/nios2eds/bin/gnu/h-x86_64-mingw32/bin/../lib/gcc/nios2-elf/4.9.1/mhw-mulx\libgcc.a(subdf3.o)
 .debug_frame   0x00000000000024c8       0x20 c:/develop/altera/15.0/nios2eds/bin/gnu/h-x86_64-mingw32/bin/../lib/gcc/nios2-elf/4.9.1/mhw-mulx\libgcc.a(fixdfsi.o)
 .debug_frame   0x00000000000024e8       0x38 c:/develop/altera/15.0/nios2eds/bin/gnu/h-x86_64-mingw32/bin/../lib/gcc/nios2-elf/4.9.1/mhw-mulx\libgcc.a(floatsidf.o)
 .debug_frame   0x0000000000002520       0x34 c:/develop/altera/15.0/nios2eds/bin/gnu/h-x86_64-mingw32/bin/../lib/gcc/nios2-elf/4.9.1/mhw-mulx\libgcc.a(floatunsidf.o)
 .debug_frame   0x0000000000002554       0x20 c:/develop/altera/15.0/nios2eds/bin/gnu/h-x86_64-mingw32/bin/../lib/gcc/nios2-elf/4.9.1/mhw-mulx\libgcc.a(_clzsi2.o)
 .debug_frame   0x0000000000002574       0x20 ../cineraria_wavplay_bsp/\libhal_bsp.a(alt_alarm_start.o)
 .debug_frame   0x0000000000002594       0x38 ../cineraria_wavplay_bsp/\libhal_bsp.a(alt_close.o)
 .debug_frame   0x00000000000025cc       0x20 ../cineraria_wavplay_bsp/\libhal_bsp.a(alt_dev.o)
 .debug_frame   0x00000000000025ec       0x20 ../cineraria_wavplay_bsp/\libhal_bsp.a(alt_fs_reg.o)
 .debug_frame   0x000000000000260c       0x2c ../cineraria_wavplay_bsp/\libhal_bsp.a(alt_fstat.o)
 .debug_frame   0x0000000000002638       0x50 ../cineraria_wavplay_bsp/\libhal_bsp.a(alt_iic.o)
 .debug_frame   0x0000000000002688       0x38 ../cineraria_wavplay_bsp/\libhal_bsp.a(alt_iic_isr_register.o)
 .debug_frame   0x00000000000026c0       0x30 ../cineraria_wavplay_bsp/\libhal_bsp.a(alt_irq_handler.o)
 .debug_frame   0x00000000000026f0       0x40 ../cineraria_wavplay_bsp/\libhal_bsp.a(alt_isatty.o)
 .debug_frame   0x0000000000002730       0x2c ../cineraria_wavplay_bsp/\libhal_bsp.a(alt_load.o)
 .debug_frame   0x000000000000275c       0x34 ../cineraria_wavplay_bsp/\libhal_bsp.a(alt_lseek.o)
 .debug_frame   0x0000000000002790       0x28 ../cineraria_wavplay_bsp/\libhal_bsp.a(alt_main.o)
 .debug_frame   0x00000000000027b8       0x30 ../cineraria_wavplay_bsp/\libhal_bsp.a(alt_malloc_lock.o)
 .debug_frame   0x00000000000027e8       0x34 ../cineraria_wavplay_bsp/\libhal_bsp.a(alt_read.o)
 .debug_frame   0x000000000000281c       0x20 ../cineraria_wavplay_bsp/\libhal_bsp.a(alt_release_fd.o)
 .debug_frame   0x000000000000283c       0x20 ../cineraria_wavplay_bsp/\libhal_bsp.a(alt_sbrk.o)
 .debug_frame   0x000000000000285c       0x54 ../cineraria_wavplay_bsp/\libhal_bsp.a(alt_tick.o)
 .debug_frame   0x00000000000028b0       0x20 ../cineraria_wavplay_bsp/\libhal_bsp.a(alt_uncached_free.o)
 .debug_frame   0x00000000000028d0       0x38 ../cineraria_wavplay_bsp/\libhal_bsp.a(alt_uncached_malloc.o)
 .debug_frame   0x0000000000002908       0x34 ../cineraria_wavplay_bsp/\libhal_bsp.a(alt_write.o)
 .debug_frame   0x000000000000293c       0x4c ../cineraria_wavplay_bsp/\libhal_bsp.a(alt_sys_init.o)
 .debug_frame   0x0000000000002988       0x50 ../cineraria_wavplay_bsp/\libhal_bsp.a(altera_avalon_jtag_uart_fd.o)
 .debug_frame   0x00000000000029d8       0x60 ../cineraria_wavplay_bsp/\libhal_bsp.a(altera_avalon_jtag_uart_init.o)
 .debug_frame   0x0000000000002a38       0x20 ../cineraria_wavplay_bsp/\libhal_bsp.a(altera_avalon_jtag_uart_ioctl.o)
 .debug_frame   0x0000000000002a58       0x54 ../cineraria_wavplay_bsp/\libhal_bsp.a(altera_avalon_jtag_uart_read.o)
 .debug_frame   0x0000000000002aac       0x54 ../cineraria_wavplay_bsp/\libhal_bsp.a(altera_avalon_jtag_uart_write.o)
 .debug_frame   0x0000000000002b00       0x4c ../cineraria_wavplay_bsp/\libhal_bsp.a(altera_avalon_timer_sc.o)
 .debug_frame   0x0000000000002b4c      0x11c ../cineraria_wavplay_bsp/\libhal_bsp.a(altera_epcq_controller.o)
 .debug_frame   0x0000000000002c68       0x20 ../cineraria_wavplay_bsp/\libhal_bsp.a(alt_busy_sleep.o)
 .debug_frame   0x0000000000002c88       0x20 ../cineraria_wavplay_bsp/\libhal_bsp.a(alt_dcache_flush.o)
 .debug_frame   0x0000000000002ca8       0x20 ../cineraria_wavplay_bsp/\libhal_bsp.a(alt_dcache_flush_all.o)
 .debug_frame   0x0000000000002cc8       0x2c ../cineraria_wavplay_bsp/\libhal_bsp.a(alt_dev_llist_insert.o)
 .debug_frame   0x0000000000002cf4       0x38 ../cineraria_wavplay_bsp/\libhal_bsp.a(alt_do_ctors.o)
 .debug_frame   0x0000000000002d2c       0x38 ../cineraria_wavplay_bsp/\libhal_bsp.a(alt_do_dtors.o)
 .debug_frame   0x0000000000002d64       0x4c ../cineraria_wavplay_bsp/\libhal_bsp.a(alt_flash_dev.o)
 .debug_frame   0x0000000000002db0       0x20 ../cineraria_wavplay_bsp/\libhal_bsp.a(alt_icache_flush_all.o)
 .debug_frame   0x0000000000002dd0       0x30 ../cineraria_wavplay_bsp/\libhal_bsp.a(alt_instruction_exception_entry.o)
 .debug_frame   0x0000000000002e00       0x44 ../cineraria_wavplay_bsp/\libhal_bsp.a(alt_io_redirect.o)
 .debug_frame   0x0000000000002e44       0x44 ../cineraria_wavplay_bsp/\libhal_bsp.a(alt_open.o)
 .debug_frame   0x0000000000002e88       0x20 ../cineraria_wavplay_bsp/\libhal_bsp.a(altera_nios2_gen2_irq.o)
 .debug_frame   0x0000000000002ea8       0x40 ../cineraria_wavplay_bsp/\libhal_bsp.a(alt_find_dev.o)
 .debug_frame   0x0000000000002ee8       0x48 ../cineraria_wavplay_bsp/\libhal_bsp.a(alt_find_file.o)
 .debug_frame   0x0000000000002f30       0x20 ../cineraria_wavplay_bsp/\libhal_bsp.a(alt_get_fd.o)
 .debug_frame   0x0000000000002f50       0x20 ../cineraria_wavplay_bsp/\libhal_bsp.a(alt_icache_flush.o)
 .debug_frame   0x0000000000002f70       0x20 c:/develop/altera/15.0/nios2eds/bin/gnu/h-x86_64-mingw32/bin/../lib/gcc/nios2-elf/4.9.1/../../../../../H-x86_64-mingw32/nios2-elf/lib/mhw-mulx\libc.a(lib_a-atexit.o)
 .debug_frame   0x0000000000002f90       0x28 c:/develop/altera/15.0/nios2eds/bin/gnu/h-x86_64-mingw32/bin/../lib/gcc/nios2-elf/4.9.1/../../../../../H-x86_64-mingw32/nios2-elf/lib/mhw-mulx\libc.a(lib_a-exit.o)
 .debug_frame   0x0000000000002fb8       0x20 c:/develop/altera/15.0/nios2eds/bin/gnu/h-x86_64-mingw32/bin/../lib/gcc/nios2-elf/4.9.1/../../../../../H-x86_64-mingw32/nios2-elf/lib/mhw-mulx\libc.a(lib_a-malign.o)
 .debug_frame   0x0000000000002fd8       0x58 c:/develop/altera/15.0/nios2eds/bin/gnu/h-x86_64-mingw32/bin/../lib/gcc/nios2-elf/4.9.1/../../../../../H-x86_64-mingw32/nios2-elf/lib/mhw-mulx\libc.a(lib_a-malignr.o)
 .debug_frame   0x0000000000003030       0x20 c:/develop/altera/15.0/nios2eds/bin/gnu/h-x86_64-mingw32/bin/../lib/gcc/nios2-elf/4.9.1/../../../../../H-x86_64-mingw32/nios2-elf/lib/mhw-mulx\libc.a(lib_a-memcmp.o)
 .debug_frame   0x0000000000003050       0x38 c:/develop/altera/15.0/nios2eds/bin/gnu/h-x86_64-mingw32/bin/../lib/gcc/nios2-elf/4.9.1/../../../../../H-x86_64-mingw32/nios2-elf/lib/mhw-mulx\libc.a(lib_a-__atexit.o)
 .debug_frame   0x0000000000003088       0x54 c:/develop/altera/15.0/nios2eds/bin/gnu/h-x86_64-mingw32/bin/../lib/gcc/nios2-elf/4.9.1/../../../../../H-x86_64-mingw32/nios2-elf/lib/mhw-mulx\libc.a(lib_a-__call_atexit.o)
 .debug_frame   0x00000000000030dc       0x20 ../cineraria_wavplay_bsp/\libhal_bsp.a(alt_exit.o)

.debug_str      0x0000000000000000     0x49fc
 *(.debug_str)
 .debug_str     0x0000000000000000      0x1ec obj/default/disp7seg.o
                                        0x24c (size before relaxing)
 .debug_str     0x00000000000001ec       0x90 obj/default/drawwave.o
                                        0x1c8 (size before relaxing)
 .debug_str     0x000000000000027c      0x265 obj/default/getfilename.o
                                        0x3a9 (size before relaxing)
 .debug_str     0x00000000000004e1       0xba obj/default/loadbmp.o
                                        0x3d0 (size before relaxing)
 .debug_str     0x000000000000059b      0x2d0 obj/default/mmcfs/fatfs/ff.o
                                        0x65e (size before relaxing)
 .debug_str     0x000000000000086b      0x16b obj/default/mmcfs/fatfs/mmcbb.o
                                        0x33b (size before relaxing)
 .debug_str     0x00000000000009d6       0x41 obj/default/mmcfs/fatfs/option/cc932.o
                                        0x148 (size before relaxing)
 .debug_str     0x0000000000000a17       0x10 obj/default/mmcfs/gettime.o
                                        0x138 (size before relaxing)
 .debug_str     0x0000000000000a27       0x57 obj/default/mmcfs/mmc_spi.o
                                        0x264 (size before relaxing)
 .debug_str     0x0000000000000a7e      0x211 obj/default/mmcfs/mmcfs.o
                                        0x60a (size before relaxing)
 .debug_str     0x0000000000000c8f      0x30e obj/default/nd_lib/nd_egl.o
                                        0x47c (size before relaxing)
 .debug_str     0x0000000000000f9d       0xdc obj/default/playwav.o
                                        0x453 (size before relaxing)
 .debug_str     0x0000000000001079       0x4d obj/default/wav_player.o
                                        0x2b9 (size before relaxing)
 .debug_str     0x00000000000010c6      0x458 c:/develop/altera/15.0/nios2eds/bin/gnu/h-x86_64-mingw32/bin/../lib/gcc/nios2-elf/4.9.1/../../../../../H-x86_64-mingw32/nios2-elf/lib/mhw-mulx\libc.a(lib_a-malloc.o)
                                        0x582 (size before relaxing)
 .debug_str     0x000000000000151e      0x22b c:/develop/altera/15.0/nios2eds/bin/gnu/h-x86_64-mingw32/bin/../lib/gcc/nios2-elf/4.9.1/../../../../../H-x86_64-mingw32/nios2-elf/lib/mhw-mulx\libc.a(lib_a-mallocr.o)
                                        0x77d (size before relaxing)
 .debug_str     0x0000000000001749       0xf2 c:/develop/altera/15.0/nios2eds/bin/gnu/h-x86_64-mingw32/bin/../lib/gcc/nios2-elf/4.9.1/../../../../../H-x86_64-mingw32/nios2-elf/lib/mhw-mulx\libc.a(lib_a-memcpy.o)
                                        0x1cb (size before relaxing)
 .debug_str     0x000000000000183b       0x52 c:/develop/altera/15.0/nios2eds/bin/gnu/h-x86_64-mingw32/bin/../lib/gcc/nios2-elf/4.9.1/../../../../../H-x86_64-mingw32/nios2-elf/lib/mhw-mulx\libc.a(lib_a-memset.o)
                                        0x1b8 (size before relaxing)
 .debug_str     0x000000000000188d      0x11f c:/develop/altera/15.0/nios2eds/bin/gnu/h-x86_64-mingw32/bin/../lib/gcc/nios2-elf/4.9.1/../../../../../H-x86_64-mingw32/nios2-elf/lib/mhw-mulx\libc.a(lib_a-printf.o)
                                        0x5b9 (size before relaxing)
 .debug_str     0x00000000000019ac       0x8c c:/develop/altera/15.0/nios2eds/bin/gnu/h-x86_64-mingw32/bin/../lib/gcc/nios2-elf/4.9.1/../../../../../H-x86_64-mingw32/nios2-elf/lib/mhw-mulx\libc.a(lib_a-puts.o)
                                        0x5b6 (size before relaxing)
 .debug_str     0x0000000000001a38       0xd2 c:/develop/altera/15.0/nios2eds/bin/gnu/h-x86_64-mingw32/bin/../lib/gcc/nios2-elf/4.9.1/../../../../../H-x86_64-mingw32/nios2-elf/lib/mhw-mulx\libc.a(lib_a-sbrkr.o)
                                        0x564 (size before relaxing)
 .debug_str     0x0000000000001b0a       0x3e c:/develop/altera/15.0/nios2eds/bin/gnu/h-x86_64-mingw32/bin/../lib/gcc/nios2-elf/4.9.1/../../../../../H-x86_64-mingw32/nios2-elf/lib/mhw-mulx\libc.a(lib_a-strcpy.o)
                                        0x1bf (size before relaxing)
 .debug_str     0x0000000000001b48       0x3e c:/develop/altera/15.0/nios2eds/bin/gnu/h-x86_64-mingw32/bin/../lib/gcc/nios2-elf/4.9.1/../../../../../H-x86_64-mingw32/nios2-elf/lib/mhw-mulx\libc.a(lib_a-strlen.o)
                                        0x1b7 (size before relaxing)
 .debug_str     0x0000000000001b86      0x2ea c:/develop/altera/15.0/nios2eds/bin/gnu/h-x86_64-mingw32/bin/../lib/gcc/nios2-elf/4.9.1/../../../../../H-x86_64-mingw32/nios2-elf/lib/mhw-mulx\libc.a(lib_a-vfprintf.o)
                                        0x94d (size before relaxing)
 .debug_str     0x0000000000001e70       0x4a c:/develop/altera/15.0/nios2eds/bin/gnu/h-x86_64-mingw32/bin/../lib/gcc/nios2-elf/4.9.1/../../../../../H-x86_64-mingw32/nios2-elf/lib/mhw-mulx\libc.a(lib_a-wsetup.o)
                                        0x57d (size before relaxing)
 .debug_str     0x0000000000001eba      0x15a c:/develop/altera/15.0/nios2eds/bin/gnu/h-x86_64-mingw32/bin/../lib/gcc/nios2-elf/4.9.1/../../../../../H-x86_64-mingw32/nios2-elf/lib/mhw-mulx\libc.a(lib_a-dtoa.o)
                                        0x6c0 (size before relaxing)
 .debug_str     0x0000000000002014       0x68 c:/develop/altera/15.0/nios2eds/bin/gnu/h-x86_64-mingw32/bin/../lib/gcc/nios2-elf/4.9.1/../../../../../H-x86_64-mingw32/nios2-elf/lib/mhw-mulx\libc.a(lib_a-fflush.o)
                                        0x5ad (size before relaxing)
 .debug_str     0x000000000000207c       0xfd c:/develop/altera/15.0/nios2eds/bin/gnu/h-x86_64-mingw32/bin/../lib/gcc/nios2-elf/4.9.1/../../../../../H-x86_64-mingw32/nios2-elf/lib/mhw-mulx\libc.a(lib_a-findfp.o)
                                        0x667 (size before relaxing)
 .debug_str     0x0000000000002179       0x34 c:/develop/altera/15.0/nios2eds/bin/gnu/h-x86_64-mingw32/bin/../lib/gcc/nios2-elf/4.9.1/../../../../../H-x86_64-mingw32/nios2-elf/lib/mhw-mulx\libc.a(lib_a-freer.o)
                                        0x6c7 (size before relaxing)
 .debug_str     0x00000000000021ad       0x6f c:/develop/altera/15.0/nios2eds/bin/gnu/h-x86_64-mingw32/bin/../lib/gcc/nios2-elf/4.9.1/../../../../../H-x86_64-mingw32/nios2-elf/lib/mhw-mulx\libc.a(lib_a-fvwrite.o)
                                        0x600 (size before relaxing)
 .debug_str     0x000000000000221c       0x61 c:/develop/altera/15.0/nios2eds/bin/gnu/h-x86_64-mingw32/bin/../lib/gcc/nios2-elf/4.9.1/../../../../../H-x86_64-mingw32/nios2-elf/lib/mhw-mulx\libc.a(lib_a-fwalk.o)
                                        0x5af (size before relaxing)
 .debug_str     0x000000000000227d       0x49 c:/develop/altera/15.0/nios2eds/bin/gnu/h-x86_64-mingw32/bin/../lib/gcc/nios2-elf/4.9.1/../../../../../H-x86_64-mingw32/nios2-elf/lib/mhw-mulx\libc.a(lib_a-impure.o)
                                        0x56e (size before relaxing)
 .debug_str     0x00000000000022c6       0x40 c:/develop/altera/15.0/nios2eds/bin/gnu/h-x86_64-mingw32/bin/../lib/gcc/nios2-elf/4.9.1/../../../../../H-x86_64-mingw32/nios2-elf/lib/mhw-mulx\libc.a(lib_a-int_errno.o)
                                        0x19d (size before relaxing)
 .debug_str     0x0000000000002306      0x1b2 c:/develop/altera/15.0/nios2eds/bin/gnu/h-x86_64-mingw32/bin/../lib/gcc/nios2-elf/4.9.1/../../../../../H-x86_64-mingw32/nios2-elf/lib/mhw-mulx\libc.a(lib_a-locale.o)
                                        0x7cb (size before relaxing)
 .debug_str     0x00000000000024b8       0x5c c:/develop/altera/15.0/nios2eds/bin/gnu/h-x86_64-mingw32/bin/../lib/gcc/nios2-elf/4.9.1/../../../../../H-x86_64-mingw32/nios2-elf/lib/mhw-mulx\libc.a(lib_a-makebuf.o)
                                        0x677 (size before relaxing)
 .debug_str     0x0000000000002514       0x4c c:/develop/altera/15.0/nios2eds/bin/gnu/h-x86_64-mingw32/bin/../lib/gcc/nios2-elf/4.9.1/../../../../../H-x86_64-mingw32/nios2-elf/lib/mhw-mulx\libc.a(lib_a-memchr.o)
                                        0x1be (size before relaxing)
 .debug_str     0x0000000000002560       0x48 c:/develop/altera/15.0/nios2eds/bin/gnu/h-x86_64-mingw32/bin/../lib/gcc/nios2-elf/4.9.1/../../../../../H-x86_64-mingw32/nios2-elf/lib/mhw-mulx\libc.a(lib_a-memmove.o)
                                        0x1d7 (size before relaxing)
 .debug_str     0x00000000000025a8       0xa8 c:/develop/altera/15.0/nios2eds/bin/gnu/h-x86_64-mingw32/bin/../lib/gcc/nios2-elf/4.9.1/../../../../../H-x86_64-mingw32/nios2-elf/lib/mhw-mulx\libc.a(lib_a-mprec.o)
                                        0x67a (size before relaxing)
 .debug_str     0x0000000000002650       0x4e c:/develop/altera/15.0/nios2eds/bin/gnu/h-x86_64-mingw32/bin/../lib/gcc/nios2-elf/4.9.1/../../../../../H-x86_64-mingw32/nios2-elf/lib/mhw-mulx\libc.a(lib_a-reallocr.o)
                                        0x64f (size before relaxing)
 .debug_str     0x000000000000269e       0xd1 c:/develop/altera/15.0/nios2eds/bin/gnu/h-x86_64-mingw32/bin/../lib/gcc/nios2-elf/4.9.1/../../../../../H-x86_64-mingw32/nios2-elf/lib/mhw-mulx\libc.a(lib_a-s_fpclassify.o)
                                        0x1ce (size before relaxing)
 .debug_str     0x000000000000276f       0x9c c:/develop/altera/15.0/nios2eds/bin/gnu/h-x86_64-mingw32/bin/../lib/gcc/nios2-elf/4.9.1/../../../../../H-x86_64-mingw32/nios2-elf/lib/mhw-mulx\libc.a(lib_a-stdio.o)
                                        0x5c8 (size before relaxing)
 .debug_str     0x000000000000280b       0x3e c:/develop/altera/15.0/nios2eds/bin/gnu/h-x86_64-mingw32/bin/../lib/gcc/nios2-elf/4.9.1/../../../../../H-x86_64-mingw32/nios2-elf/lib/mhw-mulx\libc.a(lib_a-strcmp.o)
                                        0x19d (size before relaxing)
 .debug_str     0x0000000000002849       0x3f c:/develop/altera/15.0/nios2eds/bin/gnu/h-x86_64-mingw32/bin/../lib/gcc/nios2-elf/4.9.1/../../../../../H-x86_64-mingw32/nios2-elf/lib/mhw-mulx\libc.a(lib_a-vfiprintf.o)
                                        0x73f (size before relaxing)
 .debug_str     0x0000000000002888       0x3d c:/develop/altera/15.0/nios2eds/bin/gnu/h-x86_64-mingw32/bin/../lib/gcc/nios2-elf/4.9.1/../../../../../H-x86_64-mingw32/nios2-elf/lib/mhw-mulx\libc.a(lib_a-writer.o)
                                        0x568 (size before relaxing)
 .debug_str     0x00000000000028c5       0x3d c:/develop/altera/15.0/nios2eds/bin/gnu/h-x86_64-mingw32/bin/../lib/gcc/nios2-elf/4.9.1/../../../../../H-x86_64-mingw32/nios2-elf/lib/mhw-mulx\libc.a(closer.o)
                                        0x558 (size before relaxing)
 .debug_str     0x0000000000002902        0xf c:/develop/altera/15.0/nios2eds/bin/gnu/h-x86_64-mingw32/bin/../lib/gcc/nios2-elf/4.9.1/../../../../../H-x86_64-mingw32/nios2-elf/lib/mhw-mulx\libc.a(lib_a-callocr.o)
                                        0x5a7 (size before relaxing)
 .debug_str     0x0000000000002911       0x4e c:/develop/altera/15.0/nios2eds/bin/gnu/h-x86_64-mingw32/bin/../lib/gcc/nios2-elf/4.9.1/../../../../../H-x86_64-mingw32/nios2-elf/lib/mhw-mulx\libc.a(lib_a-fclose.o)
                                        0x5aa (size before relaxing)
 .debug_str     0x000000000000295f       0x5b c:/develop/altera/15.0/nios2eds/bin/gnu/h-x86_64-mingw32/bin/../lib/gcc/nios2-elf/4.9.1/../../../../../H-x86_64-mingw32/nios2-elf/lib/mhw-mulx\libc.a(lib_a-fputwc.o)
                                        0x5b8 (size before relaxing)
 .debug_str     0x00000000000029ba       0x43 c:/develop/altera/15.0/nios2eds/bin/gnu/h-x86_64-mingw32/bin/../lib/gcc/nios2-elf/4.9.1/../../../../../H-x86_64-mingw32/nios2-elf/lib/mhw-mulx\libc.a(lib_a-fstatr.o)
                                        0x64b (size before relaxing)
 .debug_str     0x00000000000029fd       0x45 c:/develop/altera/15.0/nios2eds/bin/gnu/h-x86_64-mingw32/bin/../lib/gcc/nios2-elf/4.9.1/../../../../../H-x86_64-mingw32/nios2-elf/lib/mhw-mulx\libc.a(lib_a-isattyr.o)
                                        0x55b (size before relaxing)
 .debug_str     0x0000000000002a42       0x3d c:/develop/altera/15.0/nios2eds/bin/gnu/h-x86_64-mingw32/bin/../lib/gcc/nios2-elf/4.9.1/../../../../../H-x86_64-mingw32/nios2-elf/lib/mhw-mulx\libc.a(lib_a-lseekr.o)
                                        0x56c (size before relaxing)
 .debug_str     0x0000000000002a7f       0x3c c:/develop/altera/15.0/nios2eds/bin/gnu/h-x86_64-mingw32/bin/../lib/gcc/nios2-elf/4.9.1/../../../../../H-x86_64-mingw32/nios2-elf/lib/mhw-mulx\libc.a(lib_a-readr.o)
                                        0x565 (size before relaxing)
 .debug_str     0x0000000000002abb       0x43 c:/develop/altera/15.0/nios2eds/bin/gnu/h-x86_64-mingw32/bin/../lib/gcc/nios2-elf/4.9.1/../../../../../H-x86_64-mingw32/nios2-elf/lib/mhw-mulx\libc.a(lib_a-wbuf.o)
                                        0x582 (size before relaxing)
 .debug_str     0x0000000000002afe       0x57 c:/develop/altera/15.0/nios2eds/bin/gnu/h-x86_64-mingw32/bin/../lib/gcc/nios2-elf/4.9.1/../../../../../H-x86_64-mingw32/nios2-elf/lib/mhw-mulx\libc.a(lib_a-wcrtomb.o)
                                        0x59f (size before relaxing)
 .debug_str     0x0000000000002b55       0x60 c:/develop/altera/15.0/nios2eds/bin/gnu/h-x86_64-mingw32/bin/../lib/gcc/nios2-elf/4.9.1/../../../../../H-x86_64-mingw32/nios2-elf/lib/mhw-mulx\libc.a(lib_a-wctomb_r.o)
                                        0x5ae (size before relaxing)
 .debug_str     0x0000000000002bb5      0x1fd c:/develop/altera/15.0/nios2eds/bin/gnu/h-x86_64-mingw32/bin/../lib/gcc/nios2-elf/4.9.1/mhw-mulx\libgcc.a(_udivdi3.o)
                                        0x28a (size before relaxing)
 .debug_str     0x0000000000002db2        0xa c:/develop/altera/15.0/nios2eds/bin/gnu/h-x86_64-mingw32/bin/../lib/gcc/nios2-elf/4.9.1/mhw-mulx\libgcc.a(_umoddi3.o)
                                        0x28a (size before relaxing)
 .debug_str     0x0000000000002dbc       0xfb c:/develop/altera/15.0/nios2eds/bin/gnu/h-x86_64-mingw32/bin/../lib/gcc/nios2-elf/4.9.1/mhw-mulx\libgcc.a(lib2-divmod.o)
                                        0x1cc (size before relaxing)
 .debug_str     0x0000000000002eb7       0xcf c:/develop/altera/15.0/nios2eds/bin/gnu/h-x86_64-mingw32/bin/../lib/gcc/nios2-elf/4.9.1/mhw-mulx\libgcc.a(adddf3.o)
                                        0x25e (size before relaxing)
 .debug_str     0x0000000000002f86       0x8d c:/develop/altera/15.0/nios2eds/bin/gnu/h-x86_64-mingw32/bin/../lib/gcc/nios2-elf/4.9.1/mhw-mulx\libgcc.a(divdf3.o)
                                        0x29f (size before relaxing)
 .debug_str     0x0000000000003013       0x37 c:/develop/altera/15.0/nios2eds/bin/gnu/h-x86_64-mingw32/bin/../lib/gcc/nios2-elf/4.9.1/mhw-mulx\libgcc.a(eqdf2.o)
                                        0x1f9 (size before relaxing)
 .debug_str     0x000000000000304a       0x4f c:/develop/altera/15.0/nios2eds/bin/gnu/h-x86_64-mingw32/bin/../lib/gcc/nios2-elf/4.9.1/mhw-mulx\libgcc.a(gedf2.o)
                                        0x211 (size before relaxing)
 .debug_str     0x0000000000003099       0x37 c:/develop/altera/15.0/nios2eds/bin/gnu/h-x86_64-mingw32/bin/../lib/gcc/nios2-elf/4.9.1/mhw-mulx\libgcc.a(ledf2.o)
                                        0x211 (size before relaxing)
 .debug_str     0x00000000000030d0       0x90 c:/develop/altera/15.0/nios2eds/bin/gnu/h-x86_64-mingw32/bin/../lib/gcc/nios2-elf/4.9.1/mhw-mulx\libgcc.a(muldf3.o)
                                        0x2b7 (size before relaxing)
 .debug_str     0x0000000000003160       0x39 c:/develop/altera/15.0/nios2eds/bin/gnu/h-x86_64-mingw32/bin/../lib/gcc/nios2-elf/4.9.1/mhw-mulx\libgcc.a(subdf3.o)
                                        0x25e (size before relaxing)
 .debug_str     0x0000000000003199       0x43 c:/develop/altera/15.0/nios2eds/bin/gnu/h-x86_64-mingw32/bin/../lib/gcc/nios2-elf/4.9.1/mhw-mulx\libgcc.a(fixdfsi.o)
                                        0x20a (size before relaxing)
 .debug_str     0x00000000000031dc       0x4c c:/develop/altera/15.0/nios2eds/bin/gnu/h-x86_64-mingw32/bin/../lib/gcc/nios2-elf/4.9.1/mhw-mulx\libgcc.a(floatsidf.o)
                                        0x20e (size before relaxing)
 .debug_str     0x0000000000003228       0x43 c:/develop/altera/15.0/nios2eds/bin/gnu/h-x86_64-mingw32/bin/../lib/gcc/nios2-elf/4.9.1/mhw-mulx\libgcc.a(floatunsidf.o)
                                        0x20b (size before relaxing)
 .debug_str     0x0000000000000000      0x1d1 c:/develop/altera/15.0/nios2eds/bin/gnu/h-x86_64-mingw32/bin/../lib/gcc/nios2-elf/4.9.1/mhw-mulx\libgcc.a(_clz.o)
 .debug_str     0x000000000000326b        0x9 c:/develop/altera/15.0/nios2eds/bin/gnu/h-x86_64-mingw32/bin/../lib/gcc/nios2-elf/4.9.1/mhw-mulx\libgcc.a(_clzsi2.o)
                                        0x1ee (size before relaxing)
 .debug_str     0x0000000000003274       0xc3 ../cineraria_wavplay_bsp/\libhal_bsp.a(alt_alarm_start.o)
                                        0x277 (size before relaxing)
 .debug_str     0x0000000000003337       0x53 ../cineraria_wavplay_bsp/\libhal_bsp.a(alt_close.o)
                                        0x213 (size before relaxing)
 .debug_str     0x000000000000338a       0x50 ../cineraria_wavplay_bsp/\libhal_bsp.a(alt_dev.o)
                                        0x2fe (size before relaxing)
 .debug_str     0x00000000000033da       0x14 ../cineraria_wavplay_bsp/\libhal_bsp.a(alt_errno.o)
                                        0x13e (size before relaxing)
 .debug_str     0x00000000000033ee       0x15 ../cineraria_wavplay_bsp/\libhal_bsp.a(alt_fs_reg.o)
                                        0x202 (size before relaxing)
 .debug_str     0x0000000000003403       0x14 ../cineraria_wavplay_bsp/\libhal_bsp.a(alt_fstat.o)
                                        0x2e5 (size before relaxing)
 .debug_str     0x0000000000003417       0xb1 ../cineraria_wavplay_bsp/\libhal_bsp.a(alt_iic.o)
                                        0x24c (size before relaxing)
 .debug_str     0x00000000000034c8       0x37 ../cineraria_wavplay_bsp/\libhal_bsp.a(alt_iic_isr_register.o)
                                        0x206 (size before relaxing)
 .debug_str     0x00000000000034ff       0x3a ../cineraria_wavplay_bsp/\libhal_bsp.a(alt_irq_handler.o)
                                        0x190 (size before relaxing)
 .debug_str     0x0000000000003539       0x17 ../cineraria_wavplay_bsp/\libhal_bsp.a(alt_irq_vars.o)
                                        0x13f (size before relaxing)
 .debug_str     0x0000000000003550       0x15 ../cineraria_wavplay_bsp/\libhal_bsp.a(alt_isatty.o)
                                        0x2ed (size before relaxing)
 .debug_str     0x0000000000003565      0x113 ../cineraria_wavplay_bsp/\libhal_bsp.a(alt_load.o)
                                        0x23c (size before relaxing)
 .debug_str     0x0000000000003678       0x14 ../cineraria_wavplay_bsp/\libhal_bsp.a(alt_lseek.o)
                                        0x20a (size before relaxing)
 .debug_str     0x000000000000368c       0x78 ../cineraria_wavplay_bsp/\libhal_bsp.a(alt_main.o)
                                        0x1e1 (size before relaxing)
 .debug_str     0x0000000000003704       0x1a ../cineraria_wavplay_bsp/\libhal_bsp.a(alt_malloc_lock.o)
                                        0x501 (size before relaxing)
 .debug_str     0x000000000000371e       0x13 ../cineraria_wavplay_bsp/\libhal_bsp.a(alt_read.o)
                                        0x2f0 (size before relaxing)
 .debug_str     0x0000000000003731       0x19 ../cineraria_wavplay_bsp/\libhal_bsp.a(alt_release_fd.o)
                                        0x1d8 (size before relaxing)
 .debug_str     0x000000000000374a       0x61 ../cineraria_wavplay_bsp/\libhal_bsp.a(alt_sbrk.o)
                                        0x1cd (size before relaxing)
 .debug_str     0x00000000000037ab       0x4a ../cineraria_wavplay_bsp/\libhal_bsp.a(alt_tick.o)
                                        0x24b (size before relaxing)
 .debug_str     0x00000000000037f5       0x1c ../cineraria_wavplay_bsp/\libhal_bsp.a(alt_uncached_free.o)
                                        0x155 (size before relaxing)
 .debug_str     0x0000000000003811       0x4f ../cineraria_wavplay_bsp/\libhal_bsp.a(alt_uncached_malloc.o)
                                        0x191 (size before relaxing)
 .debug_str     0x0000000000003860       0x14 ../cineraria_wavplay_bsp/\libhal_bsp.a(alt_write.o)
                                        0x2f1 (size before relaxing)
 .debug_str     0x0000000000003874      0x342 ../cineraria_wavplay_bsp/\libhal_bsp.a(alt_sys_init.o)
                                        0x5d6 (size before relaxing)
 .debug_str     0x0000000000003bb6      0x123 ../cineraria_wavplay_bsp/\libhal_bsp.a(altera_avalon_jtag_uart_fd.o)
                                        0x414 (size before relaxing)
 .debug_str     0x0000000000003cd9       0x81 ../cineraria_wavplay_bsp/\libhal_bsp.a(altera_avalon_jtag_uart_init.o)
                                        0x362 (size before relaxing)
 .debug_str     0x0000000000003d5a       0x2c ../cineraria_wavplay_bsp/\libhal_bsp.a(altera_avalon_jtag_uart_ioctl.o)
                                        0x28c (size before relaxing)
 .debug_str     0x0000000000003d86       0x2b ../cineraria_wavplay_bsp/\libhal_bsp.a(altera_avalon_jtag_uart_read.o)
                                        0x2e8 (size before relaxing)
 .debug_str     0x0000000000003db1       0x2c ../cineraria_wavplay_bsp/\libhal_bsp.a(altera_avalon_jtag_uart_write.o)
                                        0x2e9 (size before relaxing)
 .debug_str     0x0000000000003ddd       0x54 ../cineraria_wavplay_bsp/\libhal_bsp.a(altera_avalon_timer_sc.o)
                                        0x26e (size before relaxing)
 .debug_str     0x0000000000003e31      0x25b ../cineraria_wavplay_bsp/\libhal_bsp.a(altera_epcq_controller.o)
                                        0x613 (size before relaxing)
 .debug_str     0x000000000000408c       0x33 ../cineraria_wavplay_bsp/\libhal_bsp.a(alt_busy_sleep.o)
                                        0x164 (size before relaxing)
 .debug_str     0x00000000000040bf       0x1b ../cineraria_wavplay_bsp/\libhal_bsp.a(alt_dcache_flush.o)
                                        0x154 (size before relaxing)
 .debug_str     0x00000000000040da       0x1f ../cineraria_wavplay_bsp/\libhal_bsp.a(alt_dcache_flush_all.o)
                                        0x14e (size before relaxing)
 .debug_str     0x00000000000040f9       0x1f ../cineraria_wavplay_bsp/\libhal_bsp.a(alt_dev_llist_insert.o)
                                        0x1c5 (size before relaxing)
 .debug_str     0x0000000000004118       0x3e ../cineraria_wavplay_bsp/\libhal_bsp.a(alt_do_ctors.o)
                                         0xd5 (size before relaxing)
 .debug_str     0x0000000000004156       0x4c ../cineraria_wavplay_bsp/\libhal_bsp.a(alt_do_dtors.o)
                                         0xd4 (size before relaxing)
 .debug_str     0x00000000000041a2       0x4c ../cineraria_wavplay_bsp/\libhal_bsp.a(alt_flash_dev.o)
                                        0x35f (size before relaxing)
 .debug_str     0x00000000000041ee       0x30 ../cineraria_wavplay_bsp/\libhal_bsp.a(alt_icache_flush_all.o)
                                        0x167 (size before relaxing)
 .debug_str     0x000000000000421e      0x48b ../cineraria_wavplay_bsp/\libhal_bsp.a(alt_instruction_exception_entry.o)
                                        0x598 (size before relaxing)
 .debug_str     0x00000000000046a9       0x46 ../cineraria_wavplay_bsp/\libhal_bsp.a(alt_io_redirect.o)
                                        0x31e (size before relaxing)
 .debug_str     0x00000000000046ef       0x42 ../cineraria_wavplay_bsp/\libhal_bsp.a(alt_open.o)
                                        0x279 (size before relaxing)
 .debug_str     0x0000000000004731       0x20 ../cineraria_wavplay_bsp/\libhal_bsp.a(altera_nios2_gen2_irq.o)
                                        0x155 (size before relaxing)
 .debug_str     0x0000000000004751       0x1e ../cineraria_wavplay_bsp/\libhal_bsp.a(alt_find_dev.o)
                                        0x1fa (size before relaxing)
 .debug_str     0x000000000000476f       0x18 ../cineraria_wavplay_bsp/\libhal_bsp.a(alt_find_file.o)
                                        0x208 (size before relaxing)
 .debug_str     0x0000000000004787       0x25 ../cineraria_wavplay_bsp/\libhal_bsp.a(alt_get_fd.o)
                                        0x215 (size before relaxing)
 .debug_str     0x00000000000047ac       0x1b ../cineraria_wavplay_bsp/\libhal_bsp.a(alt_icache_flush.o)
                                        0x154 (size before relaxing)
 .debug_str     0x00000000000047c7       0x82 c:/develop/altera/15.0/nios2eds/bin/gnu/h-x86_64-mingw32/bin/../lib/gcc/nios2-elf/4.9.1/../../../../../H-x86_64-mingw32/nios2-elf/lib/mhw-mulx\libc.a(lib_a-atexit.o)
                                        0x1e1 (size before relaxing)
 .debug_str     0x0000000000004849       0x4d c:/develop/altera/15.0/nios2eds/bin/gnu/h-x86_64-mingw32/bin/../lib/gcc/nios2-elf/4.9.1/../../../../../H-x86_64-mingw32/nios2-elf/lib/mhw-mulx\libc.a(lib_a-exit.o)
                                        0x577 (size before relaxing)
 .debug_str     0x0000000000004896       0x4a c:/develop/altera/15.0/nios2eds/bin/gnu/h-x86_64-mingw32/bin/../lib/gcc/nios2-elf/4.9.1/../../../../../H-x86_64-mingw32/nios2-elf/lib/mhw-mulx\libc.a(lib_a-malign.o)
                                        0x57a (size before relaxing)
 .debug_str     0x00000000000048e0       0x13 c:/develop/altera/15.0/nios2eds/bin/gnu/h-x86_64-mingw32/bin/../lib/gcc/nios2-elf/4.9.1/../../../../../H-x86_64-mingw32/nios2-elf/lib/mhw-mulx\libc.a(lib_a-malignr.o)
                                        0x5f8 (size before relaxing)
 .debug_str     0x00000000000048f3       0x3e c:/develop/altera/15.0/nios2eds/bin/gnu/h-x86_64-mingw32/bin/../lib/gcc/nios2-elf/4.9.1/../../../../../H-x86_64-mingw32/nios2-elf/lib/mhw-mulx\libc.a(lib_a-memcmp.o)
                                        0x1a4 (size before relaxing)
 .debug_str     0x0000000000004931       0x4e c:/develop/altera/15.0/nios2eds/bin/gnu/h-x86_64-mingw32/bin/../lib/gcc/nios2-elf/4.9.1/../../../../../H-x86_64-mingw32/nios2-elf/lib/mhw-mulx\libc.a(lib_a-__atexit.o)
                                        0x5c4 (size before relaxing)
 .debug_str     0x000000000000497f       0x53 c:/develop/altera/15.0/nios2eds/bin/gnu/h-x86_64-mingw32/bin/../lib/gcc/nios2-elf/4.9.1/../../../../../H-x86_64-mingw32/nios2-elf/lib/mhw-mulx\libc.a(lib_a-__call_atexit.o)
                                        0x58d (size before relaxing)
 .debug_str     0x00000000000049d2       0x2a ../cineraria_wavplay_bsp/\libhal_bsp.a(alt_exit.o)
                                        0x14a (size before relaxing)

.debug_loc      0x0000000000000000    0x2fcec
 *(.debug_loc)
 .debug_loc     0x0000000000000000       0xb7 obj/default/disp7seg.o
 .debug_loc     0x00000000000000b7      0x97d obj/default/drawwave.o
 .debug_loc     0x0000000000000a34       0xdf obj/default/getfilename.o
 .debug_loc     0x0000000000000b13      0x3c7 obj/default/loadbmp.o
 .debug_loc     0x0000000000000eda     0xe8d4 obj/default/mmcfs/fatfs/ff.o
 .debug_loc     0x000000000000f7ae     0x1984 obj/default/mmcfs/fatfs/mmcbb.o
 .debug_loc     0x0000000000011132      0x134 obj/default/mmcfs/fatfs/option/cc932.o
 .debug_loc     0x0000000000011266      0x1a7 obj/default/mmcfs/mmc_spi.o
 .debug_loc     0x000000000001140d      0x4fd obj/default/mmcfs/mmcfs.o
 .debug_loc     0x000000000001190a     0x3fb2 obj/default/nd_lib/nd_egl.o
 .debug_loc     0x00000000000158bc      0x3bd obj/default/playwav.o
 .debug_loc     0x0000000000015c79       0x70 obj/default/wav_player.o
 .debug_loc     0x0000000000015ce9       0x58 c:/develop/altera/15.0/nios2eds/bin/gnu/h-x86_64-mingw32/bin/../lib/gcc/nios2-elf/4.9.1/../../../../../H-x86_64-mingw32/nios2-elf/lib/mhw-mulx\libc.a(lib_a-malloc.o)
 .debug_loc     0x0000000000015d41      0xbad c:/develop/altera/15.0/nios2eds/bin/gnu/h-x86_64-mingw32/bin/../lib/gcc/nios2-elf/4.9.1/../../../../../H-x86_64-mingw32/nios2-elf/lib/mhw-mulx\libc.a(lib_a-mallocr.o)
 .debug_loc     0x00000000000168ee      0x2a2 c:/develop/altera/15.0/nios2eds/bin/gnu/h-x86_64-mingw32/bin/../lib/gcc/nios2-elf/4.9.1/../../../../../H-x86_64-mingw32/nios2-elf/lib/mhw-mulx\libc.a(lib_a-memcpy.o)
 .debug_loc     0x0000000000016b90      0x190 c:/develop/altera/15.0/nios2eds/bin/gnu/h-x86_64-mingw32/bin/../lib/gcc/nios2-elf/4.9.1/../../../../../H-x86_64-mingw32/nios2-elf/lib/mhw-mulx\libc.a(lib_a-memset.o)
 .debug_loc     0x0000000000016d20       0xd3 c:/develop/altera/15.0/nios2eds/bin/gnu/h-x86_64-mingw32/bin/../lib/gcc/nios2-elf/4.9.1/../../../../../H-x86_64-mingw32/nios2-elf/lib/mhw-mulx\libc.a(lib_a-printf.o)
 .debug_loc     0x0000000000016df3       0xb9 c:/develop/altera/15.0/nios2eds/bin/gnu/h-x86_64-mingw32/bin/../lib/gcc/nios2-elf/4.9.1/../../../../../H-x86_64-mingw32/nios2-elf/lib/mhw-mulx\libc.a(lib_a-puts.o)
 .debug_loc     0x0000000000016eac       0x58 c:/develop/altera/15.0/nios2eds/bin/gnu/h-x86_64-mingw32/bin/../lib/gcc/nios2-elf/4.9.1/../../../../../H-x86_64-mingw32/nios2-elf/lib/mhw-mulx\libc.a(lib_a-sbrkr.o)
 .debug_loc     0x0000000000016f04       0xe8 c:/develop/altera/15.0/nios2eds/bin/gnu/h-x86_64-mingw32/bin/../lib/gcc/nios2-elf/4.9.1/../../../../../H-x86_64-mingw32/nios2-elf/lib/mhw-mulx\libc.a(lib_a-strcpy.o)
 .debug_loc     0x0000000000016fec       0x47 c:/develop/altera/15.0/nios2eds/bin/gnu/h-x86_64-mingw32/bin/../lib/gcc/nios2-elf/4.9.1/../../../../../H-x86_64-mingw32/nios2-elf/lib/mhw-mulx\libc.a(lib_a-strlen.o)
 .debug_loc     0x0000000000017033     0x2d0e c:/develop/altera/15.0/nios2eds/bin/gnu/h-x86_64-mingw32/bin/../lib/gcc/nios2-elf/4.9.1/../../../../../H-x86_64-mingw32/nios2-elf/lib/mhw-mulx\libc.a(lib_a-vfprintf.o)
 .debug_loc     0x0000000000019d41       0x84 c:/develop/altera/15.0/nios2eds/bin/gnu/h-x86_64-mingw32/bin/../lib/gcc/nios2-elf/4.9.1/../../../../../H-x86_64-mingw32/nios2-elf/lib/mhw-mulx\libc.a(lib_a-wsetup.o)
 .debug_loc     0x0000000000019dc5     0x299a c:/develop/altera/15.0/nios2eds/bin/gnu/h-x86_64-mingw32/bin/../lib/gcc/nios2-elf/4.9.1/../../../../../H-x86_64-mingw32/nios2-elf/lib/mhw-mulx\libc.a(lib_a-dtoa.o)
 .debug_loc     0x000000000001c75f      0x23e c:/develop/altera/15.0/nios2eds/bin/gnu/h-x86_64-mingw32/bin/../lib/gcc/nios2-elf/4.9.1/../../../../../H-x86_64-mingw32/nios2-elf/lib/mhw-mulx\libc.a(lib_a-fflush.o)
 .debug_loc     0x000000000001c99d      0x208 c:/develop/altera/15.0/nios2eds/bin/gnu/h-x86_64-mingw32/bin/../lib/gcc/nios2-elf/4.9.1/../../../../../H-x86_64-mingw32/nios2-elf/lib/mhw-mulx\libc.a(lib_a-findfp.o)
 .debug_loc     0x000000000001cba5      0x4d3 c:/develop/altera/15.0/nios2eds/bin/gnu/h-x86_64-mingw32/bin/../lib/gcc/nios2-elf/4.9.1/../../../../../H-x86_64-mingw32/nios2-elf/lib/mhw-mulx\libc.a(lib_a-freer.o)
 .debug_loc     0x000000000001d078      0x5ca c:/develop/altera/15.0/nios2eds/bin/gnu/h-x86_64-mingw32/bin/../lib/gcc/nios2-elf/4.9.1/../../../../../H-x86_64-mingw32/nios2-elf/lib/mhw-mulx\libc.a(lib_a-fvwrite.o)
 .debug_loc     0x000000000001d642      0x2d4 c:/develop/altera/15.0/nios2eds/bin/gnu/h-x86_64-mingw32/bin/../lib/gcc/nios2-elf/4.9.1/../../../../../H-x86_64-mingw32/nios2-elf/lib/mhw-mulx\libc.a(lib_a-fwalk.o)
 .debug_loc     0x000000000001d916      0x11b c:/develop/altera/15.0/nios2eds/bin/gnu/h-x86_64-mingw32/bin/../lib/gcc/nios2-elf/4.9.1/../../../../../H-x86_64-mingw32/nios2-elf/lib/mhw-mulx\libc.a(lib_a-locale.o)
 .debug_loc     0x000000000001da31      0x132 c:/develop/altera/15.0/nios2eds/bin/gnu/h-x86_64-mingw32/bin/../lib/gcc/nios2-elf/4.9.1/../../../../../H-x86_64-mingw32/nios2-elf/lib/mhw-mulx\libc.a(lib_a-makebuf.o)
 .debug_loc     0x000000000001db63      0x19f c:/develop/altera/15.0/nios2eds/bin/gnu/h-x86_64-mingw32/bin/../lib/gcc/nios2-elf/4.9.1/../../../../../H-x86_64-mingw32/nios2-elf/lib/mhw-mulx\libc.a(lib_a-memchr.o)
 .debug_loc     0x000000000001dd02      0x34f c:/develop/altera/15.0/nios2eds/bin/gnu/h-x86_64-mingw32/bin/../lib/gcc/nios2-elf/4.9.1/../../../../../H-x86_64-mingw32/nios2-elf/lib/mhw-mulx\libc.a(lib_a-memmove.o)
 .debug_loc     0x000000000001e051     0x1a3e c:/develop/altera/15.0/nios2eds/bin/gnu/h-x86_64-mingw32/bin/../lib/gcc/nios2-elf/4.9.1/../../../../../H-x86_64-mingw32/nios2-elf/lib/mhw-mulx\libc.a(lib_a-mprec.o)
 .debug_loc     0x000000000001fa8f      0xe5b c:/develop/altera/15.0/nios2eds/bin/gnu/h-x86_64-mingw32/bin/../lib/gcc/nios2-elf/4.9.1/../../../../../H-x86_64-mingw32/nios2-elf/lib/mhw-mulx\libc.a(lib_a-reallocr.o)
 .debug_loc     0x00000000000208ea       0x2f c:/develop/altera/15.0/nios2eds/bin/gnu/h-x86_64-mingw32/bin/../lib/gcc/nios2-elf/4.9.1/../../../../../H-x86_64-mingw32/nios2-elf/lib/mhw-mulx\libc.a(lib_a-s_fpclassify.o)
 .debug_loc     0x0000000000020919      0x319 c:/develop/altera/15.0/nios2eds/bin/gnu/h-x86_64-mingw32/bin/../lib/gcc/nios2-elf/4.9.1/../../../../../H-x86_64-mingw32/nios2-elf/lib/mhw-mulx\libc.a(lib_a-stdio.o)
 .debug_loc     0x0000000000020c32       0xb0 c:/develop/altera/15.0/nios2eds/bin/gnu/h-x86_64-mingw32/bin/../lib/gcc/nios2-elf/4.9.1/../../../../../H-x86_64-mingw32/nios2-elf/lib/mhw-mulx\libc.a(lib_a-strcmp.o)
 .debug_loc     0x0000000000020ce2     0x2340 c:/develop/altera/15.0/nios2eds/bin/gnu/h-x86_64-mingw32/bin/../lib/gcc/nios2-elf/4.9.1/../../../../../H-x86_64-mingw32/nios2-elf/lib/mhw-mulx\libc.a(lib_a-vfiprintf.o)
 .debug_loc     0x0000000000023022       0xb0 c:/develop/altera/15.0/nios2eds/bin/gnu/h-x86_64-mingw32/bin/../lib/gcc/nios2-elf/4.9.1/../../../../../H-x86_64-mingw32/nios2-elf/lib/mhw-mulx\libc.a(lib_a-writer.o)
 .debug_loc     0x00000000000230d2       0x58 c:/develop/altera/15.0/nios2eds/bin/gnu/h-x86_64-mingw32/bin/../lib/gcc/nios2-elf/4.9.1/../../../../../H-x86_64-mingw32/nios2-elf/lib/mhw-mulx\libc.a(closer.o)
 .debug_loc     0x000000000002312a      0x24b c:/develop/altera/15.0/nios2eds/bin/gnu/h-x86_64-mingw32/bin/../lib/gcc/nios2-elf/4.9.1/../../../../../H-x86_64-mingw32/nios2-elf/lib/mhw-mulx\libc.a(lib_a-callocr.o)
 .debug_loc     0x0000000000023375      0x12b c:/develop/altera/15.0/nios2eds/bin/gnu/h-x86_64-mingw32/bin/../lib/gcc/nios2-elf/4.9.1/../../../../../H-x86_64-mingw32/nios2-elf/lib/mhw-mulx\libc.a(lib_a-fclose.o)
 .debug_loc     0x00000000000234a0      0x223 c:/develop/altera/15.0/nios2eds/bin/gnu/h-x86_64-mingw32/bin/../lib/gcc/nios2-elf/4.9.1/../../../../../H-x86_64-mingw32/nios2-elf/lib/mhw-mulx\libc.a(lib_a-fputwc.o)
 .debug_loc     0x00000000000236c3       0x84 c:/develop/altera/15.0/nios2eds/bin/gnu/h-x86_64-mingw32/bin/../lib/gcc/nios2-elf/4.9.1/../../../../../H-x86_64-mingw32/nios2-elf/lib/mhw-mulx\libc.a(lib_a-fstatr.o)
 .debug_loc     0x0000000000023747       0x58 c:/develop/altera/15.0/nios2eds/bin/gnu/h-x86_64-mingw32/bin/../lib/gcc/nios2-elf/4.9.1/../../../../../H-x86_64-mingw32/nios2-elf/lib/mhw-mulx\libc.a(lib_a-isattyr.o)
 .debug_loc     0x000000000002379f       0xb0 c:/develop/altera/15.0/nios2eds/bin/gnu/h-x86_64-mingw32/bin/../lib/gcc/nios2-elf/4.9.1/../../../../../H-x86_64-mingw32/nios2-elf/lib/mhw-mulx\libc.a(lib_a-lseekr.o)
 .debug_loc     0x000000000002384f       0xb0 c:/develop/altera/15.0/nios2eds/bin/gnu/h-x86_64-mingw32/bin/../lib/gcc/nios2-elf/4.9.1/../../../../../H-x86_64-mingw32/nios2-elf/lib/mhw-mulx\libc.a(lib_a-readr.o)
 .debug_loc     0x00000000000238ff      0x165 c:/develop/altera/15.0/nios2eds/bin/gnu/h-x86_64-mingw32/bin/../lib/gcc/nios2-elf/4.9.1/../../../../../H-x86_64-mingw32/nios2-elf/lib/mhw-mulx\libc.a(lib_a-wbuf.o)
 .debug_loc     0x0000000000023a64      0x230 c:/develop/altera/15.0/nios2eds/bin/gnu/h-x86_64-mingw32/bin/../lib/gcc/nios2-elf/4.9.1/../../../../../H-x86_64-mingw32/nios2-elf/lib/mhw-mulx\libc.a(lib_a-wcrtomb.o)
 .debug_loc     0x0000000000023c94       0x8f c:/develop/altera/15.0/nios2eds/bin/gnu/h-x86_64-mingw32/bin/../lib/gcc/nios2-elf/4.9.1/../../../../../H-x86_64-mingw32/nios2-elf/lib/mhw-mulx\libc.a(lib_a-wctomb_r.o)
 .debug_loc     0x0000000000023d23     0x11a3 c:/develop/altera/15.0/nios2eds/bin/gnu/h-x86_64-mingw32/bin/../lib/gcc/nios2-elf/4.9.1/mhw-mulx\libgcc.a(_udivdi3.o)
 .debug_loc     0x0000000000024ec6     0x118c c:/develop/altera/15.0/nios2eds/bin/gnu/h-x86_64-mingw32/bin/../lib/gcc/nios2-elf/4.9.1/mhw-mulx\libgcc.a(_umoddi3.o)
 .debug_loc     0x0000000000026052      0x273 c:/develop/altera/15.0/nios2eds/bin/gnu/h-x86_64-mingw32/bin/../lib/gcc/nios2-elf/4.9.1/mhw-mulx\libgcc.a(lib2-divmod.o)
 .debug_loc     0x00000000000262c5     0x16ec c:/develop/altera/15.0/nios2eds/bin/gnu/h-x86_64-mingw32/bin/../lib/gcc/nios2-elf/4.9.1/mhw-mulx\libgcc.a(adddf3.o)
 .debug_loc     0x00000000000279b1     0x1f03 c:/develop/altera/15.0/nios2eds/bin/gnu/h-x86_64-mingw32/bin/../lib/gcc/nios2-elf/4.9.1/mhw-mulx\libgcc.a(divdf3.o)
 .debug_loc     0x00000000000298b4       0x52 c:/develop/altera/15.0/nios2eds/bin/gnu/h-x86_64-mingw32/bin/../lib/gcc/nios2-elf/4.9.1/mhw-mulx\libgcc.a(eqdf2.o)
 .debug_loc     0x0000000000029906      0x109 c:/develop/altera/15.0/nios2eds/bin/gnu/h-x86_64-mingw32/bin/../lib/gcc/nios2-elf/4.9.1/mhw-mulx\libgcc.a(gedf2.o)
 .debug_loc     0x0000000000029a0f       0xfc c:/develop/altera/15.0/nios2eds/bin/gnu/h-x86_64-mingw32/bin/../lib/gcc/nios2-elf/4.9.1/mhw-mulx\libgcc.a(ledf2.o)
 .debug_loc     0x0000000000029b0b     0x107e c:/develop/altera/15.0/nios2eds/bin/gnu/h-x86_64-mingw32/bin/../lib/gcc/nios2-elf/4.9.1/mhw-mulx\libgcc.a(muldf3.o)
 .debug_loc     0x000000000002ab89     0x1660 c:/develop/altera/15.0/nios2eds/bin/gnu/h-x86_64-mingw32/bin/../lib/gcc/nios2-elf/4.9.1/mhw-mulx\libgcc.a(subdf3.o)
 .debug_loc     0x000000000002c1e9      0x136 c:/develop/altera/15.0/nios2eds/bin/gnu/h-x86_64-mingw32/bin/../lib/gcc/nios2-elf/4.9.1/mhw-mulx\libgcc.a(fixdfsi.o)
 .debug_loc     0x000000000002c31f      0x17f c:/develop/altera/15.0/nios2eds/bin/gnu/h-x86_64-mingw32/bin/../lib/gcc/nios2-elf/4.9.1/mhw-mulx\libgcc.a(floatsidf.o)
 .debug_loc     0x000000000002c49e      0x1b4 c:/develop/altera/15.0/nios2eds/bin/gnu/h-x86_64-mingw32/bin/../lib/gcc/nios2-elf/4.9.1/mhw-mulx\libgcc.a(floatunsidf.o)
 .debug_loc     0x000000000002c652       0x7a c:/develop/altera/15.0/nios2eds/bin/gnu/h-x86_64-mingw32/bin/../lib/gcc/nios2-elf/4.9.1/mhw-mulx\libgcc.a(_clzsi2.o)
 .debug_loc     0x000000000002c6cc       0xaf ../cineraria_wavplay_bsp/\libhal_bsp.a(alt_alarm_start.o)
 .debug_loc     0x000000000002c77b      0x113 ../cineraria_wavplay_bsp/\libhal_bsp.a(alt_close.o)
 .debug_loc     0x000000000002c88e       0x13 ../cineraria_wavplay_bsp/\libhal_bsp.a(alt_fs_reg.o)
 .debug_loc     0x000000000002c8a1       0xc4 ../cineraria_wavplay_bsp/\libhal_bsp.a(alt_fstat.o)
 .debug_loc     0x000000000002c965      0x129 ../cineraria_wavplay_bsp/\libhal_bsp.a(alt_iic.o)
 .debug_loc     0x000000000002ca8e      0x19e ../cineraria_wavplay_bsp/\libhal_bsp.a(alt_iic_isr_register.o)
 .debug_loc     0x000000000002cc2c       0x64 ../cineraria_wavplay_bsp/\libhal_bsp.a(alt_irq_handler.o)
 .debug_loc     0x000000000002cc90       0x93 ../cineraria_wavplay_bsp/\libhal_bsp.a(alt_isatty.o)
 .debug_loc     0x000000000002cd23      0x16d ../cineraria_wavplay_bsp/\libhal_bsp.a(alt_lseek.o)
 .debug_loc     0x000000000002ce90       0x1e ../cineraria_wavplay_bsp/\libhal_bsp.a(alt_main.o)
 .debug_loc     0x000000000002ceae      0x204 ../cineraria_wavplay_bsp/\libhal_bsp.a(alt_read.o)
 .debug_loc     0x000000000002d0b2       0x21 ../cineraria_wavplay_bsp/\libhal_bsp.a(alt_release_fd.o)
 .debug_loc     0x000000000002d0d3       0x47 ../cineraria_wavplay_bsp/\libhal_bsp.a(alt_sbrk.o)
 .debug_loc     0x000000000002d11a       0xe3 ../cineraria_wavplay_bsp/\libhal_bsp.a(alt_tick.o)
 .debug_loc     0x000000000002d1fd       0x21 ../cineraria_wavplay_bsp/\libhal_bsp.a(alt_uncached_free.o)
 .debug_loc     0x000000000002d21e       0xd7 ../cineraria_wavplay_bsp/\libhal_bsp.a(alt_uncached_malloc.o)
 .debug_loc     0x000000000002d2f5      0x204 ../cineraria_wavplay_bsp/\libhal_bsp.a(alt_write.o)
 .debug_loc     0x000000000002d4f9       0x21 ../cineraria_wavplay_bsp/\libhal_bsp.a(alt_sys_init.o)
 .debug_loc     0x000000000002d51a      0x1d3 ../cineraria_wavplay_bsp/\libhal_bsp.a(altera_avalon_jtag_uart_fd.o)
 .debug_loc     0x000000000002d6ed      0x164 ../cineraria_wavplay_bsp/\libhal_bsp.a(altera_avalon_jtag_uart_init.o)
 .debug_loc     0x000000000002d851       0xad ../cineraria_wavplay_bsp/\libhal_bsp.a(altera_avalon_jtag_uart_ioctl.o)
 .debug_loc     0x000000000002d8fe      0x226 ../cineraria_wavplay_bsp/\libhal_bsp.a(altera_avalon_jtag_uart_read.o)
 .debug_loc     0x000000000002db24      0x277 ../cineraria_wavplay_bsp/\libhal_bsp.a(altera_avalon_jtag_uart_write.o)
 .debug_loc     0x000000000002dd9b      0x10d ../cineraria_wavplay_bsp/\libhal_bsp.a(altera_avalon_timer_sc.o)
 .debug_loc     0x000000000002dea8      0xdb1 ../cineraria_wavplay_bsp/\libhal_bsp.a(altera_epcq_controller.o)
 .debug_loc     0x000000000002ec59       0x62 ../cineraria_wavplay_bsp/\libhal_bsp.a(alt_busy_sleep.o)
 .debug_loc     0x000000000002ecbb       0x60 ../cineraria_wavplay_bsp/\libhal_bsp.a(alt_dcache_flush.o)
 .debug_loc     0x000000000002ed1b       0x1f ../cineraria_wavplay_bsp/\libhal_bsp.a(alt_dcache_flush_all.o)
 .debug_loc     0x000000000002ed3a       0x7e ../cineraria_wavplay_bsp/\libhal_bsp.a(alt_dev_llist_insert.o)
 .debug_loc     0x000000000002edb8       0x2b ../cineraria_wavplay_bsp/\libhal_bsp.a(alt_do_ctors.o)
 .debug_loc     0x000000000002ede3       0x2b ../cineraria_wavplay_bsp/\libhal_bsp.a(alt_do_dtors.o)
 .debug_loc     0x000000000002ee0e       0x9a ../cineraria_wavplay_bsp/\libhal_bsp.a(alt_flash_dev.o)
 .debug_loc     0x000000000002eea8       0xaf ../cineraria_wavplay_bsp/\libhal_bsp.a(alt_instruction_exception_entry.o)
 .debug_loc     0x000000000002ef57      0x184 ../cineraria_wavplay_bsp/\libhal_bsp.a(alt_io_redirect.o)
 .debug_loc     0x000000000002f0db      0x2ca ../cineraria_wavplay_bsp/\libhal_bsp.a(alt_open.o)
 .debug_loc     0x000000000002f3a5       0x7e ../cineraria_wavplay_bsp/\libhal_bsp.a(alt_find_dev.o)
 .debug_loc     0x000000000002f423       0x94 ../cineraria_wavplay_bsp/\libhal_bsp.a(alt_find_file.o)
 .debug_loc     0x000000000002f4b7       0x7e ../cineraria_wavplay_bsp/\libhal_bsp.a(alt_get_fd.o)
 .debug_loc     0x000000000002f535       0x52 ../cineraria_wavplay_bsp/\libhal_bsp.a(alt_icache_flush.o)
 .debug_loc     0x000000000002f587       0x2c c:/develop/altera/15.0/nios2eds/bin/gnu/h-x86_64-mingw32/bin/../lib/gcc/nios2-elf/4.9.1/../../../../../H-x86_64-mingw32/nios2-elf/lib/mhw-mulx\libc.a(lib_a-atexit.o)
 .debug_loc     0x000000000002f5b3       0x1e c:/develop/altera/15.0/nios2eds/bin/gnu/h-x86_64-mingw32/bin/../lib/gcc/nios2-elf/4.9.1/../../../../../H-x86_64-mingw32/nios2-elf/lib/mhw-mulx\libc.a(lib_a-exit.o)
 .debug_loc     0x000000000002f5d1       0x58 c:/develop/altera/15.0/nios2eds/bin/gnu/h-x86_64-mingw32/bin/../lib/gcc/nios2-elf/4.9.1/../../../../../H-x86_64-mingw32/nios2-elf/lib/mhw-mulx\libc.a(lib_a-malign.o)
 .debug_loc     0x000000000002f629      0x272 c:/develop/altera/15.0/nios2eds/bin/gnu/h-x86_64-mingw32/bin/../lib/gcc/nios2-elf/4.9.1/../../../../../H-x86_64-mingw32/nios2-elf/lib/mhw-mulx\libc.a(lib_a-malignr.o)
 .debug_loc     0x000000000002f89b      0x126 c:/develop/altera/15.0/nios2eds/bin/gnu/h-x86_64-mingw32/bin/../lib/gcc/nios2-elf/4.9.1/../../../../../H-x86_64-mingw32/nios2-elf/lib/mhw-mulx\libc.a(lib_a-memcmp.o)
 .debug_loc     0x000000000002f9c1      0x185 c:/develop/altera/15.0/nios2eds/bin/gnu/h-x86_64-mingw32/bin/../lib/gcc/nios2-elf/4.9.1/../../../../../H-x86_64-mingw32/nios2-elf/lib/mhw-mulx\libc.a(lib_a-__atexit.o)
 .debug_loc     0x000000000002fb46      0x1a6 c:/develop/altera/15.0/nios2eds/bin/gnu/h-x86_64-mingw32/bin/../lib/gcc/nios2-elf/4.9.1/../../../../../H-x86_64-mingw32/nios2-elf/lib/mhw-mulx\libc.a(lib_a-__call_atexit.o)

.debug_macinfo
 *(.debug_macinfo)

.debug_weaknames
 *(.debug_weaknames)

.debug_funcnames
 *(.debug_funcnames)

.debug_typenames
 *(.debug_typenames)

.debug_varnames
 *(.debug_varnames)

.debug_alt_sim_info
                0x0000000000000000       0x50
 *(.debug_alt_sim_info)
 .debug_alt_sim_info
                0x0000000000000000       0x20 ../cineraria_wavplay_bsp//obj/HAL/src/crt0.o
 .debug_alt_sim_info
                0x0000000000000020       0x30 ../cineraria_wavplay_bsp/\libhal_bsp.a(alt_busy_sleep.o)
                0x0000000004000000                __alt_data_end = 0x4000000
                0x0000000004000000                PROVIDE (__alt_stack_pointer, __alt_data_end)
                0x0000000000049c48                PROVIDE (__alt_stack_limit, __alt_stack_base)
                0x0000000000049c48                PROVIDE (__alt_heap_start, end)
                0x0000000004000000                PROVIDE (__alt_heap_limit, 0x4000000)
OUTPUT(cineraria_wavplay.elf elf32-littlenios2)

.debug_ranges   0x0000000000000000     0x3010
 .debug_ranges  0x0000000000000000       0x18 obj/default/getfilename.o
 .debug_ranges  0x0000000000000018     0x1388 obj/default/mmcfs/fatfs/ff.o
 .debug_ranges  0x00000000000013a0      0x120 obj/default/mmcfs/fatfs/mmcbb.o
 .debug_ranges  0x00000000000014c0      0x428 obj/default/nd_lib/nd_egl.o
 .debug_ranges  0x00000000000018e8       0x50 obj/default/playwav.o
 .debug_ranges  0x0000000000001938       0x10 obj/default/wav_player.o
 .debug_ranges  0x0000000000001948       0x38 c:/develop/altera/15.0/nios2eds/bin/gnu/h-x86_64-mingw32/bin/../lib/gcc/nios2-elf/4.9.1/../../../../../H-x86_64-mingw32/nios2-elf/lib/mhw-mulx\libc.a(lib_a-mallocr.o)
 .debug_ranges  0x0000000000001980      0x130 c:/develop/altera/15.0/nios2eds/bin/gnu/h-x86_64-mingw32/bin/../lib/gcc/nios2-elf/4.9.1/../../../../../H-x86_64-mingw32/nios2-elf/lib/mhw-mulx\libc.a(lib_a-vfprintf.o)
 .debug_ranges  0x0000000000001ab0       0x20 c:/develop/altera/15.0/nios2eds/bin/gnu/h-x86_64-mingw32/bin/../lib/gcc/nios2-elf/4.9.1/../../../../../H-x86_64-mingw32/nios2-elf/lib/mhw-mulx\libc.a(lib_a-fflush.o)
 .debug_ranges  0x0000000000001ad0       0x68 c:/develop/altera/15.0/nios2eds/bin/gnu/h-x86_64-mingw32/bin/../lib/gcc/nios2-elf/4.9.1/../../../../../H-x86_64-mingw32/nios2-elf/lib/mhw-mulx\libc.a(lib_a-findfp.o)
 .debug_ranges  0x0000000000001b38       0x18 c:/develop/altera/15.0/nios2eds/bin/gnu/h-x86_64-mingw32/bin/../lib/gcc/nios2-elf/4.9.1/../../../../../H-x86_64-mingw32/nios2-elf/lib/mhw-mulx\libc.a(lib_a-fvwrite.o)
 .debug_ranges  0x0000000000001b50       0x40 c:/develop/altera/15.0/nios2eds/bin/gnu/h-x86_64-mingw32/bin/../lib/gcc/nios2-elf/4.9.1/../../../../../H-x86_64-mingw32/nios2-elf/lib/mhw-mulx\libc.a(lib_a-fwalk.o)
 .debug_ranges  0x0000000000001b90       0x18 c:/develop/altera/15.0/nios2eds/bin/gnu/h-x86_64-mingw32/bin/../lib/gcc/nios2-elf/4.9.1/../../../../../H-x86_64-mingw32/nios2-elf/lib/mhw-mulx\libc.a(lib_a-locale.o)
 .debug_ranges  0x0000000000001ba8       0x50 c:/develop/altera/15.0/nios2eds/bin/gnu/h-x86_64-mingw32/bin/../lib/gcc/nios2-elf/4.9.1/../../../../../H-x86_64-mingw32/nios2-elf/lib/mhw-mulx\libc.a(lib_a-mprec.o)
 .debug_ranges  0x0000000000001bf8      0x140 c:/develop/altera/15.0/nios2eds/bin/gnu/h-x86_64-mingw32/bin/../lib/gcc/nios2-elf/4.9.1/../../../../../H-x86_64-mingw32/nios2-elf/lib/mhw-mulx\libc.a(lib_a-reallocr.o)
 .debug_ranges  0x0000000000001d38      0x1c0 c:/develop/altera/15.0/nios2eds/bin/gnu/h-x86_64-mingw32/bin/../lib/gcc/nios2-elf/4.9.1/../../../../../H-x86_64-mingw32/nios2-elf/lib/mhw-mulx\libc.a(lib_a-vfiprintf.o)
 .debug_ranges  0x0000000000001ef8       0x48 c:/develop/altera/15.0/nios2eds/bin/gnu/h-x86_64-mingw32/bin/../lib/gcc/nios2-elf/4.9.1/../../../../../H-x86_64-mingw32/nios2-elf/lib/mhw-mulx\libc.a(lib_a-callocr.o)
 .debug_ranges  0x0000000000001f40       0x18 c:/develop/altera/15.0/nios2eds/bin/gnu/h-x86_64-mingw32/bin/../lib/gcc/nios2-elf/4.9.1/../../../../../H-x86_64-mingw32/nios2-elf/lib/mhw-mulx\libc.a(lib_a-fclose.o)
 .debug_ranges  0x0000000000001f58       0x18 c:/develop/altera/15.0/nios2eds/bin/gnu/h-x86_64-mingw32/bin/../lib/gcc/nios2-elf/4.9.1/../../../../../H-x86_64-mingw32/nios2-elf/lib/mhw-mulx\libc.a(lib_a-fputwc.o)
 .debug_ranges  0x0000000000001f70      0x170 c:/develop/altera/15.0/nios2eds/bin/gnu/h-x86_64-mingw32/bin/../lib/gcc/nios2-elf/4.9.1/mhw-mulx\libgcc.a(_udivdi3.o)
 .debug_ranges  0x00000000000020e0      0x150 c:/develop/altera/15.0/nios2eds/bin/gnu/h-x86_64-mingw32/bin/../lib/gcc/nios2-elf/4.9.1/mhw-mulx\libgcc.a(_umoddi3.o)
 .debug_ranges  0x0000000000002230      0x238 c:/develop/altera/15.0/nios2eds/bin/gnu/h-x86_64-mingw32/bin/../lib/gcc/nios2-elf/4.9.1/mhw-mulx\libgcc.a(adddf3.o)
 .debug_ranges  0x0000000000002468      0x140 c:/develop/altera/15.0/nios2eds/bin/gnu/h-x86_64-mingw32/bin/../lib/gcc/nios2-elf/4.9.1/mhw-mulx\libgcc.a(divdf3.o)
 .debug_ranges  0x00000000000025a8       0x48 c:/develop/altera/15.0/nios2eds/bin/gnu/h-x86_64-mingw32/bin/../lib/gcc/nios2-elf/4.9.1/mhw-mulx\libgcc.a(eqdf2.o)
 .debug_ranges  0x00000000000025f0       0x90 c:/develop/altera/15.0/nios2eds/bin/gnu/h-x86_64-mingw32/bin/../lib/gcc/nios2-elf/4.9.1/mhw-mulx\libgcc.a(gedf2.o)
 .debug_ranges  0x0000000000002680       0x88 c:/develop/altera/15.0/nios2eds/bin/gnu/h-x86_64-mingw32/bin/../lib/gcc/nios2-elf/4.9.1/mhw-mulx\libgcc.a(ledf2.o)
 .debug_ranges  0x0000000000002708      0x218 c:/develop/altera/15.0/nios2eds/bin/gnu/h-x86_64-mingw32/bin/../lib/gcc/nios2-elf/4.9.1/mhw-mulx\libgcc.a(muldf3.o)
 .debug_ranges  0x0000000000002920      0x258 c:/develop/altera/15.0/nios2eds/bin/gnu/h-x86_64-mingw32/bin/../lib/gcc/nios2-elf/4.9.1/mhw-mulx\libgcc.a(subdf3.o)
 .debug_ranges  0x0000000000002b78       0x38 c:/develop/altera/15.0/nios2eds/bin/gnu/h-x86_64-mingw32/bin/../lib/gcc/nios2-elf/4.9.1/mhw-mulx\libgcc.a(fixdfsi.o)
 .debug_ranges  0x0000000000002bb0       0x30 c:/develop/altera/15.0/nios2eds/bin/gnu/h-x86_64-mingw32/bin/../lib/gcc/nios2-elf/4.9.1/mhw-mulx\libgcc.a(floatsidf.o)
 .debug_ranges  0x0000000000002be0       0x18 c:/develop/altera/15.0/nios2eds/bin/gnu/h-x86_64-mingw32/bin/../lib/gcc/nios2-elf/4.9.1/mhw-mulx\libgcc.a(floatunsidf.o)
 .debug_ranges  0x0000000000002bf8       0x18 c:/develop/altera/15.0/nios2eds/bin/gnu/h-x86_64-mingw32/bin/../lib/gcc/nios2-elf/4.9.1/mhw-mulx\libgcc.a(_clzsi2.o)
 .debug_ranges  0x0000000000002c10       0x18 ../cineraria_wavplay_bsp/\libhal_bsp.a(alt_close.o)
 .debug_ranges  0x0000000000002c28       0x18 ../cineraria_wavplay_bsp/\libhal_bsp.a(alt_fs_reg.o)
 .debug_ranges  0x0000000000002c40       0x20 ../cineraria_wavplay_bsp/\libhal_bsp.a(alt_fstat.o)
 .debug_ranges  0x0000000000002c60       0x28 ../cineraria_wavplay_bsp/\libhal_bsp.a(alt_irq_entry.o)
 .debug_ranges  0x0000000000002c88       0x10 ../cineraria_wavplay_bsp/\libhal_bsp.a(alt_irq_handler.o)
 .debug_ranges  0x0000000000002c98       0x18 ../cineraria_wavplay_bsp/\libhal_bsp.a(alt_isatty.o)
 .debug_ranges  0x0000000000002cb0       0x18 ../cineraria_wavplay_bsp/\libhal_bsp.a(alt_load.o)
 .debug_ranges  0x0000000000002cc8       0x18 ../cineraria_wavplay_bsp/\libhal_bsp.a(alt_lseek.o)
 .debug_ranges  0x0000000000002ce0       0x30 ../cineraria_wavplay_bsp/\libhal_bsp.a(alt_read.o)
 .debug_ranges  0x0000000000002d10       0x30 ../cineraria_wavplay_bsp/\libhal_bsp.a(alt_tick.o)
 .debug_ranges  0x0000000000002d40       0x30 ../cineraria_wavplay_bsp/\libhal_bsp.a(alt_write.o)
 .debug_ranges  0x0000000000002d70       0x50 ../cineraria_wavplay_bsp/\libhal_bsp.a(altera_avalon_jtag_uart_init.o)
 .debug_ranges  0x0000000000002dc0       0x20 ../cineraria_wavplay_bsp/\libhal_bsp.a(altera_avalon_jtag_uart_read.o)
 .debug_ranges  0x0000000000002de0       0x48 ../cineraria_wavplay_bsp/\libhal_bsp.a(altera_avalon_jtag_uart_write.o)
 .debug_ranges  0x0000000000002e28       0x18 ../cineraria_wavplay_bsp/\libhal_bsp.a(altera_avalon_timer_sc.o)
 .debug_ranges  0x0000000000002e40       0xb0 ../cineraria_wavplay_bsp/\libhal_bsp.a(altera_epcq_controller.o)
 .debug_ranges  0x0000000000002ef0       0x38 ../cineraria_wavplay_bsp/\libhal_bsp.a(alt_dev_llist_insert.o)
 .debug_ranges  0x0000000000002f28       0x30 ../cineraria_wavplay_bsp/\libhal_bsp.a(alt_exception_entry.o)
 .debug_ranges  0x0000000000002f58       0x18 ../cineraria_wavplay_bsp/\libhal_bsp.a(alt_instruction_exception_entry.o)
 .debug_ranges  0x0000000000002f70       0x30 ../cineraria_wavplay_bsp/\libhal_bsp.a(alt_io_redirect.o)
 .debug_ranges  0x0000000000002fa0       0x30 ../cineraria_wavplay_bsp/\libhal_bsp.a(alt_open.o)
 .debug_ranges  0x0000000000002fd0       0x10 ../cineraria_wavplay_bsp/\libhal_bsp.a(alt_icache_flush.o)
 .debug_ranges  0x0000000000002fe0       0x18 c:/develop/altera/15.0/nios2eds/bin/gnu/h-x86_64-mingw32/bin/../lib/gcc/nios2-elf/4.9.1/../../../../../H-x86_64-mingw32/nios2-elf/lib/mhw-mulx\libc.a(lib_a-__call_atexit.o)
 .debug_ranges  0x0000000000002ff8       0x18 ../cineraria_wavplay_bsp/\libhal_bsp.a(alt_exit.o)
