
cineraria_wavplay.elf:     file format elf32-littlenios2
cineraria_wavplay.elf
architecture: nios2:r1, flags 0x00000112:
EXEC_P, HAS_SYMS, D_PAGED
start address 0x0000018c

Program Header:
    LOAD off    0x00001020 vaddr 0x00000020 paddr 0x00000020 align 2**12
         filesz 0x0002dc4c memsz 0x00049c28 flags rwx
    LOAD off    0x0002f000 vaddr 0x0f000000 paddr 0x0f000000 align 2**12
         filesz 0x00000000 memsz 0x00000000 flags r-x

Sections:
Idx Name          Size      VMA       LMA       File off  Algn
  0 .entry        00000000  0f000000  0f000000  0002f000  2**5
                  CONTENTS, ALLOC, LOAD, READONLY, CODE
  1 .exceptions   0000016c  00000020  00000020  00001020  2**2
                  CONTENTS, ALLOC, LOAD, READONLY, CODE
  2 .text         0001cbfc  0000018c  0000018c  0000118c  2**2
                  CONTENTS, ALLOC, LOAD, READONLY, CODE
  3 .rodata       0000f2e8  0001cd88  0001cd88  0001dd88  2**2
                  CONTENTS, ALLOC, LOAD, READONLY, DATA
  4 .rwdata       00001bfc  0002c070  0002c070  0002d070  2**2
                  CONTENTS, ALLOC, LOAD, DATA, SMALL_DATA
  5 .bss          0001bfdc  0002dc6c  0002dc6c  0002ec6c  2**2
                  ALLOC, SMALL_DATA
  6 .sdram        00000000  00049c48  00049c48  0002f000  2**0
                  CONTENTS
  7 .bootmem      00000000  0f000020  0f000020  0002f000  2**0
                  CONTENTS
  8 .epcq_avl_mem 00000000  10800000  10800000  0002f000  2**0
                  CONTENTS
  9 .comment      00000023  00000000  00000000  0002f000  2**0
                  CONTENTS, READONLY
 10 .debug_aranges 00000fc8  00000000  00000000  0002f028  2**3
                  CONTENTS, READONLY, DEBUGGING
 11 .debug_info   00033ac6  00000000  00000000  0002fff0  2**0
                  CONTENTS, READONLY, DEBUGGING
 12 .debug_abbrev 0000bc3d  00000000  00000000  00063ab6  2**0
                  CONTENTS, READONLY, DEBUGGING
 13 .debug_line   0000f891  00000000  00000000  0006f6f3  2**0
                  CONTENTS, READONLY, DEBUGGING
 14 .debug_frame  000030fc  00000000  00000000  0007ef84  2**2
                  CONTENTS, READONLY, DEBUGGING
 15 .debug_str    000049fc  00000000  00000000  00082080  2**0
                  CONTENTS, READONLY, DEBUGGING
 16 .debug_loc    0002fcec  00000000  00000000  00086a7c  2**0
                  CONTENTS, READONLY, DEBUGGING
 17 .debug_alt_sim_info 00000050  00000000  00000000  000b6768  2**2
                  CONTENTS, READONLY, DEBUGGING
 18 .debug_ranges 00003010  00000000  00000000  000b67b8  2**3
                  CONTENTS, READONLY, DEBUGGING
 19 .thread_model 00000003  00000000  00000000  000bde1a  2**0
                  CONTENTS, READONLY
 20 .cpu          0000000a  00000000  00000000  000bde1d  2**0
                  CONTENTS, READONLY
 21 .qsys         00000001  00000000  00000000  000bde27  2**0
                  CONTENTS, READONLY
 22 .simulation_enabled 00000001  00000000  00000000  000bde28  2**0
                  CONTENTS, READONLY
 23 .sysid_hash   00000004  00000000  00000000  000bde29  2**0
                  CONTENTS, READONLY
 24 .sysid_base   00000004  00000000  00000000  000bde2d  2**0
                  CONTENTS, READONLY
 25 .sysid_time   00000004  00000000  00000000  000bde31  2**0
                  CONTENTS, READONLY
 26 .stderr_dev   00000009  00000000  00000000  000bde35  2**0
                  CONTENTS, READONLY
 27 .stdin_dev    00000009  00000000  00000000  000bde3e  2**0
                  CONTENTS, READONLY
 28 .stdout_dev   00000009  00000000  00000000  000bde47  2**0
                  CONTENTS, READONLY
 29 .sopc_system_name 0000000e  00000000  00000000  000bde50  2**0
                  CONTENTS, READONLY
 30 .quartus_project_dir 00000023  00000000  00000000  000bde5e  2**0
                  CONTENTS, READONLY
 31 .jdi          00004431  00000000  00000000  000bde81  2**0
                  CONTENTS, READONLY
 32 .sopcinfo     000a2604  00000000  00000000  000c22b2  2**0
                  CONTENTS, READONLY
SYMBOL TABLE:
0f000000 l    d  .entry	00000000 .entry
00000020 l    d  .exceptions	00000000 .exceptions
0000018c l    d  .text	00000000 .text
0001cd88 l    d  .rodata	00000000 .rodata
0002c070 l    d  .rwdata	00000000 .rwdata
0002dc6c l    d  .bss	00000000 .bss
00049c48 l    d  .sdram	00000000 .sdram
0f000020 l    d  .bootmem	00000000 .bootmem
10800000 l    d  .epcq_avl_mem	00000000 .epcq_avl_mem
00000000 l    d  .comment	00000000 .comment
00000000 l    d  .debug_aranges	00000000 .debug_aranges
00000000 l    d  .debug_info	00000000 .debug_info
00000000 l    d  .debug_abbrev	00000000 .debug_abbrev
00000000 l    d  .debug_line	00000000 .debug_line
00000000 l    d  .debug_frame	00000000 .debug_frame
00000000 l    d  .debug_str	00000000 .debug_str
00000000 l    d  .debug_loc	00000000 .debug_loc
00000000 l    d  .debug_alt_sim_info	00000000 .debug_alt_sim_info
00000000 l    d  .debug_ranges	00000000 .debug_ranges
00000000 l    df *ABS*	00000000 ../cineraria_wavplay_bsp//obj/HAL/src/crt0.o
000001d4 l       .text	00000000 alt_after_alt_main
00000000 l    df *ABS*	00000000 alt_irq_handler.c
00000000 l    df *ABS*	00000000 alt_instruction_exception_entry.c
00000000 l    df *ABS*	00000000 disp7seg.c
0002dc6c l     O .bss	00000004 disccnt.2992
0002dcf0 l     O .bss	00000018 hal_alarm
00000000 l    df *ABS*	00000000 drawwave.c
0002dc74 l     O .bss	00000004 g_pbuff
0002dc70 l     O .bss	00000004 g_ypos
0002dd08 l     O .bss	00019000 dbuff.3064
00000000 l    df *ABS*	00000000 getfilename.c
00046e08 l     O .bss	00000020 fatfs_fno
00046d08 l     O .bss	00000100 fslfn
00046e28 l     O .bss	00000024 fatfs_dir
00000000 l    df *ABS*	00000000 loadbmp.c
00000000 l    df *ABS*	00000000 ff.c
00000e78 l     F .text	00000104 move_window
00000f7c l     F .text	00000618 get_fileinfo
00001594 l     F .text	000001a8 sync
0000173c l     F .text	0000043c put_fat.part.4
00001b78 l     F .text	000004e8 remove_chain.part.6
00002060 l     F .text	00000618 chk_mounted
0002dc7c l     O .bss	00000004 FatFs
0002dc78 l     O .bss	00000002 Fsid
00002678 l     F .text	00000404 get_fat.part.3
00002a7c l     F .text	00000160 dir_sdi
00002bdc l     F .text	00000588 create_chain
00003164 l     F .text	0000011c dir_next.constprop.7
00003280 l     F .text	00000460 dir_read
0001ce33 l     O .rodata	0000000d LfnOfs
000036e0 l     F .text	00000500 dir_find.part.5
00003be0 l     F .text	000005e8 follow_path
00004e30 l     F .text	000009a8 dir_register
00046e4c l     O .bss	00000200 LfnBuf
00000000 l    df *ABS*	00000000 mmcbb.c
0000b0b4 l     F .text	00000150 send_cmd
0002dc20 l     O .rwdata	00000001 Stat
0002dc80 l     O .bss	00000001 CardType
00000000 l    df *ABS*	00000000 cc932.c
00024578 l     O .rodata	00007378 uni2sjis
0001d200 l     O .rodata	00007378 sjis2uni
0001d020 l     O .rodata	000001e0 tbl_lower.1661
0001ce40 l     O .rodata	000001e0 tbl_upper.1662
00000000 l    df *ABS*	00000000 gettime.c
00000000 l    df *ABS*	00000000 mmc_spi.c
0002dc88 l     O .bss	00000004 mmc_spi_reg
0002dc84 l     O .bss	00000004 mmc_spi_ncs
00000000 l    df *ABS*	00000000 mmcfs.c
0002dc8c l     O .bss	00000004 dev_mmcfs_fd_num
000494bc l     O .bss	00000040 dev_mmcfs_fd
0004727c l     O .bss	00002240 dev_mmcfs_table
0004704c l     O .bss	00000230 dev_mmc_fatfsobj
0002c070 l     O .rwdata	00000028 dev_mmcfs_inst
00000000 l    df *ABS*	00000000 nd_egl.c
0002dca0 l     O .bss	00000004 nd_color
0002dc9c l     O .bss	00000004 nd_bgcolor
0002dc98 l     O .bss	00000004 nd_pastel
0002dc90 l     O .bss	00000004 pFONTX_ascii_top
0002dc94 l     O .bss	00000004 pFONTX_kanji_top
00000000 l    df *ABS*	00000000 playwav.c
0000e0bc l     F .text	00000100 isr_handle_pcmfifofill
0002dcb0 l     O .bss	00000004 g_playsize
0002dcb4 l     O .bss	00000004 g_wavsize
000494fc l     O .bss	00000400 g_datbuff
000498fc l     O .bss	00000224 g_fsobj
00000000 l    df *ABS*	00000000 wav_player.c
00000000 l    df *ABS*	00000000 malloc.c
00000000 l    df *ABS*	00000000 mallocr.c
00000000 l    df *ABS*	00000000 memcpy.c
00000000 l    df *ABS*	00000000 memset.c
00000000 l    df *ABS*	00000000 printf.c
00000000 l    df *ABS*	00000000 puts.c
00000000 l    df *ABS*	00000000 sbrkr.c
00000000 l    df *ABS*	00000000 strcpy.c
00000000 l    df *ABS*	00000000 strlen.c
00000000 l    df *ABS*	00000000 vfprintf.c
0002bdba l     O .rodata	00000010 zeroes.4181
0002bdca l     O .rodata	00000010 blanks.4180
00000000 l    df *ABS*	00000000 wsetup.c
00000000 l    df *ABS*	00000000 dtoa.c
00011558 l     F .text	00000200 quorem
00000000 l    df *ABS*	00000000 fflush.c
00000000 l    df *ABS*	00000000 findfp.c
000130d8 l     F .text	00000008 __fp_lock
000130e0 l     F .text	00000008 __fp_unlock
000130f4 l     F .text	000001a0 __sinit.part.1
00000000 l    df *ABS*	00000000 mallocr.c
00000000 l    df *ABS*	00000000 fvwrite.c
00000000 l    df *ABS*	00000000 fwalk.c
00000000 l    df *ABS*	00000000 impure.c
0002c4a0 l     O .rwdata	00000424 impure_data
00000000 l    df *ABS*	00000000 int_errno.c
00000000 l    df *ABS*	00000000 locale.c
0002c8e4 l     O .rwdata	00000020 lc_ctype_charset
0002c8c4 l     O .rwdata	00000020 lc_message_charset
0002c904 l     O .rwdata	00000038 lconv
00000000 l    df *ABS*	00000000 makebuf.c
00000000 l    df *ABS*	00000000 memchr.c
00000000 l    df *ABS*	00000000 memmove.c
00000000 l    df *ABS*	00000000 mprec.c
0002bdfc l     O .rodata	0000000c p05.2678
00000000 l    df *ABS*	00000000 mallocr.c
00000000 l    df *ABS*	00000000 s_fpclassify.c
00000000 l    df *ABS*	00000000 stdio.c
00000000 l    df *ABS*	00000000 strcmp.c
00000000 l    df *ABS*	00000000 vfprintf.c
00015afc l     F .text	000000fc __sprint_r.part.0
0002bf30 l     O .rodata	00000010 blanks.4125
0002bf20 l     O .rodata	00000010 zeroes.4126
00000000 l    df *ABS*	00000000 writer.c
00000000 l    df *ABS*	00000000 closer.c
00000000 l    df *ABS*	00000000 mallocr.c
00000000 l    df *ABS*	00000000 fclose.c
00000000 l    df *ABS*	00000000 fputwc.c
00000000 l    df *ABS*	00000000 fstatr.c
00000000 l    df *ABS*	00000000 isattyr.c
00000000 l    df *ABS*	00000000 lseekr.c
00000000 l    df *ABS*	00000000 readr.c
00000000 l    df *ABS*	00000000 wbuf.c
00000000 l    df *ABS*	00000000 wcrtomb.c
00000000 l    df *ABS*	00000000 wctomb_r.c
00000000 l    df *ABS*	00000000 libgcc2.c
00000000 l    df *ABS*	00000000 libgcc2.c
00000000 l    df *ABS*	00000000 lib2-divmod.c
00018418 l     F .text	0000006c udivmodsi4
00000000 l    df *ABS*	00000000 adddf3.c
00000000 l    df *ABS*	00000000 divdf3.c
00000000 l    df *ABS*	00000000 eqdf2.c
00000000 l    df *ABS*	00000000 gedf2.c
00000000 l    df *ABS*	00000000 ledf2.c
00000000 l    df *ABS*	00000000 muldf3.c
00000000 l    df *ABS*	00000000 subdf3.c
00000000 l    df *ABS*	00000000 fixdfsi.c
00000000 l    df *ABS*	00000000 floatsidf.c
00000000 l    df *ABS*	00000000 floatunsidf.c
00000000 l    df *ABS*	00000000 libgcc2.c
00000000 l    df *ABS*	00000000 libgcc2.c
00000000 l    df *ABS*	00000000 alt_alarm_start.c
00000000 l    df *ABS*	00000000 alt_close.c
00000000 l    df *ABS*	00000000 alt_dev.c
0001aca8 l     F .text	00000008 alt_dev_null_write
00000000 l    df *ABS*	00000000 alt_errno.c
00000000 l    df *ABS*	00000000 alt_fs_reg.c
00000000 l    df *ABS*	00000000 alt_fstat.c
00000000 l    df *ABS*	00000000 alt_iic.c
00000000 l    df *ABS*	00000000 alt_iic_isr_register.c
00000000 l    df *ABS*	00000000 alt_irq_vars.c
00000000 l    df *ABS*	00000000 alt_isatty.c
00000000 l    df *ABS*	00000000 alt_load.c
00000000 l    df *ABS*	00000000 alt_lseek.c
00000000 l    df *ABS*	00000000 alt_main.c
00000000 l    df *ABS*	00000000 alt_malloc_lock.c
00000000 l    df *ABS*	00000000 alt_read.c
00000000 l    df *ABS*	00000000 alt_release_fd.c
00000000 l    df *ABS*	00000000 alt_sbrk.c
0002dc58 l     O .rwdata	00000004 heap_end
00000000 l    df *ABS*	00000000 alt_tick.c
00000000 l    df *ABS*	00000000 alt_uncached_free.c
00000000 l    df *ABS*	00000000 alt_uncached_malloc.c
00000000 l    df *ABS*	00000000 alt_write.c
00000000 l    df *ABS*	00000000 alt_sys_init.c
0002cbc0 l     O .rwdata	00001060 jtag_uart
0002cae4 l     O .rwdata	000000dc epcq
00000000 l    df *ABS*	00000000 altera_avalon_jtag_uart_fd.c
00000000 l    df *ABS*	00000000 altera_avalon_jtag_uart_init.c
0001b544 l     F .text	0000005c altera_avalon_jtag_uart_timeout
0001b5a0 l     F .text	00000100 altera_avalon_jtag_uart_irq
00000000 l    df *ABS*	00000000 altera_avalon_jtag_uart_ioctl.c
00000000 l    df *ABS*	00000000 altera_avalon_jtag_uart_read.c
00000000 l    df *ABS*	00000000 altera_avalon_jtag_uart_write.c
00000000 l    df *ABS*	00000000 altera_avalon_timer_sc.c
0001bac0 l     F .text	0000003c alt_avalon_timer_sc_irq
00000000 l    df *ABS*	00000000 altera_epcq_controller.c
00000000 l    df *ABS*	00000000 alt_busy_sleep.c
00000000 l    df *ABS*	00000000 alt_dcache_flush.c
00000000 l    df *ABS*	00000000 alt_dcache_flush_all.c
00000000 l    df *ABS*	00000000 alt_dev_llist_insert.c
00000000 l    df *ABS*	00000000 alt_do_ctors.c
00000000 l    df *ABS*	00000000 alt_do_dtors.c
00000000 l    df *ABS*	00000000 alt_flash_dev.c
00000000 l    df *ABS*	00000000 alt_icache_flush_all.c
00000000 l    df *ABS*	00000000 alt_io_redirect.c
00000000 l    df *ABS*	00000000 alt_open.c
00000000 l    df *ABS*	00000000 altera_nios2_gen2_irq.c
00000000 l    df *ABS*	00000000 alt_find_dev.c
00000000 l    df *ABS*	00000000 alt_find_file.c
00000000 l    df *ABS*	00000000 alt_get_fd.c
00000000 l    df *ABS*	00000000 alt_icache_flush.c
00000000 l    df *ABS*	00000000 atexit.c
00000000 l    df *ABS*	00000000 exit.c
00000000 l    df *ABS*	00000000 malign.c
00000000 l    df *ABS*	00000000 mallocr.c
00000000 l    df *ABS*	00000000 memcmp.c
00000000 l    df *ABS*	00000000 __atexit.c
00000000 l    df *ABS*	00000000 __call_atexit.c
00000000 l    df *ABS*	00000000 alt_exit.c
0002dcec g     O .bss	00000004 alt_instruction_exception_handler
00015190 g     F .text	00000074 _mprec_log10
0001527c g     F .text	0000008c __any_on
0001744c g     F .text	00000054 _isatty_r
000001d8 g     F .text	00000218 hal_alarm_callback
0002be08 g     O .rodata	00000028 __mprec_tinytens
0001b048 g     F .text	00000060 alt_main
0000f2e0 g     F .text	00000090 strcpy
0000f1c0 g     F .text	000000b8 _puts_r
00049b48 g     O .bss	00000100 alt_irq
000174a0 g     F .text	0000005c _lseek_r
000041f4 g     F .text	00000428 get_fat
0000bccc g     F .text	00000014 mmc_spi_SetCardSelect
0002c070 g       *ABS*	00000000 __flash_rwdata_start
000196ac g     F .text	00000084 .hidden __eqdf2
00049c48 g       *ABS*	00000000 __alt_heap_start
0000c350 g     F .text	0000001c nd_GsVgaSetBuffer
0000f184 g     F .text	0000003c printf
000176c8 g     F .text	0000009c _wcrtomb_r
0000e214 g     F .text	0000001c play_status
000159f4 g     F .text	0000005c __sseek
00013428 g     F .text	00000010 __sinit
00017558 g     F .text	00000154 __swbuf_r
00013ea0 g     F .text	0000007c _setlocale_r
00013294 g     F .text	00000064 __sfmoreglue
0001b0ac g     F .text	00000004 __malloc_unlock
000009c8 g     F .text	00000114 get_wavfilename
00014220 g     F .text	0000015c memmove
0000c090 g     F .text	00000074 dev_mmcfs_close
00013410 g     F .text	00000018 _cleanup
0001437c g     F .text	000000a8 _Balloc
0000c41c g     F .text	00000044 nd_GsEglPage
00019730 g     F .text	000000e0 .hidden __gtdf2
0001c664 g     F .text	00000008 altera_nios2_gen2_irq_init
00000000  w      *UND*	00000000 __errno
0f000000 g     F .entry	00000000 __reset
0000c164 g     F .text	0000006c dev_mmcfs_lseek
00000020 g       *ABS*	00000000 __flash_exceptions_start
000173f4 g     F .text	00000058 _fstat_r
0002dcc4 g     O .bss	00000004 errno
00015970 g     F .text	00000008 __seofread
0000bce0 g     F .text	00000018 mmc_spi_SetCardDeselect
0000e2fc g     F .text	000002a8 play_wav
0002dcdc g     O .bss	00000004 alt_argv
00035c20 g       *ABS*	00000000 _gp
0000d180 g     F .text	000002ec nd_GsEglPutcharFont
0000bc6c g     F .text	00000058 ff_wtoupper
0000c2fc g     F .text	00000020 nd_GsVgaVsync_isrdisable
0000dc3c g     F .text	000002b4 nd_GsEglPuthex2
0001b344 g     F .text	0000005c alt_uncached_malloc
0000e1bc g     F .text	00000058 play_init
0002c93c g     O .rwdata	00000180 alt_fd_list
0001c66c g     F .text	00000078 alt_find_dev
0000eefc g     F .text	00000138 memcpy
0000be98 g     F .text	00000010 mmc_spi_SetIdentClock
000130e8 g     F .text	0000000c _cleanup_r
0001a96c g     F .text	000000d0 .hidden __floatsidf
0001acb0 g     F .text	00000038 alt_fs_reg
0001c3c0 g     F .text	00000104 alt_io_redirect
00019810 g     F .text	000000e0 .hidden __ltdf2
0001cd88 g       *ABS*	00000000 __DTOR_END__
0000be5c g     F .text	00000014 mmc_spi_CheckCardDetect
0000b2b4 g     F .text	0000024c disk_initialize
0000f278 g     F .text	00000014 puts
0001c34c g     F .text	00000074 alt_exception_cause_generated_bad_addr
000158a8 g     F .text	00000074 __fpclassifyd
000150ec g     F .text	000000a4 __ratio
00016f6c g     F .text	00000024 __vfiprintf_internal
0000a704 g     F .text	000009b0 f_rename
0001b7e4 g     F .text	0000013c altera_avalon_jtag_uart_read
0000e72c g     F .text	00000014 malloc
0000f158 g     F .text	0000002c _printf_r
00018534 g     F .text	00000008 .hidden __udivsi3
0001ae6c g     F .text	0000008c isatty
0002be58 g     O .rodata	000000c8 __mprec_tens
00013f1c g     F .text	0000000c __locale_charset
0001c7e4 g     F .text	00000050 alt_icache_flush
0002dcc0 g     O .bss	00000004 __malloc_top_pad
0000b204 g     F .text	000000b0 disk_status
000081a4 g     F .text	000006b8 f_truncate
00000980 g     F .text	00000048 open_wavdir
0002dc34 g     O .rwdata	00000004 __mb_cur_max
00013f4c g     F .text	0000000c _localeconv_r
0001477c g     F .text	0000003c __i2b
0001388c g     F .text	000004a4 __sfvwrite_r
0000f28c g     F .text	00000054 _sbrk_r
0002dca4 g     O .bss	00000004 nd_GsVgaVsyncCount
000174fc g     F .text	0000005c _read_r
0001c144 g     F .text	00000040 alt_dcache_flush
0000b990 g     F .text	0000024c disk_ioctl
0002dc3c g     O .rwdata	00000004 alt_max_fd
00017104 g     F .text	00000100 _fclose_r
000130a8 g     F .text	00000030 fflush
0002dcbc g     O .bss	00000004 __malloc_max_sbrked_mem
0000bd1c g     F .text	00000030 mmc_spi_Recvbyte
00018544 g     F .text	0000089c .hidden __adddf3
0000d46c g     F .text	000000b4 nd_GsEglPutstrFont
00000648 g     F .text	00000338 drawwave
00004a7c g     F .text	000003b4 gen_numname
00014e94 g     F .text	0000011c __b2d
00000adc g     F .text	0000039c loadbmp
00017e88 g     F .text	00000590 .hidden __umoddi3
0001afc4 g     F .text	00000084 lseek
0002dc2c g     O .rwdata	00000004 _global_impure_ptr
00015308 g     F .text	000005a0 _realloc_r
00049c48 g       *ABS*	00000000 __bss_end
0001ae04 g     F .text	00000068 alt_iic_isr_register
0001b23c g     F .text	000000f8 alt_tick
0000d89c g     F .text	000003a0 nd_GsEglPutdec
000178c8 g     F .text	000005c0 .hidden __udivdi3
00017218 g     F .text	00000184 _fputwc_r
0002be30 g     O .rodata	00000028 __mprec_bigtens
00014560 g     F .text	00000104 __s2b
0001aa3c g     F .text	000000a4 .hidden __floatunsidf
00014c3c g     F .text	00000060 __mcmp
00013448 g     F .text	00000018 __fp_lock_all
0000885c g     F .text	00000904 f_unlink
0001adec g     F .text	00000018 alt_ic_irq_enabled
0000c36c g     F .text	00000038 nd_GsVgaInit
0000d520 g     F .text	0000000c nd_GsEglSetFont
0001b208 g     F .text	00000034 alt_alarm_stop
0002dca8 g     O .bss	00000004 nd_GsEglDrawBuffer
0002dcd4 g     O .bss	00000004 alt_irq_active
000000fc g     F .exceptions	00000064 alt_irq_handler
0002cabc g     O .rwdata	00000028 alt_dev_null
0000c460 g     F .text	00000010 nd_GsEglColor
0001bc1c g     F .text	00000070 alt_epcq_controller_erase_block
0001c184 g     F .text	00000018 alt_dcache_flush_all
00014664 g     F .text	00000068 __hi0bits
0000c334 g     F .text	0000001c nd_GsVgaScanOff
0001a8e4 g     F .text	00000088 .hidden __fixdfsi
0002dc6c g       *ABS*	00000000 __ram_rwdata_end
0000bf70 g     F .text	00000120 dev_mmcfs_open
0002dc40 g     O .rwdata	00000008 alt_dev_list
0001b3a0 g     F .text	000000e4 write
0002c070 g       *ABS*	00000000 __ram_rodata_end
0001ace8 g     F .text	00000080 fstat
00019810 g     F .text	000000e0 .hidden __ledf2
0000c31c g     F .text	00000018 nd_GsVgaScanOn
000149b4 g     F .text	00000140 __pow5mult
00015c10 g     F .text	0000135c ___vfiprintf_internal_r
0002dcd0 g     O .bss	00000004 __nlocale_changed
0001853c g     F .text	00000008 .hidden __umodsi3
00049c48 g       *ABS*	00000000 end
0001b6a0 g     F .text	00000080 altera_avalon_jtag_uart_init
00000160 g     F .exceptions	0000002c alt_instruction_exception_entry
0001cd88 g       *ABS*	00000000 __CTOR_LIST__
04000000 g       *ABS*	00000000 __alt_stack_pointer
0001bafc g     F .text	00000050 alt_avalon_timer_sc_init
0001aae0 g     F .text	00000064 .hidden __clzsi2
0001b920 g     F .text	000001a0 altera_avalon_jtag_uart_write
00013438 g     F .text	00000004 __sfp_lock_acquire
00014138 g     F .text	000000e8 memchr
0001bdec g     F .text	00000170 alt_epcq_controller_write
0000f408 g     F .text	00001ffc ___vfprintf_internal_r
0001359c g     F .text	000002f0 _free_r
00013f28 g     F .text	00000010 __locale_mb_cur_max
0001cbe0 g     F .text	00000194 __call_exitprocs
0002dccc g     O .bss	00000004 __mlocale_changed
00006c1c g     F .text	00000230 f_close
0002dc24 g     O .rwdata	00000004 __malloc_sbrk_base
0000018c g     F .text	0000004c _start
0001bf5c g     F .text	0000004c alt_epcq_controller_read
0002dce8 g     O .bss	00000004 _alt_tick_rate
0000e250 g     F .text	0000004c play_setvol
0000c2a4 g     F .text	00000038 nd_GsVgaVsync_isr
00014af4 g     F .text	00000148 __lshift
0002dce4 g     O .bss	00000004 _alt_nticks
0001b0b0 g     F .text	000000e8 read
0001b4a4 g     F .text	00000064 alt_sys_init
0001cacc g     F .text	00000114 __register_exitproc
00006108 g     F .text	00000430 f_read
0f000000 g       *ABS*	00000000 __alt_mem_bootmem
0000def0 g     F .text	000001cc nd_GsEglPuthex8
000147b8 g     F .text	000001fc __multiply
000077b8 g     F .text	000000d0 f_readdir
0001b720 g     F .text	00000050 altera_avalon_jtag_uart_close
0002c070 g       *ABS*	00000000 __ram_rwdata_start
0001cd88 g       *ABS*	00000000 __ram_rodata_start
00049b20 g     O .bss	00000028 __malloc_current_mallinfo
00014fb0 g     F .text	0000013c __d2b
0002b8f7 g     O .rodata	00000400 nd_GsEglRomFont
000099e0 g     F .text	00000690 f_chmod
0001b508 g     F .text	00000010 altera_avalon_jtag_uart_read_fd
0001c794 g     F .text	00000050 alt_get_fd
0001c0e4 g     F .text	00000060 alt_busy_sleep
00016fec g     F .text	00000054 _close_r
0000d6c8 g     F .text	000001d4 nd_GsEglPutstr
0001ca50 g     F .text	0000007c memcmp
0001b528 g     F .text	00000010 altera_avalon_jtag_uart_close_fd
00049c48 g       *ABS*	00000000 __alt_stack_base
0001b538 g     F .text	0000000c altera_avalon_jtag_uart_ioctl_fd
10800000 g       *ABS*	00000000 __alt_mem_epcq_avl_mem
00011428 g     F .text	00000130 __swsetup_r
0000bec8 g     F .text	00000010 mmc_spi_CheckTimer
00018de0 g     F .text	000008cc .hidden __divdf3
000132f8 g     F .text	00000118 __sfp
00015204 g     F .text	00000078 __copybits
0002c098 g     O .rwdata	00000408 __malloc_av_
00013444 g     F .text	00000004 __sinit_lock_release
000198f0 g     F .text	00000724 .hidden __muldf3
0001591c g     F .text	00000054 __sread
0000bcc4 g     F .text	00000008 get_fattime
0001c6e4 g     F .text	000000b0 alt_find_file
0001c19c g     F .text	00000078 alt_dev_llist_insert
0001b0a8 g     F .text	00000004 __malloc_lock
0001b1bc g     F .text	0000004c sbrk
00012e80 g     F .text	00000228 _fflush_r
00017040 g     F .text	000000c4 _calloc_r
0002dc64 g     O .rwdata	00000008 alt_flash_dev_list
0002dc6c g       *ABS*	00000000 __bss_start
0000f034 g     F .text	00000124 memset
0000e5a4 g     F .text	00000188 main
0002dcd8 g     O .bss	00000004 alt_envp
0002dcb8 g     O .bss	00000004 __malloc_max_total_mem
0001b518 g     F .text	00000010 altera_avalon_jtag_uart_write_fd
000176ac g     F .text	0000001c __swbuf
000069d4 g     F .text	00000248 f_sync
00015a50 g     F .text	00000008 __sclose
04000000 g       *ABS*	00000000 __alt_heap_limit
00017204 g     F .text	00000014 fclose
00011758 g     F .text	00001728 _dtoa_r
0000e754 g     F .text	000007a8 _malloc_r
0001783c g     F .text	00000030 __ascii_wctomb
0002dc50 g     O .rwdata	00000004 alt_errno
000057d8 g     F .text	00000030 f_mount
00013d30 g     F .text	000000b8 _fwalk
00007134 g     F .text	00000684 f_opendir
00018484 g     F .text	00000054 .hidden __divsi3
0000bef8 g     F .text	00000048 mmc_spi_InitSocket
00013478 g     F .text	00000124 _malloc_trim_r
0000c134 g     F .text	00000030 dev_mmcfs_write
0000bed8 g     F .text	00000020 mmc_spi_Wait100us
0001cd88 g       *ABS*	00000000 __CTOR_END__
00015a58 g     F .text	000000a4 strcmp
0000c7bc g     F .text	00000650 nd_GsEglCircle
0001cd88 g       *ABS*	00000000 __flash_rodata_start
0001cd88 g       *ABS*	00000000 __DTOR_LIST__
0000d52c g     F .text	0000019c nd_GsEglPutchar
0000461c g     F .text	00000460 put_fat
000196ac g     F .text	00000084 .hidden __nedf2
0000c2dc g     F .text	00000020 nd_GsVgaVsync_isrenable
0001b484 g     F .text	00000020 alt_irq_init
0001b198 g     F .text	00000024 alt_release_fd
00006e4c g     F .text	000002e8 f_lseek
0001c880 g     F .text	0000001c memalign
0002bf40 g     O .rodata	00000100 .hidden __clz_tab
0002dcc8 g     O .bss	00000004 _PathLocale
0001c834 g     F .text	00000014 atexit
00016f90 g     F .text	0000005c _write_r
00013f58 g     F .text	0000001c setlocale
0000bcf8 g     F .text	00000024 mmc_spi_Sendbyte
0002dc30 g     O .rwdata	00000004 _impure_ptr
0002dce0 g     O .bss	00000004 alt_argc
0001c278 g     F .text	00000064 _do_dtors
0000c3c4 g     F .text	0000002c nd_GsVgaVsync_getcount
00013f44 g     F .text	00000008 __locale_cjk_lang
0001bbe0 g     F .text	0000003c alt_epcq_controller_get_info
00000020 g       .exceptions	00000000 alt_irq_entry
00014e34 g     F .text	00000060 __ulp
00007888 g     F .text	00000648 f_stat
00013460 g     F .text	00000018 __fp_unlock_all
0002dc48 g     O .rwdata	00000008 alt_fs_list
00000020 g       *ABS*	00000000 __ram_exceptions_start
00013f74 g     F .text	0000000c localeconv
000041c8 g     F .text	0000002c clust2sect
0000ce0c g     F .text	000002e8 nd_GsEglLine
0001ad68 g     F .text	00000004 alt_ic_isr_register
0002dc6c g       *ABS*	00000000 _edata
0000e230 g     F .text	00000020 play_getbuffdata
0000a070 g     F .text	00000694 f_utime
0001bfa8 g     F .text	0000013c altera_epcq_controller_init
00049c48 g       *ABS*	00000000 _end
0001c2dc g     F .text	00000050 alt_flash_open_dev
0000018c g       *ABS*	00000000 __ram_exceptions_end
00006538 g     F .text	0000049c f_write
0001b770 g     F .text	00000074 altera_avalon_jtag_uart_ioctl
0000bd4c g     F .text	00000110 mmc_spi_DmaRecv
0001adac g     F .text	00000040 alt_ic_irq_disable
00015978 g     F .text	0000007c __swrite
0002dc28 g     O .rwdata	00000004 __malloc_trim_threshold
00005808 g     F .text	00000900 f_open
0000b6e4 g     F .text	000002ac disk_write
00013f38 g     F .text	0000000c __locale_msgcharset
0001c848 g     F .text	00000038 exit
00013de8 g     F .text	000000b8 _fwalk_reent
00014c9c g     F .text	00000198 __mdiff
0001c32c g     F .text	00000014 alt_flash_close_dev
0000c3f0 g     F .text	0000002c nd_GsVgaVsync_setcount
0000c470 g     F .text	000000c8 nd_GsEglPset
000184d8 g     F .text	0000005c .hidden __modsi3
0001c89c g     F .text	000001b4 _memalign_r
0001bb4c g     F .text	00000094 alt_epcq_controller_lock
00000418 g     F .text	00000230 drawwave_init
04000000 g       *ABS*	00000000 __alt_data_end
00000020 g     F .exceptions	00000000 alt_exception
0001343c g     F .text	00000004 __sfp_lock_release
00000000 g       *ABS*	00000000 __alt_mem_sdram
0000c104 g     F .text	00000030 dev_mmcfs_read
000003f0 g     F .text	00000028 disp7seg
0000c1d0 g     F .text	000000d4 mmcfs_setup
00009160 g     F .text	00000880 f_mkdir
0001cd74 g     F .text	00000014 _exit
0001ab44 g     F .text	00000094 alt_alarm_start
0001bc8c g     F .text	00000160 alt_epcq_controller_write_block
00013f80 g     F .text	000001b8 __smakebuf_r
0000f370 g     F .text	00000098 strlen
0000b500 g     F .text	000001e4 disk_read
0001c4c4 g     F .text	000001a0 open
00019730 g     F .text	000000e0 .hidden __gedf2
0001b334 g     F .text	00000010 alt_uncached_free
0002dc38 g     O .rwdata	00000004 __wctomb
00015bf8 g     F .text	00000018 __sprint_r
0001c340 g     F .text	0000000c alt_icache_flush_all
00007ed0 g     F .text	000002d4 f_getfree
0000bbdc g     F .text	00000090 ff_convert
0000be70 g     F .text	00000028 mmc_spi_CheckWritePortect
0002dc54 g     O .rwdata	00000004 alt_priority_mask
0000d0f4 g     F .text	0000008c nd_GsEglBox
0001ad6c g     F .text	00000040 alt_ic_irq_enable
00011404 g     F .text	00000024 __vfprintf_internal
0000c3a4 g     F .text	00000020 nd_GsVgaWaitVsync
0001786c g     F .text	0000005c _wctomb_r
0000bea8 g     F .text	0000000c mmc_spi_SetTransClock
0000e29c g     F .text	00000060 play_stop
0000bf40 g     F .text	00000030 dev_mmcfs_fstat
0001a014 g     F .text	000008d0 .hidden __subdf3
0000beb4 g     F .text	00000014 mmc_spi_SetTimer
000146cc g     F .text	000000b0 __lo0bits
0000c538 g     F .text	00000284 nd_GsEglBoxfill
0002dc5c g     O .rwdata	00000008 alt_alarm_list
0001c214 g     F .text	00000064 _do_ctors
00017764 g     F .text	000000d8 wcrtomb
0002dcac g     O .bss	00000004 nd_GsVgaVsyncFlag
0001abd8 g     F .text	000000d0 close
0001aef8 g     F .text	000000cc alt_load
0001739c g     F .text	00000058 fputwc
0000e740 g     F .text	00000014 free
00013440 g     F .text	00000004 __sinit_lock_acquire
0001444c g     F .text	00000114 __multadd
00014424 g     F .text	00000028 _Bfree



Disassembly of section .exceptions:

00000020 <alt_exception>:

#else /* ALT_EXCEPTION_STACK disabled */
        /* 
         * Reserve space on normal stack for registers about to be pushed.
         */
        addi  sp, sp, -76
  20:	deffed04 	addi	sp,sp,-76
         * documentation for details).
         *
         * Leave a gap in the stack frame at 4(sp) for the muldiv handler to
         * store zero into.
         */
        stw   ra,  0(sp)
  24:	dfc00015 	stw	ra,0(sp)
        stw   r1,   8(sp)
  28:	d8400215 	stw	at,8(sp)
        stw   r2,  12(sp)
  2c:	d8800315 	stw	r2,12(sp)
        stw   r3,  16(sp)
  30:	d8c00415 	stw	r3,16(sp)
        stw   r4,  20(sp)
  34:	d9000515 	stw	r4,20(sp)
        stw   r5,  24(sp)
  38:	d9400615 	stw	r5,24(sp)
        stw   r6,  28(sp)
  3c:	d9800715 	stw	r6,28(sp)
        stw   r7,  32(sp)
  40:	d9c00815 	stw	r7,32(sp)
        rdctl r5, estatus   /* Read early to avoid usage stall */
  44:	000b307a 	rdctl	r5,estatus
        stw   r8,  36(sp)
  48:	da000915 	stw	r8,36(sp)
        stw   r9,  40(sp)
  4c:	da400a15 	stw	r9,40(sp)
        stw   r10, 44(sp)
  50:	da800b15 	stw	r10,44(sp)
        stw   r11, 48(sp)
  54:	dac00c15 	stw	r11,48(sp)
        stw   r12, 52(sp)
  58:	db000d15 	stw	r12,52(sp)
        stw   r13, 56(sp)
  5c:	db400e15 	stw	r13,56(sp)
        stw   r14, 60(sp)
  60:	db800f15 	stw	r14,60(sp)
        stw   r15, 64(sp)
  64:	dbc01015 	stw	r15,64(sp)
        /*
         * ea-4 contains the address of the instruction being executed
         * when the exception occured. For interrupt exceptions, we will
         * will be re-issue the isntruction. Store it in 72(sp)
         */
        stw   r5,  68(sp)  /* estatus */
  68:	d9401115 	stw	r5,68(sp)
        addi  r15, ea, -4  /* instruction that caused exception */
  6c:	ebffff04 	addi	r15,ea,-4
        stw   r15,  72(sp)
  70:	dbc01215 	stw	r15,72(sp)
#else
        /*
         * Test to see if the exception was a software exception or caused 
         * by an external interrupt, and vector accordingly.
         */
        rdctl r4, ipending
  74:	0009313a 	rdctl	r4,ipending
        andi  r2, r5, 1
  78:	2880004c 	andi	r2,r5,1
        beq   r2, zero, .Lnot_irq
  7c:	10000326 	beq	r2,zero,8c <alt_exception+0x6c>
        beq   r4, zero, .Lnot_irq
  80:	20000226 	beq	r4,zero,8c <alt_exception+0x6c>
        /*
         * Now that all necessary registers have been preserved, call 
         * alt_irq_handler() to process the interrupts.
         */

        call alt_irq_handler
  84:	00000fc0 	call	fc <alt_irq_handler>

        .section .exceptions.irqreturn, "xa"

        br    .Lexception_exit
  88:	00000706 	br	a8 <alt_exception+0x88>
         * upon completion, so we write ea (address of instruction *after*
         * the one where the exception occured) into 72(sp). The actual
         * instruction that caused the exception is written in r2, which these
         * handlers will utilize.
         */
        stw   ea,  72(sp)  /* Don't re-issue */
  8c:	df401215 	stw	ea,72(sp)
        ldhu.n  r2, 0(r4)
        ldhu.n  r3, 2(r4)
        slli.n  r3, r3, 16
        or.n    r2, r2, r3 /* Instruction that caused exception */
#else
        ldw   r2, -4(ea)   /* Instruction that caused exception */
  90:	e8bfff17 	ldw	r2,-4(ea)
         * debugger is present) or go into an infinite loop since the
         * handling behavior is undefined; in that case we will not return here.
         */

        /* Load exception-causing address as first argument (r4) */
        addi   r4, ea, -4
  94:	e93fff04 	addi	r4,ea,-4

        /* Call the instruction-exception entry */
        call   alt_instruction_exception_entry
  98:	00001600 	call	160 <alt_instruction_exception_entry>
         * instruction
         *
         * Return code was 0: Skip. The instruction after the exception is
         * already stored in 72(sp).
         */
        bne   r2, r0, .Lexception_exit
  9c:	1000021e 	bne	r2,zero,a8 <alt_exception+0x88>

        /*
         * Otherwise, modify 72(sp) to re-issue the instruction that caused the
         * exception.
         */
        addi  r15, ea, -4  /* instruction that caused exception */
  a0:	ebffff04 	addi	r15,ea,-4
        stw   r15,  72(sp)
  a4:	dbc01215 	stw	r15,72(sp)
        /* 
         * Restore the saved registers, so that all general purpose registers 
         * have been restored to their state at the time the interrupt occured.
         */

        ldw   r5,  68(sp)
  a8:	d9401117 	ldw	r5,68(sp)
        ldw   ea,  72(sp)  /* This becomes the PC once eret is executed */
  ac:	df401217 	ldw	ea,72(sp)
        ldw   ra,   0(sp)
  b0:	dfc00017 	ldw	ra,0(sp)

        wrctl estatus, r5
  b4:	2801707a 	wrctl	estatus,r5

        ldw   r1,   8(sp)
  b8:	d8400217 	ldw	at,8(sp)
        ldw   r2,  12(sp)
  bc:	d8800317 	ldw	r2,12(sp)
        ldw   r3,  16(sp)
  c0:	d8c00417 	ldw	r3,16(sp)
        ldw   r4,  20(sp)
  c4:	d9000517 	ldw	r4,20(sp)
        ldw   r5,  24(sp)
  c8:	d9400617 	ldw	r5,24(sp)
        ldw   r6,  28(sp)
  cc:	d9800717 	ldw	r6,28(sp)
        ldw   r7,  32(sp)
  d0:	d9c00817 	ldw	r7,32(sp)

#if defined(ALT_EXCEPTION_STACK) && defined(ALT_STACK_CHECK)
        ldw   et, %gprel(alt_exception_old_stack_limit)(gp)
#endif

        ldw   r8,  36(sp)
  d4:	da000917 	ldw	r8,36(sp)
        ldw   r9,  40(sp)
  d8:	da400a17 	ldw	r9,40(sp)
        ldw   r10, 44(sp)
  dc:	da800b17 	ldw	r10,44(sp)
        ldw   r11, 48(sp)
  e0:	dac00c17 	ldw	r11,48(sp)
        ldw   r12, 52(sp)
  e4:	db000d17 	ldw	r12,52(sp)
        ldw   r13, 56(sp)
  e8:	db400e17 	ldw	r13,56(sp)
        ldw   r14, 60(sp)
  ec:	db800f17 	ldw	r14,60(sp)
        ldw   r15, 64(sp)
  f0:	dbc01017 	ldw	r15,64(sp)
        stw   et, %gprel(alt_stack_limit_value)(gp)
        stw   zero, %gprel(alt_exception_old_stack_limit)(gp)
#endif /* ALT_STACK_CHECK */
        ldw   sp,  76(sp)
#else /* ALT_EXCEPTION_STACK disabled */
        addi  sp, sp, 76
  f4:	dec01304 	addi	sp,sp,76

        /*
         * Return to the interrupted instruction.
         */

        eret
  f8:	ef80083a 	eret

000000fc <alt_irq_handler>:
 * instruction is present if the macro ALT_CI_INTERRUPT_VECTOR defined.
 */

void alt_irq_handler (void) __attribute__ ((section (".exceptions")));
void alt_irq_handler (void)
{
  fc:	defffe04 	addi	sp,sp,-8
 100:	dfc00115 	stw	ra,4(sp)
 104:	dc000015 	stw	r16,0(sp)
#ifndef NIOS2_EIC_PRESENT
static ALT_INLINE alt_u32 ALT_ALWAYS_INLINE alt_irq_pending (void)
{
  alt_u32 active;

  NIOS2_READ_IPENDING (active);
 108:	000b313a 	rdctl	r5,ipending
 10c:	04000174 	movhi	r16,5
 110:	8426d204 	addi	r16,r16,-25784
     * called to clear the interrupt condition.
     */

    do
    {
      if (active & mask)
 114:	2880004c 	andi	r2,r5,1

  active = alt_irq_pending ();

  do
  {
    i = 0;
 118:	0007883a 	mov	r3,zero
     * called to clear the interrupt condition.
     */

    do
    {
      if (active & mask)
 11c:	1000051e 	bne	r2,zero,134 <alt_irq_handler+0x38>
 120:	00800044 	movi	r2,1
#else
        alt_irq[i].handler(alt_irq[i].context, i); 
#endif
        break;
      }
      mask <<= 1;
 124:	1085883a 	add	r2,r2,r2
     * called to clear the interrupt condition.
     */

    do
    {
      if (active & mask)
 128:	2888703a 	and	r4,r5,r2
        alt_irq[i].handler(alt_irq[i].context, i); 
#endif
        break;
      }
      mask <<= 1;
      i++;
 12c:	18c00044 	addi	r3,r3,1
     * called to clear the interrupt condition.
     */

    do
    {
      if (active & mask)
 130:	203ffc26 	beq	r4,zero,124 <__alt_mem_epcq_avl_mem+0xef800124>
      { 
#ifdef ALT_ENHANCED_INTERRUPT_API_PRESENT
        alt_irq[i].handler(alt_irq[i].context); 
 134:	180690fa 	slli	r3,r3,3
 138:	80c7883a 	add	r3,r16,r3
 13c:	18800017 	ldw	r2,0(r3)
 140:	19000117 	ldw	r4,4(r3)
 144:	103ee83a 	callr	r2
 148:	000b313a 	rdctl	r5,ipending

    } while (1);

    active = alt_irq_pending ();
    
  } while (active);
 14c:	283ff11e 	bne	r5,zero,114 <__alt_mem_epcq_avl_mem+0xef800114>
  /*
   * Notify the operating system that interrupt processing is complete.
   */ 

  ALT_OS_INT_EXIT();
}
 150:	dfc00117 	ldw	ra,4(sp)
 154:	dc000017 	ldw	r16,0(sp)
 158:	dec00204 	addi	sp,sp,8
 15c:	f800283a 	ret

00000160 <alt_instruction_exception_entry>:
 * that handler if it has been registered. Absent a handler, it will
 * break break or hang as discussed below.
 */
int 
alt_instruction_exception_entry (alt_u32 exception_pc)
{
 160:	200b883a 	mov	r5,r4
 * NIOS2_EXCEPTION_CAUSE_NOT_PRESENT. Your handling routine should
 * check the validity of the cause argument before proceeding.
 */
#ifdef NIOS2_HAS_EXTRA_EXCEPTION_INFO
  /* Get exception cause & "badaddr" */
  NIOS2_READ_EXCEPTION(cause);
 164:	000531fa 	rdctl	r2,exception
  cause = ( (cause & NIOS2_EXCEPTION_REG_CAUSE_MASK) >>
              NIOS2_EXCEPTION_REG_CAUSE_OFST );

  NIOS2_READ_BADADDR(badaddr);
 168:	000d333a 	rdctl	r6,badaddr
#else
  cause = NIOS2_EXCEPTION_CAUSE_NOT_PRESENT;
  badaddr = 0;
#endif /* NIOS2_HAS_EXTRA_EXCEPTION_INFO */

  if(alt_instruction_exception_handler) {
 16c:	d0e03317 	ldw	r3,-32564(gp)
 170:	18000326 	beq	r3,zero,180 <alt_instruction_exception_entry+0x20>
 * check the validity of the cause argument before proceeding.
 */
#ifdef NIOS2_HAS_EXTRA_EXCEPTION_INFO
  /* Get exception cause & "badaddr" */
  NIOS2_READ_EXCEPTION(cause);
  cause = ( (cause & NIOS2_EXCEPTION_REG_CAUSE_MASK) >>
 174:	11001f0c 	andi	r4,r2,124
     * Call handler. Its return value indicates whether the exception-causing
     * instruction should be re-issued. The code that called us,
     * alt_eceptions_entry.S, will look at this value and adjust the ea
     * register as necessary
     */
    return alt_instruction_exception_handler(cause, exception_pc, badaddr);
 178:	2008d0ba 	srli	r4,r4,2
 17c:	1800683a 	jmp	r3
   *    (a peripheral which negates its interrupt output before its
   *    interrupt handler has been executed will cause spurious interrupts)
   */
  else {
#ifdef NIOS2_HAS_DEBUG_STUB
    NIOS2_BREAK();
 180:	003da03a 	break	0
#endif /* NIOS2_HAS_DEBUG_STUB */
  }

  /* We should not get here. Remove compiler warning. */
  return NIOS2_EXCEPTION_RETURN_REISSUE_INST;
}
 184:	0005883a 	mov	r2,zero
 188:	f800283a 	ret

Disassembly of section .text:

0000018c <_start>:

    /* Assume the data cache size is always a power of two. */
#if NIOS2_DCACHE_SIZE > 0x8000
    movhi r2, %hi(NIOS2_DCACHE_SIZE)
#else
    movui r2, NIOS2_DCACHE_SIZE
     18c:	00a00014 	movui	r2,32768
#endif

0:
    initd 0(r2)
     190:	10000033 	initd	0(r2)
#ifdef NIOS2_ECC_PRESENT
    addi r2, r2, -4
#else
    addi r2, r2, -NIOS2_DCACHE_LINE_SIZE
     194:	10bff804 	addi	r2,r2,-32
#endif
    bgt r2, zero, 0b
     198:	00bffd16 	blt	zero,r2,190 <__alt_mem_epcq_avl_mem+0xef800190>

    /*
     * Now that the caches are initialized, set up the stack pointer and global pointer.
     * The values provided by the linker are assumed to be correctly aligned.
     */
    movhi sp, %hi(__alt_stack_pointer)
     19c:	06c10034 	movhi	sp,1024
    ori sp, sp, %lo(__alt_stack_pointer)
     1a0:	dec00014 	ori	sp,sp,0
    movhi gp, %hi(_gp)
     1a4:	068000f4 	movhi	gp,3
    ori gp, gp, %lo(_gp)
     1a8:	d6970814 	ori	gp,gp,23584
 */
#ifndef ALT_SIM_OPTIMIZE
    /* Log that the BSS is about to be cleared. */
    ALT_LOG_PUTS(alt_log_msg_bss)

    movhi r2, %hi(__bss_start)
     1ac:	008000b4 	movhi	r2,2
    ori r2, r2, %lo(__bss_start)
     1b0:	10b71b14 	ori	r2,r2,56428

    movhi r3, %hi(__bss_end)
     1b4:	00c00134 	movhi	r3,4
    ori r3, r3, %lo(__bss_end)
     1b8:	18e71214 	ori	r3,r3,40008

    beq r2, r3, 1f
     1bc:	10c00326 	beq	r2,r3,1cc <_start+0x40>

0:
    stw zero, (r2)
     1c0:	10000015 	stw	zero,0(r2)
    addi r2, r2, 4
     1c4:	10800104 	addi	r2,r2,4
    bltu r2, r3, 0b
     1c8:	10fffd36 	bltu	r2,r3,1c0 <__alt_mem_epcq_avl_mem+0xef8001c0>
     * section aren't defined until alt_load() has been called).
     */
    mov   et, zero
#endif

    call alt_load
     1cc:	001aef80 	call	1aef8 <alt_load>

    /* Log that alt_main is about to be called. */
    ALT_LOG_PUTS(alt_log_msg_alt_main)

    /* Call the C entry point. It should never return. */
    call alt_main
     1d0:	001b0480 	call	1b048 <alt_main>

000001d4 <alt_after_alt_main>:

    /* Wait in infinite loop in case alt_main does return. */
alt_after_alt_main:
    br alt_after_alt_main
     1d4:	003fff06 	br	1d4 <__alt_mem_epcq_avl_mem+0xef8001d4>

000001d8 <hal_alarm_callback>:


// 1/32秒毎に呼び出されるコールバック関数 

alt_u32 hal_alarm_callback(void *context)
{
     1d8:	defff004 	addi	sp,sp,-64
	const alt_u32 dev_7seg0 = LED_7SEG_0_BASE;
	const alt_u32 dev_7seg1 = LED_7SEG_1_BASE;
	const alt_u32 dev_7seg2 = LED_7SEG_2_BASE;

	const int ptn_disc[4] = {
     1dc:	008600c4 	movi	r2,6147
     1e0:	d8800b15 	stw	r2,44(sp)
     1e4:	008c0184 	movi	r2,12294
     1e8:	d8800c15 	stw	r2,48(sp)
     1ec:	00884304 	movi	r2,8460
     1f0:	d8800d15 	stw	r2,52(sp)
     1f4:	00824244 	movi	r2,2313
     1f8:	d8800e15 	stw	r2,56(sp)
				((1<<0)|(1<<1)) | (((1<<3)|(1<<4))<<8),		// a0,b0, d1,e1
				((1<<1)|(1<<2)) | (((1<<4)|(1<<5))<<8),		// b0,c0, e1,f1
				((1<<2)|(1<<3)) | (((1<<5)|(1<<0))<<8),		// c0,d0, f1,a1
				((1<<3)|(1<<0)) | (((1<<0)|(1<<3))<<8) 		// d0,a0, a1,d1
			};
	const int ptn_number[11] = {
     1fc:	00800fc4 	movi	r2,63
     200:	d8800015 	stw	r2,0(sp)
     204:	00800184 	movi	r2,6
     208:	d8800115 	stw	r2,4(sp)
     20c:	008016c4 	movi	r2,91
     210:	d8800215 	stw	r2,8(sp)
     214:	008013c4 	movi	r2,79
     218:	d8800315 	stw	r2,12(sp)
     21c:	00801984 	movi	r2,102
     220:	d8800415 	stw	r2,16(sp)
     224:	00801b44 	movi	r2,109
     228:	d8800515 	stw	r2,20(sp)
     22c:	00801f44 	movi	r2,125
     230:	d8800615 	stw	r2,24(sp)
     234:	008009c4 	movi	r2,39
     238:	d8800715 	stw	r2,28(sp)
     23c:	00801fc4 	movi	r2,127
     240:	d8800815 	stw	r2,32(sp)
     244:	00801bc4 	movi	r2,111


// 1/32秒毎に呼び出されるコールバック関数 

alt_u32 hal_alarm_callback(void *context)
{
     248:	dfc00f15 	stw	ra,60(sp)
				((1<<0)|(1<<1)) | (((1<<3)|(1<<4))<<8),		// a0,b0, d1,e1
				((1<<1)|(1<<2)) | (((1<<4)|(1<<5))<<8),		// b0,c0, e1,f1
				((1<<2)|(1<<3)) | (((1<<5)|(1<<0))<<8),		// c0,d0, f1,a1
				((1<<3)|(1<<0)) | (((1<<0)|(1<<3))<<8) 		// d0,a0, a1,d1
			};
	const int ptn_number[11] = {
     24c:	d8800915 	stw	r2,36(sp)
     250:	d8000a15 	stw	zero,40(sp)
			};

	int point,sec,min,min1,min10;
	static int disccnt = 0;

	point = play_status() / (48000*4);
     254:	000e2140 	call	e214 <play_status>
     258:	00c000f4 	movhi	r3,3
     25c:	18fb8004 	addi	r3,r3,-4608
     260:	10c5283a 	div	r2,r2,r3
	if (point) {
     264:	10003a26 	beq	r2,zero,350 <hal_alarm_callback+0x178>
		if (point > 99*60+59) point = 99*60+59;
     268:	00c5dbc4 	movi	r3,5999
     26c:	18803516 	blt	r3,r2,344 <hal_alarm_callback+0x16c>

		sec = point % 60;
     270:	00c00f04 	movi	r3,60
     274:	10c7283a 	div	r3,r2,r3
		min = point / 60;
		min1 = min % 10;
     278:	01000284 	movi	r4,10
     27c:	190b283a 	div	r5,r3,r4

	point = play_status() / (48000*4);
	if (point) {
		if (point > 99*60+59) point = 99*60+59;

		sec = point % 60;
     280:	19c00f24 	muli	r7,r3,60
		min = point / 60;
		min1 = min % 10;
     284:	290d383a 	mul	r6,r5,r4

	point = play_status() / (48000*4);
	if (point) {
		if (point > 99*60+59) point = 99*60+59;

		sec = point % 60;
     288:	11c5c83a 	sub	r2,r2,r7
		min = point / 60;
		min1 = min % 10;
     28c:	1987c83a 	sub	r3,r3,r6
     290:	1109283a 	div	r4,r2,r4
		min10 = min / 10;
		if (min10 == 0) min10 = 10;
     294:	28003f1e 	bne	r5,zero,394 <hal_alarm_callback+0x1bc>
     298:	214002a4 	muli	r5,r4,10
     29c:	2109883a 	add	r4,r4,r4
     2a0:	2109883a 	add	r4,r4,r4
     2a4:	d909883a 	add	r4,sp,r4
     2a8:	1145c83a 	sub	r2,r2,r5
     2ac:	1085883a 	add	r2,r2,r2
     2b0:	21400017 	ldw	r5,0(r4)
     2b4:	18c7883a 	add	r3,r3,r3
     2b8:	1085883a 	add	r2,r2,r2
     2bc:	18c7883a 	add	r3,r3,r3
     2c0:	d885883a 	add	r2,sp,r2
     2c4:	d8c7883a 	add	r3,sp,r3
     2c8:	11000017 	ldw	r4,0(r2)
     2cc:	280a923a 	slli	r5,r5,8
     2d0:	18800017 	ldw	r2,0(r3)
     2d4:	2906303a 	nor	r3,r5,r4
     2d8:	0084303a 	nor	r2,zero,r2

		IOWR(dev_7seg0, 0, ~((ptn_number[sec/10]<<8) | ptn_number[sec%10]) );
     2dc:	01040034 	movhi	r4,4096
     2e0:	21008004 	addi	r4,r4,512
     2e4:	20c00035 	stwio	r3,0(r4)
		IOWR(dev_7seg1, 0, ~((ptn_number[min10]<<8) | ptn_number[min1]) );
     2e8:	00c40034 	movhi	r3,4096
     2ec:	18c08404 	addi	r3,r3,528
     2f0:	18800035 	stwio	r2,0(r3)
		IOWR(dev_7seg2, 0, ~ptn_disc[disccnt>>2] );
     2f4:	d0e01317 	ldw	r3,-32692(gp)
     2f8:	00bfff04 	movi	r2,-4
     2fc:	1884703a 	and	r2,r3,r2
     300:	d885883a 	add	r2,sp,r2
     304:	10800b17 	ldw	r2,44(r2)
     308:	00c40034 	movhi	r3,4096
     30c:	18c08804 	addi	r3,r3,544
     310:	0084303a 	nor	r2,zero,r2
     314:	18800035 	stwio	r2,0(r3)
		disccnt = (disccnt+1) & 15;
     318:	d0a01317 	ldw	r2,-32692(gp)
     31c:	10800044 	addi	r2,r2,1
     320:	108003cc 	andi	r2,r2,15
     324:	d0a01315 	stw	r2,-32692(gp)
 * Obtain the system clock rate in ticks/s. 
 */

static ALT_INLINE alt_u32 ALT_ALWAYS_INLINE alt_ticks_per_second (void)
{
  return _alt_tick_rate;
     328:	008000f4 	movhi	r2,3
     32c:	10b73a04 	addi	r2,r2,-8984
		IOWR(dev_7seg1, 0, ~((1<<6)|(1<<(6+8))) );
		IOWR(dev_7seg2, 0, ~ptn_disc[disccnt>>2] );

	}

	return alt_ticks_per_second()/32;
     330:	10800017 	ldw	r2,0(r2)
}
     334:	1004d17a 	srli	r2,r2,5
     338:	dfc00f17 	ldw	ra,60(sp)
     33c:	dec01004 	addi	sp,sp,64
     340:	f800283a 	ret
     344:	00a42404 	movi	r2,-28528
     348:	00e4a404 	movi	r3,-28016
     34c:	003fe306 	br	2dc <__alt_mem_epcq_avl_mem+0xef8002dc>
		IOWR(dev_7seg1, 0, ~((ptn_number[min10]<<8) | ptn_number[min1]) );
		IOWR(dev_7seg2, 0, ~ptn_disc[disccnt>>2] );
		disccnt = (disccnt+1) & 15;

	} else {
		IOWR(dev_7seg0, 0, ~((1<<6)|(1<<(6+8))) );
     350:	00c40034 	movhi	r3,4096
     354:	00afefc4 	movi	r2,-16449
     358:	18c08004 	addi	r3,r3,512
     35c:	18800035 	stwio	r2,0(r3)
		IOWR(dev_7seg1, 0, ~((1<<6)|(1<<(6+8))) );
     360:	00c40034 	movhi	r3,4096
     364:	18c08404 	addi	r3,r3,528
     368:	18800035 	stwio	r2,0(r3)
		IOWR(dev_7seg2, 0, ~ptn_disc[disccnt>>2] );
     36c:	d0e01317 	ldw	r3,-32692(gp)
     370:	00bfff04 	movi	r2,-4
     374:	1884703a 	and	r2,r3,r2
     378:	d885883a 	add	r2,sp,r2
     37c:	10800b17 	ldw	r2,44(r2)
     380:	00c40034 	movhi	r3,4096
     384:	18c08804 	addi	r3,r3,544
     388:	0084303a 	nor	r2,zero,r2
     38c:	18800035 	stwio	r2,0(r3)
     390:	003fe506 	br	328 <__alt_mem_epcq_avl_mem+0xef800328>
     394:	218002a4 	muli	r6,r4,10
     398:	294b883a 	add	r5,r5,r5
     39c:	2109883a 	add	r4,r4,r4
     3a0:	2109883a 	add	r4,r4,r4
     3a4:	294b883a 	add	r5,r5,r5
     3a8:	d909883a 	add	r4,sp,r4
     3ac:	1185c83a 	sub	r2,r2,r6
     3b0:	d94b883a 	add	r5,sp,r5
     3b4:	21800017 	ldw	r6,0(r4)
     3b8:	1085883a 	add	r2,r2,r2
     3bc:	29400017 	ldw	r5,0(r5)
     3c0:	18c7883a 	add	r3,r3,r3
     3c4:	1085883a 	add	r2,r2,r2
     3c8:	18c7883a 	add	r3,r3,r3
     3cc:	d885883a 	add	r2,sp,r2
     3d0:	d8c7883a 	add	r3,sp,r3
     3d4:	11000017 	ldw	r4,0(r2)
     3d8:	300c923a 	slli	r6,r6,8
     3dc:	18800017 	ldw	r2,0(r3)
     3e0:	280a923a 	slli	r5,r5,8
     3e4:	3106303a 	nor	r3,r6,r4
     3e8:	2884303a 	nor	r2,r5,r2
     3ec:	003fbb06 	br	2dc <__alt_mem_epcq_avl_mem+0xef8002dc>

000003f0 <disp7seg>:

// LED表示開始 

int disp7seg(void)
{
	return alt_alarm_start(&hal_alarm, alt_ticks_per_second()/32, hal_alarm_callback, NULL);
     3f0:	008000f4 	movhi	r2,3
     3f4:	10b73a04 	addi	r2,r2,-8984
     3f8:	11400017 	ldw	r5,0(r2)
     3fc:	010000f4 	movhi	r4,3
     400:	01800034 	movhi	r6,0
     404:	280ad17a 	srli	r5,r5,5
     408:	21373c04 	addi	r4,r4,-8976
     40c:	31807604 	addi	r6,r6,472
     410:	000f883a 	mov	r7,zero
     414:	001ab441 	jmpi	1ab44 <alt_alarm_start>

00000418 <drawwave_init>:


// 描画ウィンドウ初期化 

void drawwave_init(alt_u16 *pbuff, int ypos)
{
     418:	028000f4 	movhi	r10,3
     41c:	281292fa 	slli	r9,r5,11
     420:	02c000f4 	movhi	r11,3
     424:	529c0004 	addi	r10,r10,28672
     428:	5af72a04 	addi	r11,r11,-9048
	const int ysize = 176;
	int i,x,y,c;
	alt_u32 *pd, *ps;
	g_pbuff = pbuff;
     42c:	d1201515 	stw	r4,-32684(gp)
	g_ypos = ypos;
     430:	d1601415 	stw	r5,-32688(gp)
     434:	2295883a 	add	r10,r4,r10
     438:	200f883a 	mov	r7,r4

	pd = (alt_u32 *)g_pbuff;
	for(y=ypos ; y<ypos+ysize ; y++) {
		ps = (alt_u32 *)(nd_GsEglDrawBuffer + y*na_VRAM_linesize);
     43c:	59800017 	ldw	r6,0(r11)
     440:	498d883a 	add	r6,r9,r6
     444:	32014004 	addi	r8,r6,1280
     448:	3005883a 	mov	r2,r6
		for(x=0 ; x<640/2 ; x++) *pd++ = *ps++;
     44c:	11400017 	ldw	r5,0(r2)
     450:	1187c83a 	sub	r3,r2,r6
     454:	38c7883a 	add	r3,r7,r3
     458:	19400015 	stw	r5,0(r3)
     45c:	10800104 	addi	r2,r2,4
     460:	123ffa1e 	bne	r2,r8,44c <__alt_mem_epcq_avl_mem+0xef80044c>
     464:	39c14004 	addi	r7,r7,1280
     468:	4a420004 	addi	r9,r9,2048
	alt_u32 *pd, *ps;
	g_pbuff = pbuff;
	g_ypos = ypos;

	pd = (alt_u32 *)g_pbuff;
	for(y=ypos ; y<ypos+ysize ; y++) {
     46c:	3abff31e 	bne	r7,r10,43c <__alt_mem_epcq_avl_mem+0xef80043c>
     470:	01c000f4 	movhi	r7,3
     474:	39dac004 	addi	r7,r7,27392
     478:	200d883a 	mov	r6,r4
     47c:	01404004 	movi	r5,256
     480:	21cf883a 	add	r7,r4,r7
		ps = (alt_u32 *)(nd_GsEglDrawBuffer + y*na_VRAM_linesize);
		for(x=0 ; x<640/2 ; x++) *pd++ = *ps++;
	}

	for(i=0 ; i<8 ; i++) {
     484:	02002004 	movi	r8,128
		c = 256-i*16;
		sub_lineblend(g_pbuff + i*640, c);
     488:	3015883a 	mov	r10,r6
     48c:	31814004 	addi	r6,r6,1280
static void sub_lineblend(alt_u16 *ppix, int c)
{
	int x, r,g,b;

	for(x=0 ; x<640 ; x++,ppix++) {
		r = (get_red  (*ppix) * c) >> 8;
     490:	5080000b 	ldhu	r2,0(r10)

static void sub_lineblend(alt_u16 *ppix, int c)
{
	int x, r,g,b;

	for(x=0 ; x<640 ; x++,ppix++) {
     494:	52800084 	addi	r10,r10,2
		r = (get_red  (*ppix) * c) >> 8;
		g = (get_green(*ppix) * c) >> 8;
     498:	1240f80c 	andi	r9,r2,992
static void sub_lineblend(alt_u16 *ppix, int c)
{
	int x, r,g,b;

	for(x=0 ; x<640 ; x++,ppix++) {
		r = (get_red  (*ppix) * c) >> 8;
     49c:	10df000c 	andi	r3,r2,31744
		g = (get_green(*ppix) * c) >> 8;
     4a0:	4813d0ba 	srai	r9,r9,2
static void sub_lineblend(alt_u16 *ppix, int c)
{
	int x, r,g,b;

	for(x=0 ; x<640 ; x++,ppix++) {
		r = (get_red  (*ppix) * c) >> 8;
     4a4:	1807d1fa 	srai	r3,r3,7
		g = (get_green(*ppix) * c) >> 8;
		b = (get_blue (*ppix) * c) >> 8;
     4a8:	100490fa 	slli	r2,r2,3
{
	int x, r,g,b;

	for(x=0 ; x<640 ; x++,ppix++) {
		r = (get_red  (*ppix) * c) >> 8;
		g = (get_green(*ppix) * c) >> 8;
     4ac:	2a53383a 	mul	r9,r5,r9
static void sub_lineblend(alt_u16 *ppix, int c)
{
	int x, r,g,b;

	for(x=0 ; x<640 ; x++,ppix++) {
		r = (get_red  (*ppix) * c) >> 8;
     4b0:	28c7383a 	mul	r3,r5,r3
		g = (get_green(*ppix) * c) >> 8;
		b = (get_blue (*ppix) * c) >> 8;
     4b4:	10803e0c 	andi	r2,r2,248
     4b8:	2885383a 	mul	r2,r5,r2
		*ppix = set_pixel(r, g, b);
     4bc:	4812d1ba 	srli	r9,r9,6
     4c0:	1806d07a 	srli	r3,r3,1
     4c4:	1004d2fa 	srli	r2,r2,11
     4c8:	4a40f80c 	andi	r9,r9,992
     4cc:	18df000c 	andi	r3,r3,31744
     4d0:	48c6b03a 	or	r3,r9,r3
     4d4:	108007cc 	andi	r2,r2,31
     4d8:	1884b03a 	or	r2,r3,r2
     4dc:	50bfff8d 	sth	r2,-2(r10)

static void sub_lineblend(alt_u16 *ppix, int c)
{
	int x, r,g,b;

	for(x=0 ; x<640 ; x++,ppix++) {
     4e0:	51bfeb1e 	bne	r10,r6,490 <__alt_mem_epcq_avl_mem+0xef800490>
	}

	for(i=0 ; i<8 ; i++) {
		c = 256-i*16;
		sub_lineblend(g_pbuff + i*640, c);
		sub_lineblend(g_pbuff + (ysize-1-i)*640, c);
     4e4:	3815883a 	mov	r10,r7
     4e8:	3ac14004 	addi	r11,r7,1280
static void sub_lineblend(alt_u16 *ppix, int c)
{
	int x, r,g,b;

	for(x=0 ; x<640 ; x++,ppix++) {
		r = (get_red  (*ppix) * c) >> 8;
     4ec:	5080000b 	ldhu	r2,0(r10)

static void sub_lineblend(alt_u16 *ppix, int c)
{
	int x, r,g,b;

	for(x=0 ; x<640 ; x++,ppix++) {
     4f0:	52800084 	addi	r10,r10,2
		r = (get_red  (*ppix) * c) >> 8;
		g = (get_green(*ppix) * c) >> 8;
     4f4:	1240f80c 	andi	r9,r2,992
static void sub_lineblend(alt_u16 *ppix, int c)
{
	int x, r,g,b;

	for(x=0 ; x<640 ; x++,ppix++) {
		r = (get_red  (*ppix) * c) >> 8;
     4f8:	10df000c 	andi	r3,r2,31744
		g = (get_green(*ppix) * c) >> 8;
     4fc:	4813d0ba 	srai	r9,r9,2
static void sub_lineblend(alt_u16 *ppix, int c)
{
	int x, r,g,b;

	for(x=0 ; x<640 ; x++,ppix++) {
		r = (get_red  (*ppix) * c) >> 8;
     500:	1807d1fa 	srai	r3,r3,7
		g = (get_green(*ppix) * c) >> 8;
		b = (get_blue (*ppix) * c) >> 8;
     504:	100490fa 	slli	r2,r2,3
{
	int x, r,g,b;

	for(x=0 ; x<640 ; x++,ppix++) {
		r = (get_red  (*ppix) * c) >> 8;
		g = (get_green(*ppix) * c) >> 8;
     508:	2a53383a 	mul	r9,r5,r9
static void sub_lineblend(alt_u16 *ppix, int c)
{
	int x, r,g,b;

	for(x=0 ; x<640 ; x++,ppix++) {
		r = (get_red  (*ppix) * c) >> 8;
     50c:	28c7383a 	mul	r3,r5,r3
		g = (get_green(*ppix) * c) >> 8;
		b = (get_blue (*ppix) * c) >> 8;
     510:	10803e0c 	andi	r2,r2,248
     514:	2885383a 	mul	r2,r5,r2
		*ppix = set_pixel(r, g, b);
     518:	4812d1ba 	srli	r9,r9,6
     51c:	1806d07a 	srli	r3,r3,1
     520:	1004d2fa 	srli	r2,r2,11
     524:	4a40f80c 	andi	r9,r9,992
     528:	18df000c 	andi	r3,r3,31744
     52c:	48c6b03a 	or	r3,r9,r3
     530:	108007cc 	andi	r2,r2,31
     534:	1884b03a 	or	r2,r3,r2
     538:	50bfff8d 	sth	r2,-2(r10)

static void sub_lineblend(alt_u16 *ppix, int c)
{
	int x, r,g,b;

	for(x=0 ; x<640 ; x++,ppix++) {
     53c:	5abfeb1e 	bne	r11,r10,4ec <__alt_mem_epcq_avl_mem+0xef8004ec>
     540:	297ffc04 	addi	r5,r5,-16
     544:	39fec004 	addi	r7,r7,-1280
	for(y=ypos ; y<ypos+ysize ; y++) {
		ps = (alt_u32 *)(nd_GsEglDrawBuffer + y*na_VRAM_linesize);
		for(x=0 ; x<640/2 ; x++) *pd++ = *ps++;
	}

	for(i=0 ; i<8 ; i++) {
     548:	2a3fcf1e 	bne	r5,r8,488 <__alt_mem_epcq_avl_mem+0xef800488>
     54c:	02c000f4 	movhi	r11,3
     550:	028000f4 	movhi	r10,3
		c = 256-i*16;
		sub_lineblend(g_pbuff + i*640, c);
		sub_lineblend(g_pbuff + (ysize-1-i)*640, c);
	}
	for(i=0 ; i<80 ; i++) {
     554:	027fffb4 	movhi	r9,65534
     558:	5ad0c004 	addi	r11,r11,17152
     55c:	52920004 	addi	r10,r10,18432
     560:	4a5c0004 	addi	r9,r9,28672
     564:	000d883a 	mov	r6,zero
     568:	020a0004 	movi	r8,10240
     56c:	01cb4004 	movi	r7,11520
     570:	419bc83a 	sub	r13,r8,r6
     574:	399dc83a 	sub	r14,r7,r6
     578:	235b883a 	add	r13,r4,r13
     57c:	239d883a 	add	r14,r4,r14
static void sub_lineblend(alt_u16 *ppix, int c)
{
	int x, r,g,b;

	for(x=0 ; x<640 ; x++,ppix++) {
		r = (get_red  (*ppix) * c) >> 8;
     580:	6880000b 	ldhu	r2,0(r13)

static void sub_lineblend(alt_u16 *ppix, int c)
{
	int x, r,g,b;

	for(x=0 ; x<640 ; x++,ppix++) {
     584:	6b400084 	addi	r13,r13,2
		r = (get_red  (*ppix) * c) >> 8;
		g = (get_green(*ppix) * c) >> 8;
     588:	1300f80c 	andi	r12,r2,992
static void sub_lineblend(alt_u16 *ppix, int c)
{
	int x, r,g,b;

	for(x=0 ; x<640 ; x++,ppix++) {
		r = (get_red  (*ppix) * c) >> 8;
     58c:	10df000c 	andi	r3,r2,31744
		g = (get_green(*ppix) * c) >> 8;
     590:	6019d0ba 	srai	r12,r12,2
static void sub_lineblend(alt_u16 *ppix, int c)
{
	int x, r,g,b;

	for(x=0 ; x<640 ; x++,ppix++) {
		r = (get_red  (*ppix) * c) >> 8;
     594:	1807d1fa 	srai	r3,r3,7
		g = (get_green(*ppix) * c) >> 8;
		b = (get_blue (*ppix) * c) >> 8;
     598:	100490fa 	slli	r2,r2,3
{
	int x, r,g,b;

	for(x=0 ; x<640 ; x++,ppix++) {
		r = (get_red  (*ppix) * c) >> 8;
		g = (get_green(*ppix) * c) >> 8;
     59c:	2b19383a 	mul	r12,r5,r12
static void sub_lineblend(alt_u16 *ppix, int c)
{
	int x, r,g,b;

	for(x=0 ; x<640 ; x++,ppix++) {
		r = (get_red  (*ppix) * c) >> 8;
     5a0:	28c7383a 	mul	r3,r5,r3
		g = (get_green(*ppix) * c) >> 8;
		b = (get_blue (*ppix) * c) >> 8;
     5a4:	10803e0c 	andi	r2,r2,248
     5a8:	2885383a 	mul	r2,r5,r2
		*ppix = set_pixel(r, g, b);
     5ac:	6018d1ba 	srli	r12,r12,6
     5b0:	1806d07a 	srli	r3,r3,1
     5b4:	1004d2fa 	srli	r2,r2,11
     5b8:	6300f80c 	andi	r12,r12,992
     5bc:	18df000c 	andi	r3,r3,31744
     5c0:	60c6b03a 	or	r3,r12,r3
     5c4:	108007cc 	andi	r2,r2,31
     5c8:	1884b03a 	or	r2,r3,r2
     5cc:	68bfff8d 	sth	r2,-2(r13)

static void sub_lineblend(alt_u16 *ppix, int c)
{
	int x, r,g,b;

	for(x=0 ; x<640 ; x++,ppix++) {
     5d0:	6bbfeb1e 	bne	r13,r14,580 <__alt_mem_epcq_avl_mem+0xef800580>
     5d4:	32db883a 	add	r13,r6,r11
     5d8:	329d883a 	add	r14,r6,r10
     5dc:	235b883a 	add	r13,r4,r13
     5e0:	239d883a 	add	r14,r4,r14
		r = (get_red  (*ppix) * c) >> 8;
     5e4:	6880000b 	ldhu	r2,0(r13)

static void sub_lineblend(alt_u16 *ppix, int c)
{
	int x, r,g,b;

	for(x=0 ; x<640 ; x++,ppix++) {
     5e8:	6b400084 	addi	r13,r13,2
		r = (get_red  (*ppix) * c) >> 8;
		g = (get_green(*ppix) * c) >> 8;
     5ec:	1300f80c 	andi	r12,r2,992
static void sub_lineblend(alt_u16 *ppix, int c)
{
	int x, r,g,b;

	for(x=0 ; x<640 ; x++,ppix++) {
		r = (get_red  (*ppix) * c) >> 8;
     5f0:	10df000c 	andi	r3,r2,31744
		g = (get_green(*ppix) * c) >> 8;
     5f4:	6019d0ba 	srai	r12,r12,2
static void sub_lineblend(alt_u16 *ppix, int c)
{
	int x, r,g,b;

	for(x=0 ; x<640 ; x++,ppix++) {
		r = (get_red  (*ppix) * c) >> 8;
     5f8:	1807d1fa 	srai	r3,r3,7
		g = (get_green(*ppix) * c) >> 8;
		b = (get_blue (*ppix) * c) >> 8;
     5fc:	100490fa 	slli	r2,r2,3
{
	int x, r,g,b;

	for(x=0 ; x<640 ; x++,ppix++) {
		r = (get_red  (*ppix) * c) >> 8;
		g = (get_green(*ppix) * c) >> 8;
     600:	2b19383a 	mul	r12,r5,r12
static void sub_lineblend(alt_u16 *ppix, int c)
{
	int x, r,g,b;

	for(x=0 ; x<640 ; x++,ppix++) {
		r = (get_red  (*ppix) * c) >> 8;
     604:	28c7383a 	mul	r3,r5,r3
		g = (get_green(*ppix) * c) >> 8;
		b = (get_blue (*ppix) * c) >> 8;
     608:	10803e0c 	andi	r2,r2,248
     60c:	2885383a 	mul	r2,r5,r2
		*ppix = set_pixel(r, g, b);
     610:	6018d1ba 	srli	r12,r12,6
     614:	1806d07a 	srli	r3,r3,1
     618:	1004d2fa 	srli	r2,r2,11
     61c:	6300f80c 	andi	r12,r12,992
     620:	18df000c 	andi	r3,r3,31744
     624:	60c6b03a 	or	r3,r12,r3
     628:	108007cc 	andi	r2,r2,31
     62c:	1884b03a 	or	r2,r3,r2
     630:	68bfff8d 	sth	r2,-2(r13)

static void sub_lineblend(alt_u16 *ppix, int c)
{
	int x, r,g,b;

	for(x=0 ; x<640 ; x++,ppix++) {
     634:	6bbfeb1e 	bne	r13,r14,5e4 <__alt_mem_epcq_avl_mem+0xef8005e4>
     638:	31bec004 	addi	r6,r6,-1280
     63c:	297fffc4 	addi	r5,r5,-1
	for(i=0 ; i<8 ; i++) {
		c = 256-i*16;
		sub_lineblend(g_pbuff + i*640, c);
		sub_lineblend(g_pbuff + (ysize-1-i)*640, c);
	}
	for(i=0 ; i<80 ; i++) {
     640:	327fcb1e 	bne	r6,r9,570 <__alt_mem_epcq_avl_mem+0xef800570>
     644:	f800283a 	ret

00000648 <drawwave>:


// 波形描画 

void drawwave(void)
{
     648:	defff904 	addi	sp,sp,-28
     64c:	dc000015 	stw	r16,0(sp)
	alt_u32 buffdata;
	alt_u16 *ppix, *pfb;
	alt_u32 *pd, *ps;


	for(y=0 ; y<=79-1 ; y++) {
     650:	02fffff4 	movhi	r11,65535
     654:	040000f4 	movhi	r16,3


// 波形描画 

void drawwave(void)
{
     658:	dfc00615 	stw	ra,24(sp)
     65c:	dd400515 	stw	r21,20(sp)
     660:	dd000415 	stw	r20,16(sp)
     664:	dcc00315 	stw	r19,12(sp)
     668:	dc800215 	stw	r18,8(sp)
     66c:	dc400115 	stw	r17,4(sp)
     670:	000f883a 	mov	r7,zero
     674:	84374204 	addi	r16,r16,-8952
     678:	0300a004 	movi	r12,640
     67c:	02803fc4 	movi	r10,255
	alt_u32 buffdata;
	alt_u16 *ppix, *pfb;
	alt_u32 *pd, *ps;


	for(y=0 ; y<=79-1 ; y++) {
     680:	5acea004 	addi	r11,r11,14976
     684:	61d1c83a 	sub	r8,r12,r7
     688:	81c9c83a 	sub	r4,r16,r7
     68c:	4413883a 	add	r9,r8,r16
     690:	00000306 	br	6a0 <drawwave+0x58>
		for(x=0 ; x<640 ; x++) {
			a = (dbuff[y][x] >> 1) + (dbuff[y+1][x] >> 1) - 6;
			if (a < 0) a = 0; else if (a > 255) a = 255;
			dbuff[y][x] = a;
     694:	21400005 	stb	r5,0(r4)
     698:	21000044 	addi	r4,r4,1
	alt_u16 *ppix, *pfb;
	alt_u32 *pd, *ps;


	for(y=0 ; y<=79-1 ; y++) {
		for(x=0 ; x<640 ; x++) {
     69c:	49001026 	beq	r9,r4,6e0 <drawwave+0x98>
     6a0:	21c7883a 	add	r3,r4,r7
     6a4:	1a07883a 	add	r3,r3,r8
			a = (dbuff[y][x] >> 1) + (dbuff[y+1][x] >> 1) - 6;
     6a8:	20800003 	ldbu	r2,0(r4)
     6ac:	18c00003 	ldbu	r3,0(r3)
     6b0:	01403fc4 	movi	r5,255
     6b4:	100cd07a 	srli	r6,r2,1
     6b8:	1804d07a 	srli	r2,r3,1
     6bc:	3085883a 	add	r2,r6,r2
     6c0:	10bffe84 	addi	r2,r2,-6
     6c4:	50bff316 	blt	r10,r2,694 <__alt_mem_epcq_avl_mem+0xef800694>
     6c8:	100b883a 	mov	r5,r2
     6cc:	103ff10e 	bge	r2,zero,694 <__alt_mem_epcq_avl_mem+0xef800694>
     6d0:	000b883a 	mov	r5,zero
			if (a < 0) a = 0; else if (a > 255) a = 255;
			dbuff[y][x] = a;
     6d4:	21400005 	stb	r5,0(r4)
     6d8:	21000044 	addi	r4,r4,1
	alt_u16 *ppix, *pfb;
	alt_u32 *pd, *ps;


	for(y=0 ; y<=79-1 ; y++) {
		for(x=0 ; x<640 ; x++) {
     6dc:	493ff01e 	bne	r9,r4,6a0 <__alt_mem_epcq_avl_mem+0xef8006a0>
     6e0:	39ff6004 	addi	r7,r7,-640
	alt_u32 buffdata;
	alt_u16 *ppix, *pfb;
	alt_u32 *pd, *ps;


	for(y=0 ; y<=79-1 ; y++) {
     6e4:	3affe71e 	bne	r7,r11,684 <__alt_mem_epcq_avl_mem+0xef800684>
     6e8:	01ffffb4 	movhi	r7,65534
			a = (dbuff[y][x] >> 1) + (dbuff[y+1][x] >> 1) - 6;
			if (a < 0) a = 0; else if (a > 255) a = 255;
			dbuff[y][x] = a;
		}
	}
	for(y=159 ; y>=80-1 ; y--) {
     6ec:	037ffff4 	movhi	r13,65535
     6f0:	39dca004 	addi	r7,r7,29312
     6f4:	6b4f4004 	addi	r13,r13,15616
     6f8:	0300a004 	movi	r12,640
     6fc:	02ff6004 	movi	r11,-640
     700:	02803fc4 	movi	r10,255
     704:	61d1c83a 	sub	r8,r12,r7
     708:	81c9c83a 	sub	r4,r16,r7
     70c:	4411883a 	add	r8,r8,r16
     710:	59d3c83a 	sub	r9,r11,r7
     714:	00000306 	br	724 <drawwave+0xdc>
		for(x=0 ; x<640 ; x++) {
			a = (dbuff[y][x] >> 1) + (dbuff[y-1][x] >> 1) - 6;
			if (a < 0) a = 0; else if (a > 255) a = 255;
			dbuff[y][x]= a;
     718:	21400005 	stb	r5,0(r4)
     71c:	21000044 	addi	r4,r4,1
			if (a < 0) a = 0; else if (a > 255) a = 255;
			dbuff[y][x] = a;
		}
	}
	for(y=159 ; y>=80-1 ; y--) {
		for(x=0 ; x<640 ; x++) {
     720:	41001026 	beq	r8,r4,764 <drawwave+0x11c>
     724:	3907883a 	add	r3,r7,r4
     728:	1a47883a 	add	r3,r3,r9
			a = (dbuff[y][x] >> 1) + (dbuff[y-1][x] >> 1) - 6;
     72c:	20800003 	ldbu	r2,0(r4)
     730:	18c00003 	ldbu	r3,0(r3)
     734:	01403fc4 	movi	r5,255
     738:	100cd07a 	srli	r6,r2,1
     73c:	1804d07a 	srli	r2,r3,1
     740:	3085883a 	add	r2,r6,r2
     744:	10bffe84 	addi	r2,r2,-6
     748:	50bff316 	blt	r10,r2,718 <__alt_mem_epcq_avl_mem+0xef800718>
     74c:	100b883a 	mov	r5,r2
     750:	103ff10e 	bge	r2,zero,718 <__alt_mem_epcq_avl_mem+0xef800718>
     754:	000b883a 	mov	r5,zero
			if (a < 0) a = 0; else if (a > 255) a = 255;
			dbuff[y][x]= a;
     758:	21400005 	stb	r5,0(r4)
     75c:	21000044 	addi	r4,r4,1
			if (a < 0) a = 0; else if (a > 255) a = 255;
			dbuff[y][x] = a;
		}
	}
	for(y=159 ; y>=80-1 ; y--) {
		for(x=0 ; x<640 ; x++) {
     760:	413ff01e 	bne	r8,r4,724 <__alt_mem_epcq_avl_mem+0xef800724>
     764:	39c0a004 	addi	r7,r7,640
			a = (dbuff[y][x] >> 1) + (dbuff[y+1][x] >> 1) - 6;
			if (a < 0) a = 0; else if (a > 255) a = 255;
			dbuff[y][x] = a;
		}
	}
	for(y=159 ; y>=80-1 ; y--) {
     768:	3b7fe61e 	bne	r7,r13,704 <__alt_mem_epcq_avl_mem+0xef800704>
     76c:	0029883a 	mov	r20,zero
			if (a < 0) a = 0; else if (a > 255) a = 255;
			dbuff[y][x]= a;
		}
	}
	for(x=0 ; x<640 ; x++) {
		buffdata = play_getbuffdata(x/3);
     770:	04c000c4 	movi	r19,3
		ldata = (alt_16)(buffdata & 0xffff);
		rdata = (alt_16)((buffdata>>16)& 0xffff);
		if (ldata < 0) ldata = -ldata;
		if (rdata < 0) rdata = -rdata;

		dbuff[79-(ldata>>9)][x] = (ldata > 128)? (ldata>>9)+128+64 : ldata;
     774:	048013c4 	movi	r18,79
     778:	05402004 	movi	r21,128
			a = (dbuff[y][x] >> 1) + (dbuff[y-1][x] >> 1) - 6;
			if (a < 0) a = 0; else if (a > 255) a = 255;
			dbuff[y][x]= a;
		}
	}
	for(x=0 ; x<640 ; x++) {
     77c:	0440a004 	movi	r17,640
		buffdata = play_getbuffdata(x/3);
     780:	a4c9283a 	div	r4,r20,r19
     784:	000e2300 	call	e230 <play_getbuffdata>
     788:	113fffcc 	andi	r4,r2,65535
     78c:	2120001c 	xori	r4,r4,32768
     790:	21200004 	addi	r4,r4,-32768

		ldata = (alt_16)(buffdata & 0xffff);
		rdata = (alt_16)((buffdata>>16)& 0xffff);
     794:	1005d43a 	srai	r2,r2,16
     798:	20006c16 	blt	r4,zero,94c <drawwave+0x304>
     79c:	10006d16 	blt	r2,zero,954 <drawwave+0x30c>
		if (ldata < 0) ldata = -ldata;
		if (rdata < 0) rdata = -rdata;

		dbuff[79-(ldata>>9)][x] = (ldata > 128)? (ldata>>9)+128+64 : ldata;
     7a0:	200bd27a 	srai	r5,r4,9
     7a4:	9147c83a 	sub	r3,r18,r5
     7a8:	a900010e 	bge	r21,r4,7b0 <drawwave+0x168>
     7ac:	293ff004 	addi	r4,r5,-64
     7b0:	18c0a024 	muli	r3,r3,640
		dbuff[80+(rdata>>9)][x] = (rdata > 128)? (rdata>>9)+128+64 : rdata;
     7b4:	100bd27a 	srai	r5,r2,9
		ldata = (alt_16)(buffdata & 0xffff);
		rdata = (alt_16)((buffdata>>16)& 0xffff);
		if (ldata < 0) ldata = -ldata;
		if (rdata < 0) rdata = -rdata;

		dbuff[79-(ldata>>9)][x] = (ldata > 128)? (ldata>>9)+128+64 : ldata;
     7b8:	1d07883a 	add	r3,r3,r20
     7bc:	80c7883a 	add	r3,r16,r3
     7c0:	19000005 	stb	r4,0(r3)
		dbuff[80+(rdata>>9)][x] = (rdata > 128)? (rdata>>9)+128+64 : rdata;
     7c4:	28c01404 	addi	r3,r5,80
     7c8:	a880010e 	bge	r21,r2,7d0 <drawwave+0x188>
     7cc:	28bff004 	addi	r2,r5,-64
     7d0:	18c0a024 	muli	r3,r3,640
     7d4:	1d07883a 	add	r3,r3,r20
     7d8:	80c7883a 	add	r3,r16,r3
     7dc:	18800005 	stb	r2,0(r3)
			a = (dbuff[y][x] >> 1) + (dbuff[y-1][x] >> 1) - 6;
			if (a < 0) a = 0; else if (a > 255) a = 255;
			dbuff[y][x]= a;
		}
	}
	for(x=0 ; x<640 ; x++) {
     7e0:	a5000044 	addi	r20,r20,1
     7e4:	a47fe61e 	bne	r20,r17,780 <__alt_mem_epcq_avl_mem+0xef800780>
     7e8:	d3e01417 	ldw	r15,-32688(gp)
		dbuff[80+(rdata>>9)][x] = (rdata > 128)? (rdata>>9)+128+64 : rdata;
	}


	ypos = g_ypos;
	ps = (alt_u32 *)(g_pbuff + 0*640);
     7ec:	d4201517 	ldw	r16,-32684(gp)
     7f0:	044000f4 	movhi	r17,3
     7f4:	781e92fa 	slli	r15,r15,11
     7f8:	8c772a04 	addi	r17,r17,-9048
     7fc:	810a0004 	addi	r4,r16,10240
     800:	800d883a 	mov	r6,r16
     804:	7811883a 	mov	r8,r15
	for(y=ypos ; y<ypos+8 ; y++) {
		pd = (alt_u32 *)(nd_GsEglDrawBuffer + y*na_VRAM_linesize);
     808:	89400017 	ldw	r5,0(r17)
     80c:	414b883a 	add	r5,r8,r5
     810:	29c14004 	addi	r7,r5,1280
     814:	2805883a 	mov	r2,r5
     818:	1147c83a 	sub	r3,r2,r5
     81c:	30c7883a 	add	r3,r6,r3
		for(x=0 ; x<640/2 ; x++) *pd++ = *ps++;
     820:	18c00017 	ldw	r3,0(r3)
     824:	10800104 	addi	r2,r2,4
     828:	10ffff15 	stw	r3,-4(r2)
     82c:	11fffa1e 	bne	r2,r7,818 <__alt_mem_epcq_avl_mem+0xef800818>
     830:	31814004 	addi	r6,r6,1280
     834:	42020004 	addi	r8,r8,2048
	}


	ypos = g_ypos;
	ps = (alt_u32 *)(g_pbuff + 0*640);
	for(y=ypos ; y<ypos+8 ; y++) {
     838:	313ff31e 	bne	r6,r4,808 <__alt_mem_epcq_avl_mem+0xef800808>
     83c:	8ac00017 	ldw	r11,0(r17)
     840:	028000f4 	movhi	r10,3
     844:	038000f4 	movhi	r14,3
     848:	7b100004 	addi	r12,r15,16384
     84c:	52920004 	addi	r10,r10,18432
     850:	73b74204 	addi	r14,r14,-8952
     854:	011bc83a 	sub	r13,zero,r4
     858:	62d9883a 	add	r12,r12,r11
     85c:	8295883a 	add	r10,r16,r10
     860:	01803fc4 	movi	r6,255
     864:	22414004 	addi	r9,r4,1280
		pd = (alt_u32 *)(nd_GsEglDrawBuffer + y*na_VRAM_linesize);
     868:	700b883a 	mov	r5,r14
     86c:	6351883a 	add	r8,r12,r13
	ppix = g_pbuff + 8*640;
	for(y=0 ; y<160 ; y++) {
		pfb = (alt_u16 *)(nd_GsEglDrawBuffer + (ypos+y)*na_VRAM_linesize);

		for(x=0 ; x<640 ; x++,ppix++) {
			r = get_red  (*ppix) + dbuff[y][x];
     870:	2080000b 	ldhu	r2,0(r4)
     874:	2cc00003 	ldbu	r19,0(r5)
     878:	220f883a 	add	r7,r4,r8
			g = get_green(*ppix) + dbuff[y][x];
     87c:	1480f80c 	andi	r18,r2,992
	ppix = g_pbuff + 8*640;
	for(y=0 ; y<160 ; y++) {
		pfb = (alt_u16 *)(nd_GsEglDrawBuffer + (ypos+y)*na_VRAM_linesize);

		for(x=0 ; x<640 ; x++,ppix++) {
			r = get_red  (*ppix) + dbuff[y][x];
     880:	10df000c 	andi	r3,r2,31744
			g = get_green(*ppix) + dbuff[y][x];
     884:	9025d0ba 	srai	r18,r18,2
			b = get_blue (*ppix) + dbuff[y][x];
     888:	100490fa 	slli	r2,r2,3
	ppix = g_pbuff + 8*640;
	for(y=0 ; y<160 ; y++) {
		pfb = (alt_u16 *)(nd_GsEglDrawBuffer + (ypos+y)*na_VRAM_linesize);

		for(x=0 ; x<640 ; x++,ppix++) {
			r = get_red  (*ppix) + dbuff[y][x];
     88c:	1807d1fa 	srai	r3,r3,7
     890:	9ca5883a 	add	r18,r19,r18
			g = get_green(*ppix) + dbuff[y][x];
			b = get_blue (*ppix) + dbuff[y][x];
     894:	10803e0c 	andi	r2,r2,248
	ypos = g_ypos + 8;
	ppix = g_pbuff + 8*640;
	for(y=0 ; y<160 ; y++) {
		pfb = (alt_u16 *)(nd_GsEglDrawBuffer + (ypos+y)*na_VRAM_linesize);

		for(x=0 ; x<640 ; x++,ppix++) {
     898:	21000084 	addi	r4,r4,2
			r = get_red  (*ppix) + dbuff[y][x];
     89c:	1cc7883a 	add	r3,r3,r19
			g = get_green(*ppix) + dbuff[y][x];
			b = get_blue (*ppix) + dbuff[y][x];
     8a0:	9885883a 	add	r2,r19,r2
     8a4:	3480010e 	bge	r6,r18,8ac <drawwave+0x264>
     8a8:	04803fc4 	movi	r18,255
			if (r > 255) r = 255;
			if (g > 255) g = 255;
			if (b > 255) b = 255;

			*pfb++ = set_pixel(r, g, b);
     8ac:	94803e0c 	andi	r18,r18,248
     8b0:	94a5883a 	add	r18,r18,r18
     8b4:	94a5883a 	add	r18,r18,r18
     8b8:	30c0010e 	bge	r6,r3,8c0 <drawwave+0x278>
     8bc:	00c03fc4 	movi	r3,255
     8c0:	18c03e0c 	andi	r3,r3,248
     8c4:	180691fa 	slli	r3,r3,7
     8c8:	29400044 	addi	r5,r5,1
     8cc:	90c6b03a 	or	r3,r18,r3
     8d0:	3080010e 	bge	r6,r2,8d8 <drawwave+0x290>
     8d4:	00803fc4 	movi	r2,255
     8d8:	10803e0c 	andi	r2,r2,248
     8dc:	1005d0fa 	srai	r2,r2,3
     8e0:	1884b03a 	or	r2,r3,r2
     8e4:	3880000d 	sth	r2,0(r7)
	ypos = g_ypos + 8;
	ppix = g_pbuff + 8*640;
	for(y=0 ; y<160 ; y++) {
		pfb = (alt_u16 *)(nd_GsEglDrawBuffer + (ypos+y)*na_VRAM_linesize);

		for(x=0 ; x<640 ; x++,ppix++) {
     8e8:	227fe11e 	bne	r4,r9,870 <__alt_mem_epcq_avl_mem+0xef800870>
     8ec:	7380a004 	addi	r14,r14,640
     8f0:	6b7ec004 	addi	r13,r13,-1280
     8f4:	63020004 	addi	r12,r12,2048
		for(x=0 ; x<640/2 ; x++) *pd++ = *ps++;
	}

	ypos = g_ypos + 8;
	ppix = g_pbuff + 8*640;
	for(y=0 ; y<160 ; y++) {
     8f8:	513fda1e 	bne	r10,r4,864 <__alt_mem_epcq_avl_mem+0xef800864>
     8fc:	00800174 	movhi	r2,5
     900:	10900004 	addi	r2,r2,16384
     904:	789f883a 	add	r15,r15,r2
     908:	008000f4 	movhi	r2,3
     90c:	109c0004 	addi	r2,r2,28672
     910:	80a1883a 	add	r16,r16,r2
	}

	ypos = g_ypos + 168;
	ps = (alt_u32 *)(g_pbuff + 168*640);
	for(y=ypos ; y<ypos+8 ; y++) {
		pd = (alt_u32 *)(nd_GsEglDrawBuffer + y*na_VRAM_linesize);
     914:	7ad7883a 	add	r11,r15,r11
     918:	59014004 	addi	r4,r11,1280
     91c:	5805883a 	mov	r2,r11
     920:	12c7c83a 	sub	r3,r2,r11
     924:	50c7883a 	add	r3,r10,r3
		for(x=0 ; x<640/2 ; x++) *pd++ = *ps++;
     928:	18c00017 	ldw	r3,0(r3)
     92c:	10800104 	addi	r2,r2,4
     930:	10ffff15 	stw	r3,-4(r2)
     934:	113ffa1e 	bne	r2,r4,920 <__alt_mem_epcq_avl_mem+0xef800920>
     938:	52814004 	addi	r10,r10,1280
     93c:	7bc20004 	addi	r15,r15,2048
		}
	}

	ypos = g_ypos + 168;
	ps = (alt_u32 *)(g_pbuff + 168*640);
	for(y=ypos ; y<ypos+8 ; y++) {
     940:	54000626 	beq	r10,r16,95c <drawwave+0x314>
     944:	8ac00017 	ldw	r11,0(r17)
     948:	003ff206 	br	914 <__alt_mem_epcq_avl_mem+0xef800914>
     94c:	0109c83a 	sub	r4,zero,r4
     950:	103f930e 	bge	r2,zero,7a0 <__alt_mem_epcq_avl_mem+0xef8007a0>
     954:	0085c83a 	sub	r2,zero,r2
     958:	003f9106 	br	7a0 <__alt_mem_epcq_avl_mem+0xef8007a0>
		pd = (alt_u32 *)(nd_GsEglDrawBuffer + y*na_VRAM_linesize);
		for(x=0 ; x<640/2 ; x++) *pd++ = *ps++;
	}

}
     95c:	dfc00617 	ldw	ra,24(sp)
     960:	dd400517 	ldw	r21,20(sp)
     964:	dd000417 	ldw	r20,16(sp)
     968:	dcc00317 	ldw	r19,12(sp)
     96c:	dc800217 	ldw	r18,8(sp)
     970:	dc400117 	ldw	r17,4(sp)
     974:	dc000017 	ldw	r16,0(sp)
     978:	dec00704 	addi	sp,sp,28
     97c:	f800283a 	ret

00000980 <open_wavdir>:


// ディレクトリのオープン 

int open_wavdir(const char *path)
{
     980:	deffff04 	addi	sp,sp,-4
	FRESULT res;

	fatfs_fno.lfname = fslfn;
     984:	00800134 	movhi	r2,4
     988:	00c00134 	movhi	r3,4


// ディレクトリのオープン 

int open_wavdir(const char *path)
{
     98c:	dfc00015 	stw	ra,0(sp)
     990:	200b883a 	mov	r5,r4
	FRESULT res;

	fatfs_fno.lfname = fslfn;
     994:	109b8204 	addi	r2,r2,28168
     998:	18db4204 	addi	r3,r3,27912
	fatfs_fno.lfsize = sizeof(fslfn);

	res = f_opendir(&fatfs_dir, path);
     99c:	01000134 	movhi	r4,4
     9a0:	211b8a04 	addi	r4,r4,28200

int open_wavdir(const char *path)
{
	FRESULT res;

	fatfs_fno.lfname = fslfn;
     9a4:	10c00615 	stw	r3,24(r2)
	fatfs_fno.lfsize = sizeof(fslfn);
     9a8:	00c04004 	movi	r3,256
     9ac:	10c00715 	stw	r3,28(r2)

	res = f_opendir(&fatfs_dir, path);
     9b0:	00071340 	call	7134 <f_opendir>
	if (res != FR_OK) return -1;
     9b4:	1004c03a 	cmpne	r2,r2,zero

	return 0;
}
     9b8:	0085c83a 	sub	r2,zero,r2
     9bc:	dfc00017 	ldw	ra,0(sp)
     9c0:	dec00104 	addi	sp,sp,4
     9c4:	f800283a 	ret

000009c8 <get_wavfilename>:


// ディレクトリのWAVファイルを１つ取得 

char *get_wavfilename(void)
{
     9c8:	defff904 	addi	sp,sp,-28
     9cc:	dc000015 	stw	r16,0(sp)
	FRESULT res;
	char *fn = NULL;

	for(;;) {
		res = f_readdir(&fatfs_dir, &fatfs_fno);
     9d0:	04000134 	movhi	r16,4


// ディレクトリのWAVファイルを１つ取得 

char *get_wavfilename(void)
{
     9d4:	dd000415 	stw	r20,16(sp)
     9d8:	dcc00315 	stw	r19,12(sp)
     9dc:	dc800215 	stw	r18,8(sp)
     9e0:	dc400115 	stw	r17,4(sp)
     9e4:	dfc00615 	stw	ra,24(sp)
     9e8:	dd400515 	stw	r21,20(sp)
	FRESULT res;
	char *fn = NULL;

	for(;;) {
		res = f_readdir(&fatfs_dir, &fatfs_fno);
     9ec:	841b8204 	addi	r16,r16,28168
		if (res != FR_OK || fatfs_fno.fname[0] == 0) {	// エラーまたはもうファイルがない 
			fn = NULL;
			break;
		}

		if (fatfs_fno.fname[0] == '.') continue;		// ドットエントリの場合はリトライ 
     9f0:	04400b84 	movi	r17,46
	i = strlen(fn);
	if (i == 0) return 0;

	fn += i-1;		// 一番最後の文字へ移動 

	if ( *fn != 'v' && *fn != 'V') return 0;
     9f4:	04bff7c4 	movi	r18,-33
     9f8:	04c01584 	movi	r19,86
	fn--;
	if ( *fn != 'a' && *fn != 'A') return 0;
     9fc:	05001044 	movi	r20,65
{
	FRESULT res;
	char *fn = NULL;

	for(;;) {
		res = f_readdir(&fatfs_dir, &fatfs_fno);
     a00:	01000134 	movhi	r4,4
     a04:	01400134 	movhi	r5,4
     a08:	211b8a04 	addi	r4,r4,28200
     a0c:	295b8204 	addi	r5,r5,28168
     a10:	00077b80 	call	77b8 <f_readdir>
		if (res != FR_OK || fatfs_fno.fname[0] == 0) {	// エラーまたはもうファイルがない 
     a14:	1000261e 	bne	r2,zero,ab0 <get_wavfilename+0xe8>
     a18:	80800247 	ldb	r2,9(r16)
     a1c:	10002426 	beq	r2,zero,ab0 <get_wavfilename+0xe8>
			fn = NULL;
			break;
		}

		if (fatfs_fno.fname[0] == '.') continue;		// ドットエントリの場合はリトライ 
     a20:	147ff726 	beq	r2,r17,a00 <__alt_mem_epcq_avl_mem+0xef800a00>

		if (fatfs_fno.fattrib & AM_DIR) continue;		// ディレクトリの場合もリトライ 
     a24:	80800203 	ldbu	r2,8(r16)
     a28:	1080040c 	andi	r2,r2,16
     a2c:	103ff41e 	bne	r2,zero,a00 <__alt_mem_epcq_avl_mem+0xef800a00>

		fn = *fatfs_fno.lfname ? fatfs_fno.lfname : fatfs_fno.fname;
     a30:	85400617 	ldw	r21,24(r16)
     a34:	a8800007 	ldb	r2,0(r21)
     a38:	1000021e 	bne	r2,zero,a44 <get_wavfilename+0x7c>
     a3c:	05400134 	movhi	r21,4
     a40:	ad5b8444 	addi	r21,r21,28177

static int check_extwav(const char *fn)
{
	int i;

	i = strlen(fn);
     a44:	a809883a 	mov	r4,r21
     a48:	000f3700 	call	f370 <strlen>
	if (i == 0) return 0;
     a4c:	103fec26 	beq	r2,zero,a00 <__alt_mem_epcq_avl_mem+0xef800a00>

	fn += i-1;		// 一番最後の文字へ移動 
     a50:	10ffffc4 	addi	r3,r2,-1
     a54:	a8c7883a 	add	r3,r21,r3

	if ( *fn != 'v' && *fn != 'V') return 0;
     a58:	18800003 	ldbu	r2,0(r3)
     a5c:	1484703a 	and	r2,r2,r18
     a60:	10803fcc 	andi	r2,r2,255
     a64:	1080201c 	xori	r2,r2,128
     a68:	10bfe004 	addi	r2,r2,-128
     a6c:	14ffe41e 	bne	r2,r19,a00 <__alt_mem_epcq_avl_mem+0xef800a00>
	fn--;
	if ( *fn != 'a' && *fn != 'A') return 0;
     a70:	18bfffc3 	ldbu	r2,-1(r3)
     a74:	1484703a 	and	r2,r2,r18
     a78:	10803fcc 	andi	r2,r2,255
     a7c:	1080201c 	xori	r2,r2,128
     a80:	10bfe004 	addi	r2,r2,-128
     a84:	153fde1e 	bne	r2,r20,a00 <__alt_mem_epcq_avl_mem+0xef800a00>
	fn--;
	if ( *fn != 'w' && *fn != 'W') return 0;
     a88:	18bfff83 	ldbu	r2,-2(r3)
     a8c:	010015c4 	movi	r4,87
     a90:	1484703a 	and	r2,r2,r18
     a94:	10803fcc 	andi	r2,r2,255
     a98:	1080201c 	xori	r2,r2,128
     a9c:	10bfe004 	addi	r2,r2,-128
     aa0:	113fd71e 	bne	r2,r4,a00 <__alt_mem_epcq_avl_mem+0xef800a00>
	fn--;
	if ( *fn != '.') return 0;
     aa4:	18bfff47 	ldb	r2,-3(r3)
     aa8:	147fd51e 	bne	r2,r17,a00 <__alt_mem_epcq_avl_mem+0xef800a00>
     aac:	00000106 	br	ab4 <get_wavfilename+0xec>
	char *fn = NULL;

	for(;;) {
		res = f_readdir(&fatfs_dir, &fatfs_fno);
		if (res != FR_OK || fatfs_fno.fname[0] == 0) {	// エラーまたはもうファイルがない 
			fn = NULL;
     ab0:	002b883a 	mov	r21,zero

		break;
	}

	return fn;
}
     ab4:	a805883a 	mov	r2,r21
     ab8:	dfc00617 	ldw	ra,24(sp)
     abc:	dd400517 	ldw	r21,20(sp)
     ac0:	dd000417 	ldw	r20,16(sp)
     ac4:	dcc00317 	ldw	r19,12(sp)
     ac8:	dc800217 	ldw	r18,8(sp)
     acc:	dc400117 	ldw	r17,4(sp)
     ad0:	dc000017 	ldw	r16,0(sp)
     ad4:	dec00704 	addi	sp,sp,28
     ad8:	f800283a 	ret

00000adc <loadbmp>:


// 指定のBMPファイルをフレームバッファに読み込む 

int loadbmp(const char *bmpname, alt_u16 *pFrameBuffer)
{
     adc:	defcd804 	addi	sp,sp,-3232
     ae0:	dc431f15 	stw	r17,3196(sp)
     ae4:	2023883a 	mov	r17,r4
     ae8:	ddc32515 	stw	r23,3220(sp)
	alt_u16 *ppix,*pline;


	// BMPファイルを開く 

	res = f_open(&fbmp, bmpname, FA_READ);
     aec:	d9028204 	addi	r4,sp,2568


// 指定のBMPファイルをフレームバッファに読み込む 

int loadbmp(const char *bmpname, alt_u16 *pFrameBuffer)
{
     af0:	282f883a 	mov	r23,r5
	alt_u16 *ppix,*pline;


	// BMPファイルを開く 

	res = f_open(&fbmp, bmpname, FA_READ);
     af4:	01800044 	movi	r6,1
     af8:	880b883a 	mov	r5,r17


// 指定のBMPファイルをフレームバッファに読み込む 

int loadbmp(const char *bmpname, alt_u16 *pFrameBuffer)
{
     afc:	dfc32715 	stw	ra,3228(sp)
     b00:	df032615 	stw	fp,3224(sp)
     b04:	dd832415 	stw	r22,3216(sp)
     b08:	dd432315 	stw	r21,3212(sp)
     b0c:	dd032215 	stw	r20,3208(sp)
     b10:	dcc32115 	stw	r19,3204(sp)
     b14:	dc832015 	stw	r18,3200(sp)
     b18:	dc031e15 	stw	r16,3192(sp)
	alt_u16 *ppix,*pline;


	// BMPファイルを開く 

	res = f_open(&fbmp, bmpname, FA_READ);
     b1c:	00058080 	call	5808 <f_open>

	if (res != FR_OK) {
     b20:	1000c01e 	bne	r2,zero,e24 <loadbmp+0x348>
	}


	// ファイルヘッダの読み出し 

	res = f_read(&fbmp, bmp_h, 54, &readsize);		// ヘッダ読み出し 
     b24:	05000d84 	movi	r20,54
     b28:	d9028204 	addi	r4,sp,2568
     b2c:	d9430b04 	addi	r5,sp,3116
     b30:	a00d883a 	mov	r6,r20
     b34:	d9c31904 	addi	r7,sp,3172
     b38:	00061080 	call	6108 <f_read>
	if (res == FR_OK && readsize == 54) {
     b3c:	1000021e 	bne	r2,zero,b48 <loadbmp+0x6c>
     b40:	d8831917 	ldw	r2,3172(sp)
     b44:	15009926 	beq	r2,r20,dac <loadbmp+0x2d0>
		}
	}

	// BMP画像データをロード 

	printf("bmpfile : %s\n   %d x %d pix, %dbpp, %dbyte/line\n",bmpname,xsize,ysize,bpp,line);
     b48:	010000b4 	movhi	r4,2
     b4c:	21337b04 	addi	r4,r4,-12820
     b50:	dc000015 	stw	r16,0(sp)
     b54:	dc800115 	stw	r18,4(sp)
     b58:	880b883a 	mov	r5,r17
     b5c:	b00d883a 	mov	r6,r22
     b60:	980f883a 	mov	r7,r19
     b64:	000f1840 	call	f184 <printf>
     b68:	0080a004 	movi	r2,640
     b6c:	dd831a15 	stw	r22,3176(sp)
     b70:	15808916 	blt	r2,r22,d98 <loadbmp+0x2bc>
     b74:	00807804 	movi	r2,480
     b78:	9823883a 	mov	r17,r19
     b7c:	14c08416 	blt	r2,r19,d90 <loadbmp+0x2b4>
	if (xsize+x_offs > window_xsize) width  = window_xsize-x_offs; else width  = xsize;
	if (ysize+y_offs > window_ysize) height = window_ysize-y_offs; else height = ysize;

	pline = pFrameBuffer + (y_offs * (na_VRAM_linesize/2));

	for(y=0 ; y<height ; y++) {
     b80:	98004126 	beq	r19,zero,c88 <loadbmp+0x1ac>
			res = f_read(&fbmp, bmp_pixel, width*4, &readsize);
			if (res != FR_OK) break;
			for(x=0 ; x<width ; x++,pbmp+=4) *ppix++ = set_pixel(*(pbmp+2), *(pbmp+1), *(pbmp+0));

		} else if(bpp == 24) {
			res = f_read(&fbmp, bmp_pixel, width*3, &readsize);
     b84:	d8c31a17 	ldw	r3,3176(sp)
     b88:	d8831a17 	ldw	r2,3176(sp)
     b8c:	9abfffc4 	addi	r10,r19,-1
     b90:	18c7883a 	add	r3,r3,r3
     b94:	d8c31b15 	stw	r3,3180(sp)
     b98:	1887883a 	add	r3,r3,r2
     b9c:	d8c31d15 	stw	r3,3188(sp)
		f_lseek(&fbmp, 54 + line*(ysize-(y+1)));			// ファイルポインタを行の先頭へ移動 
		ppix = pline;										// ピクセルポインタをラインの先頭へ移動 
		pbmp = bmp_pixel;

		if (bpp == 32) {
			res = f_read(&fbmp, bmp_pixel, width*4, &readsize);
     ba0:	d8c31b17 	ldw	r3,3180(sp)
     ba4:	9295383a 	mul	r10,r18,r10
     ba8:	882292fa 	slli	r17,r17,11
     bac:	18c7883a 	add	r3,r3,r3
     bb0:	d8c31c15 	stw	r3,3184(sp)
     bb4:	d8c31b17 	ldw	r3,3180(sp)
     bb8:	04a5c83a 	sub	r18,zero,r18
     bbc:	55400d84 	addi	r21,r10,54
     bc0:	b8ed883a 	add	r22,r23,r3
     bc4:	bc63883a 	add	r17,r23,r17
	for(y=0 ; y<height ; y++) {
		f_lseek(&fbmp, 54 + line*(ysize-(y+1)));			// ファイルポインタを行の先頭へ移動 
		ppix = pline;										// ピクセルポインタをラインの先頭へ移動 
		pbmp = bmp_pixel;

		if (bpp == 32) {
     bc8:	04c00804 	movi	r19,32
			res = f_read(&fbmp, bmp_pixel, width*4, &readsize);
			if (res != FR_OK) break;
			for(x=0 ; x<width ; x++,pbmp+=4) *ppix++ = set_pixel(*(pbmp+2), *(pbmp+1), *(pbmp+0));

		} else if(bpp == 24) {
     bcc:	05000604 	movi	r20,24
			res = f_read(&fbmp, bmp_pixel, width*3, &readsize);
			if (res != FR_OK) break;
			for(x=0 ; x<width ; x++,pbmp+=3) *ppix++ = set_pixel(*(pbmp+2), *(pbmp+1), *(pbmp+0));
     bd0:	073ffe04 	movi	fp,-8
     bd4:	00000706 	br	bf4 <loadbmp+0x118>
		if (bpp == 32) {
			res = f_read(&fbmp, bmp_pixel, width*4, &readsize);
			if (res != FR_OK) break;
			for(x=0 ; x<width ; x++,pbmp+=4) *ppix++ = set_pixel(*(pbmp+2), *(pbmp+1), *(pbmp+0));

		} else if(bpp == 24) {
     bd8:	85003a26 	beq	r16,r20,cc4 <loadbmp+0x1e8>
			res = f_read(&fbmp, bmp_pixel, width*3, &readsize);
			if (res != FR_OK) break;
			for(x=0 ; x<width ; x++,pbmp+=3) *ppix++ = set_pixel(*(pbmp+2), *(pbmp+1), *(pbmp+0));

		} else if(bpp == 16) {
     bdc:	00800404 	movi	r2,16
     be0:	80805626 	beq	r16,r2,d3c <loadbmp+0x260>
			res = f_read(&fbmp, bmp_pixel, width*2, &readsize);
			if (res != FR_OK) break;
			for(x=0 ; x<width ; x++,pbmp+=2) *ppix++ = (*(pbmp+1)<<8)|(*(pbmp+0));
		}

		pline += (na_VRAM_linesize/2);
     be4:	bdc20004 	addi	r23,r23,2048
     be8:	acab883a 	add	r21,r21,r18
     bec:	b5820004 	addi	r22,r22,2048
	if (xsize+x_offs > window_xsize) width  = window_xsize-x_offs; else width  = xsize;
	if (ysize+y_offs > window_ysize) height = window_ysize-y_offs; else height = ysize;

	pline = pFrameBuffer + (y_offs * (na_VRAM_linesize/2));

	for(y=0 ; y<height ; y++) {
     bf0:	bc402526 	beq	r23,r17,c88 <loadbmp+0x1ac>
		f_lseek(&fbmp, 54 + line*(ysize-(y+1)));			// ファイルポインタを行の先頭へ移動 
     bf4:	d9028204 	addi	r4,sp,2568
     bf8:	a80b883a 	mov	r5,r21
     bfc:	0006e4c0 	call	6e4c <f_lseek>
		ppix = pline;										// ピクセルポインタをラインの先頭へ移動 
		pbmp = bmp_pixel;

		if (bpp == 32) {
     c00:	84fff51e 	bne	r16,r19,bd8 <__alt_mem_epcq_avl_mem+0xef800bd8>
			res = f_read(&fbmp, bmp_pixel, width*4, &readsize);
     c04:	d9831c17 	ldw	r6,3184(sp)
     c08:	d9028204 	addi	r4,sp,2568
     c0c:	d9400204 	addi	r5,sp,8
     c10:	d9c31904 	addi	r7,sp,3172
     c14:	00061080 	call	6108 <f_read>
			if (res != FR_OK) break;
     c18:	10001b1e 	bne	r2,zero,c88 <loadbmp+0x1ac>
			for(x=0 ; x<width ; x++,pbmp+=4) *ppix++ = set_pixel(*(pbmp+2), *(pbmp+1), *(pbmp+0));
     c1c:	d8c31a17 	ldw	r3,3176(sp)
     c20:	183ff026 	beq	r3,zero,be4 <__alt_mem_epcq_avl_mem+0xef800be4>
     c24:	b80b883a 	mov	r5,r23
     c28:	dac00284 	addi	r11,sp,10
     c2c:	d9c00244 	addi	r7,sp,9
     c30:	d9800204 	addi	r6,sp,8
     c34:	5b000003 	ldbu	r12,0(r11)
     c38:	38800003 	ldbu	r2,0(r7)
     c3c:	31000003 	ldbu	r4,0(r6)
     c40:	e318703a 	and	r12,fp,r12
     c44:	601891fa 	slli	r12,r12,7
     c48:	e084703a 	and	r2,fp,r2
     c4c:	1085883a 	add	r2,r2,r2
     c50:	2008d0fa 	srli	r4,r4,3
     c54:	1085883a 	add	r2,r2,r2
     c58:	6084b03a 	or	r2,r12,r2
     c5c:	1104b03a 	or	r2,r2,r4
     c60:	2880000d 	sth	r2,0(r5)
     c64:	29400084 	addi	r5,r5,2
     c68:	31800104 	addi	r6,r6,4
     c6c:	5ac00104 	addi	r11,r11,4
     c70:	39c00104 	addi	r7,r7,4
     c74:	b17fef1e 	bne	r22,r5,c34 <__alt_mem_epcq_avl_mem+0xef800c34>
			res = f_read(&fbmp, bmp_pixel, width*2, &readsize);
			if (res != FR_OK) break;
			for(x=0 ; x<width ; x++,pbmp+=2) *ppix++ = (*(pbmp+1)<<8)|(*(pbmp+0));
		}

		pline += (na_VRAM_linesize/2);
     c78:	bdc20004 	addi	r23,r23,2048
     c7c:	acab883a 	add	r21,r21,r18
     c80:	b5820004 	addi	r22,r22,2048
	if (xsize+x_offs > window_xsize) width  = window_xsize-x_offs; else width  = xsize;
	if (ysize+y_offs > window_ysize) height = window_ysize-y_offs; else height = ysize;

	pline = pFrameBuffer + (y_offs * (na_VRAM_linesize/2));

	for(y=0 ; y<height ; y++) {
     c84:	bc7fdb1e 	bne	r23,r17,bf4 <__alt_mem_epcq_avl_mem+0xef800bf4>
		}

		pline += (na_VRAM_linesize/2);
	}

	f_close(&fbmp);
     c88:	d9028204 	addi	r4,sp,2568
     c8c:	0006c1c0 	call	6c1c <f_close>

	return 0;
     c90:	0005883a 	mov	r2,zero
}
     c94:	dfc32717 	ldw	ra,3228(sp)
     c98:	df032617 	ldw	fp,3224(sp)
     c9c:	ddc32517 	ldw	r23,3220(sp)
     ca0:	dd832417 	ldw	r22,3216(sp)
     ca4:	dd432317 	ldw	r21,3212(sp)
     ca8:	dd032217 	ldw	r20,3208(sp)
     cac:	dcc32117 	ldw	r19,3204(sp)
     cb0:	dc832017 	ldw	r18,3200(sp)
     cb4:	dc431f17 	ldw	r17,3196(sp)
     cb8:	dc031e17 	ldw	r16,3192(sp)
     cbc:	dec32804 	addi	sp,sp,3232
     cc0:	f800283a 	ret
			res = f_read(&fbmp, bmp_pixel, width*4, &readsize);
			if (res != FR_OK) break;
			for(x=0 ; x<width ; x++,pbmp+=4) *ppix++ = set_pixel(*(pbmp+2), *(pbmp+1), *(pbmp+0));

		} else if(bpp == 24) {
			res = f_read(&fbmp, bmp_pixel, width*3, &readsize);
     cc4:	d9831d17 	ldw	r6,3188(sp)
     cc8:	d9028204 	addi	r4,sp,2568
     ccc:	d9400204 	addi	r5,sp,8
     cd0:	d9c31904 	addi	r7,sp,3172
     cd4:	00061080 	call	6108 <f_read>
			if (res != FR_OK) break;
     cd8:	103feb1e 	bne	r2,zero,c88 <__alt_mem_epcq_avl_mem+0xef800c88>
			for(x=0 ; x<width ; x++,pbmp+=3) *ppix++ = set_pixel(*(pbmp+2), *(pbmp+1), *(pbmp+0));
     cdc:	d8c31a17 	ldw	r3,3176(sp)
     ce0:	183fc026 	beq	r3,zero,be4 <__alt_mem_epcq_avl_mem+0xef800be4>
     ce4:	b80b883a 	mov	r5,r23
     ce8:	dac00284 	addi	r11,sp,10
     cec:	d9c00244 	addi	r7,sp,9
     cf0:	d9800204 	addi	r6,sp,8
     cf4:	5b000003 	ldbu	r12,0(r11)
     cf8:	38800003 	ldbu	r2,0(r7)
     cfc:	31000003 	ldbu	r4,0(r6)
     d00:	e318703a 	and	r12,fp,r12
     d04:	601891fa 	slli	r12,r12,7
     d08:	e084703a 	and	r2,fp,r2
     d0c:	1085883a 	add	r2,r2,r2
     d10:	2008d0fa 	srli	r4,r4,3
     d14:	1085883a 	add	r2,r2,r2
     d18:	6084b03a 	or	r2,r12,r2
     d1c:	1104b03a 	or	r2,r2,r4
     d20:	2880000d 	sth	r2,0(r5)
     d24:	29400084 	addi	r5,r5,2
     d28:	318000c4 	addi	r6,r6,3
     d2c:	5ac000c4 	addi	r11,r11,3
     d30:	39c000c4 	addi	r7,r7,3
     d34:	b17fef1e 	bne	r22,r5,cf4 <__alt_mem_epcq_avl_mem+0xef800cf4>
     d38:	003faa06 	br	be4 <__alt_mem_epcq_avl_mem+0xef800be4>

		} else if(bpp == 16) {
			res = f_read(&fbmp, bmp_pixel, width*2, &readsize);
     d3c:	d9831b17 	ldw	r6,3180(sp)
     d40:	d9028204 	addi	r4,sp,2568
     d44:	d9400204 	addi	r5,sp,8
     d48:	d9c31904 	addi	r7,sp,3172
     d4c:	00061080 	call	6108 <f_read>
			if (res != FR_OK) break;
     d50:	103fcd1e 	bne	r2,zero,c88 <__alt_mem_epcq_avl_mem+0xef800c88>
			for(x=0 ; x<width ; x++,pbmp+=2) *ppix++ = (*(pbmp+1)<<8)|(*(pbmp+0));
     d54:	d8c31a17 	ldw	r3,3176(sp)
     d58:	183fa226 	beq	r3,zero,be4 <__alt_mem_epcq_avl_mem+0xef800be4>
     d5c:	b805883a 	mov	r2,r23
     d60:	d9c00244 	addi	r7,sp,9
     d64:	d9800204 	addi	r6,sp,8
     d68:	39000003 	ldbu	r4,0(r7)
     d6c:	31400003 	ldbu	r5,0(r6)
     d70:	10800084 	addi	r2,r2,2
     d74:	2008923a 	slli	r4,r4,8
     d78:	31800084 	addi	r6,r6,2
     d7c:	39c00084 	addi	r7,r7,2
     d80:	2148b03a 	or	r4,r4,r5
     d84:	113fff8d 	sth	r4,-2(r2)
     d88:	b0bff71e 	bne	r22,r2,d68 <__alt_mem_epcq_avl_mem+0xef800d68>
     d8c:	003f9506 	br	be4 <__alt_mem_epcq_avl_mem+0xef800be4>
     d90:	1023883a 	mov	r17,r2
     d94:	003f7b06 	br	b84 <__alt_mem_epcq_avl_mem+0xef800b84>
     d98:	d8831a15 	stw	r2,3176(sp)
     d9c:	00807804 	movi	r2,480
     da0:	9823883a 	mov	r17,r19
     da4:	14ff760e 	bge	r2,r19,b80 <__alt_mem_epcq_avl_mem+0xef800b80>
     da8:	003ff906 	br	d90 <__alt_mem_epcq_avl_mem+0xef800d90>

	// ファイルヘッダの読み出し 

	res = f_read(&fbmp, bmp_h, 54, &readsize);		// ヘッダ読み出し 
	if (res == FR_OK && readsize == 54) {
		if ((bmp_h[0x00] == 'B') && (bmp_h[0x01] == 'M')) {
     dac:	d8c30b03 	ldbu	r3,3116(sp)
     db0:	00801084 	movi	r2,66
     db4:	1880211e 	bne	r3,r2,e3c <loadbmp+0x360>
     db8:	d8c30b43 	ldbu	r3,3117(sp)
     dbc:	00801344 	movi	r2,77
     dc0:	18801e1e 	bne	r3,r2,e3c <loadbmp+0x360>

			bpp = bmp_h[0x1c];
     dc4:	d8831203 	ldbu	r2,3144(sp)
			if ( !(bpp==32 || bpp==24 || bpp==16) ) {
     dc8:	00c00804 	movi	r3,32

	res = f_read(&fbmp, bmp_h, 54, &readsize);		// ヘッダ読み出し 
	if (res == FR_OK && readsize == 54) {
		if ((bmp_h[0x00] == 'B') && (bmp_h[0x01] == 'M')) {

			bpp = bmp_h[0x1c];
     dcc:	14003fcc 	andi	r16,r2,255
			if ( !(bpp==32 || bpp==24 || bpp==16) ) {
     dd0:	80c00326 	beq	r16,r3,de0 <loadbmp+0x304>
     dd4:	10803dcc 	andi	r2,r2,247
     dd8:	00c00404 	movi	r3,16
     ddc:	10c01f1e 	bne	r2,r3,e5c <loadbmp+0x380>
				printf("[!] This color type cannot display.\n");
				f_close(&fbmp);
				return -2;
			}

			xsize = (bmp_h[0x13] << 8) | bmp_h[0x12];
     de0:	d8830fc3 	ldbu	r2,3135(sp)
     de4:	dd830f83 	ldbu	r22,3134(sp)
			ysize = (bmp_h[0x17] << 8) | bmp_h[0x16];
     de8:	d8c310c3 	ldbu	r3,3139(sp)
				printf("[!] This color type cannot display.\n");
				f_close(&fbmp);
				return -2;
			}

			xsize = (bmp_h[0x13] << 8) | bmp_h[0x12];
     dec:	1004923a 	slli	r2,r2,8
			ysize = (bmp_h[0x17] << 8) | bmp_h[0x16];
     df0:	dcc31083 	ldbu	r19,3138(sp)
     df4:	1806923a 	slli	r3,r3,8
				printf("[!] This color type cannot display.\n");
				f_close(&fbmp);
				return -2;
			}

			xsize = (bmp_h[0x13] << 8) | bmp_h[0x12];
     df8:	15acb03a 	or	r22,r2,r22
			ysize = (bmp_h[0x17] << 8) | bmp_h[0x16];

			line = (xsize * bpp) / 8;
     dfc:	b405383a 	mul	r2,r22,r16
				f_close(&fbmp);
				return -2;
			}

			xsize = (bmp_h[0x13] << 8) | bmp_h[0x12];
			ysize = (bmp_h[0x17] << 8) | bmp_h[0x16];
     e00:	1ce6b03a 	or	r19,r3,r19

			line = (xsize * bpp) / 8;
     e04:	1025d0fa 	srai	r18,r2,3
			if ((line % 4) != 0) line = ((line / 4) + 1) * 4;
     e08:	90c000cc 	andi	r3,r18,3
     e0c:	183f4e26 	beq	r3,zero,b48 <__alt_mem_epcq_avl_mem+0xef800b48>
     e10:	1025d17a 	srai	r18,r2,5
     e14:	94800044 	addi	r18,r18,1
     e18:	94a5883a 	add	r18,r18,r18
     e1c:	94a5883a 	add	r18,r18,r18
     e20:	003f4906 	br	b48 <__alt_mem_epcq_avl_mem+0xef800b48>
	// BMPファイルを開く 

	res = f_open(&fbmp, bmpname, FA_READ);

	if (res != FR_OK) {
		printf("[!] file open failure. (code:%d)\n", res);
     e24:	010000b4 	movhi	r4,2
     e28:	21336204 	addi	r4,r4,-12920
     e2c:	100b883a 	mov	r5,r2
     e30:	000f1840 	call	f184 <printf>
		return -1;
     e34:	00bfffc4 	movi	r2,-1
     e38:	003f9606 	br	c94 <__alt_mem_epcq_avl_mem+0xef800c94>

			line = (xsize * bpp) / 8;
			if ((line % 4) != 0) line = ((line / 4) + 1) * 4;

		} else {
			printf("[!] '%s' is not supported.\n", bmpname);
     e3c:	010000b4 	movhi	r4,2
     e40:	21337404 	addi	r4,r4,-12848
     e44:	880b883a 	mov	r5,r17
     e48:	000f1840 	call	f184 <printf>
			f_close(&fbmp);
     e4c:	d9028204 	addi	r4,sp,2568
     e50:	0006c1c0 	call	6c1c <f_close>
			return -3;
     e54:	00bfff44 	movi	r2,-3
     e58:	003f8e06 	br	c94 <__alt_mem_epcq_avl_mem+0xef800c94>
	if (res == FR_OK && readsize == 54) {
		if ((bmp_h[0x00] == 'B') && (bmp_h[0x01] == 'M')) {

			bpp = bmp_h[0x1c];
			if ( !(bpp==32 || bpp==24 || bpp==16) ) {
				printf("[!] This color type cannot display.\n");
     e5c:	010000b4 	movhi	r4,2
     e60:	21336b04 	addi	r4,r4,-12884
     e64:	000f2780 	call	f278 <puts>
				f_close(&fbmp);
     e68:	d9028204 	addi	r4,sp,2568
     e6c:	0006c1c0 	call	6c1c <f_close>
				return -2;
     e70:	00bfff84 	movi	r2,-2
     e74:	003f8706 	br	c94 <__alt_mem_epcq_avl_mem+0xef800c94>

00000e78 <move_window>:
static
FRESULT move_window (
	FATFS *fs,		/* File system object */
	DWORD sector	/* Sector number to make appearance in the fs->win[] */
)					/* Move to zero only writes back dirty window */
{
     e78:	defff904 	addi	sp,sp,-28
     e7c:	dc400115 	stw	r17,4(sp)
	DWORD wsect;


	wsect = fs->winsect;
     e80:	24400b17 	ldw	r17,44(r4)
static
FRESULT move_window (
	FATFS *fs,		/* File system object */
	DWORD sector	/* Sector number to make appearance in the fs->win[] */
)					/* Move to zero only writes back dirty window */
{
     e84:	dfc00615 	stw	ra,24(sp)
     e88:	dd400515 	stw	r21,20(sp)
     e8c:	dd000415 	stw	r20,16(sp)
     e90:	dcc00315 	stw	r19,12(sp)
     e94:	dc800215 	stw	r18,8(sp)
     e98:	dc000015 	stw	r16,0(sp)
	DWORD wsect;


	wsect = fs->winsect;
	if (wsect != sector) {	/* Changed current window */
     e9c:	89400526 	beq	r17,r5,eb4 <move_window+0x3c>
#if !_FS_READONLY
		if (fs->wflag) {	/* Write back dirty window if needed */
     ea0:	20800103 	ldbu	r2,4(r4)
     ea4:	2827883a 	mov	r19,r5
     ea8:	2021883a 	mov	r16,r4
     eac:	1000131e 	bne	r2,zero,efc <move_window+0x84>
					disk_write(fs->drv, fs->win, wsect, 1);
				}
			}
		}
#endif
		if (sector) {
     eb0:	98000a1e 	bne	r19,zero,edc <move_window+0x64>
				return FR_DISK_ERR;
			fs->winsect = sector;
		}
	}

	return FR_OK;
     eb4:	0005883a 	mov	r2,zero
}
     eb8:	dfc00617 	ldw	ra,24(sp)
     ebc:	dd400517 	ldw	r21,20(sp)
     ec0:	dd000417 	ldw	r20,16(sp)
     ec4:	dcc00317 	ldw	r19,12(sp)
     ec8:	dc800217 	ldw	r18,8(sp)
     ecc:	dc400117 	ldw	r17,4(sp)
     ed0:	dc000017 	ldw	r16,0(sp)
     ed4:	dec00704 	addi	sp,sp,28
     ed8:	f800283a 	ret
				}
			}
		}
#endif
		if (sector) {
			if (disk_read(fs->drv, fs->win, sector, 1) != RES_OK)
     edc:	81000043 	ldbu	r4,1(r16)
     ee0:	81400c04 	addi	r5,r16,48
     ee4:	980d883a 	mov	r6,r19
     ee8:	01c00044 	movi	r7,1
     eec:	000b5000 	call	b500 <disk_read>
     ef0:	1000201e 	bne	r2,zero,f74 <move_window+0xfc>
				return FR_DISK_ERR;
			fs->winsect = sector;
     ef4:	84c00b15 	stw	r19,44(r16)
     ef8:	003fef06 	br	eb8 <__alt_mem_epcq_avl_mem+0xef800eb8>

	wsect = fs->winsect;
	if (wsect != sector) {	/* Changed current window */
#if !_FS_READONLY
		if (fs->wflag) {	/* Write back dirty window if needed */
			if (disk_write(fs->drv, fs->win, wsect, 1) != RES_OK)
     efc:	21000043 	ldbu	r4,1(r4)
     f00:	85400c04 	addi	r21,r16,48
     f04:	05000044 	movi	r20,1
     f08:	a80b883a 	mov	r5,r21
     f0c:	880d883a 	mov	r6,r17
     f10:	a00f883a 	mov	r7,r20
     f14:	000b6e40 	call	b6e4 <disk_write>
     f18:	1000161e 	bne	r2,zero,f74 <move_window+0xfc>
				return FR_DISK_ERR;
			fs->wflag = 0;
			if (wsect < (fs->fatbase + fs->fsize)) {	/* In FAT area */
     f1c:	80800717 	ldw	r2,28(r16)
     f20:	80c00817 	ldw	r3,32(r16)
	if (wsect != sector) {	/* Changed current window */
#if !_FS_READONLY
		if (fs->wflag) {	/* Write back dirty window if needed */
			if (disk_write(fs->drv, fs->win, wsect, 1) != RES_OK)
				return FR_DISK_ERR;
			fs->wflag = 0;
     f24:	80000105 	stb	zero,4(r16)
			if (wsect < (fs->fatbase + fs->fsize)) {	/* In FAT area */
     f28:	10c7883a 	add	r3,r2,r3
     f2c:	88ffe02e 	bgeu	r17,r3,eb0 <__alt_mem_epcq_avl_mem+0xef800eb0>
				BYTE nf;
				for (nf = fs->n_fats; nf > 1; nf--) {	/* Reflect the change to all FAT copies */
     f30:	848000c3 	ldbu	r18,3(r16)
     f34:	90c03fcc 	andi	r3,r18,255
     f38:	a0c00236 	bltu	r20,r3,f44 <move_window+0xcc>
     f3c:	003fdc06 	br	eb0 <__alt_mem_epcq_avl_mem+0xef800eb0>
     f40:	80800717 	ldw	r2,28(r16)
					wsect += fs->fsize;
					disk_write(fs->drv, fs->win, wsect, 1);
     f44:	81000043 	ldbu	r4,1(r16)
				return FR_DISK_ERR;
			fs->wflag = 0;
			if (wsect < (fs->fatbase + fs->fsize)) {	/* In FAT area */
				BYTE nf;
				for (nf = fs->n_fats; nf > 1; nf--) {	/* Reflect the change to all FAT copies */
					wsect += fs->fsize;
     f48:	88a3883a 	add	r17,r17,r2
					disk_write(fs->drv, fs->win, wsect, 1);
     f4c:	a80b883a 	mov	r5,r21
     f50:	880d883a 	mov	r6,r17
     f54:	01c00044 	movi	r7,1
     f58:	000b6e40 	call	b6e4 <disk_write>
			if (disk_write(fs->drv, fs->win, wsect, 1) != RES_OK)
				return FR_DISK_ERR;
			fs->wflag = 0;
			if (wsect < (fs->fatbase + fs->fsize)) {	/* In FAT area */
				BYTE nf;
				for (nf = fs->n_fats; nf > 1; nf--) {	/* Reflect the change to all FAT copies */
     f5c:	90bfffc4 	addi	r2,r18,-1
     f60:	10c03fcc 	andi	r3,r2,255
     f64:	1025883a 	mov	r18,r2
     f68:	1d3ff51e 	bne	r3,r20,f40 <__alt_mem_epcq_avl_mem+0xef800f40>
					disk_write(fs->drv, fs->win, wsect, 1);
				}
			}
		}
#endif
		if (sector) {
     f6c:	983fd126 	beq	r19,zero,eb4 <__alt_mem_epcq_avl_mem+0xef800eb4>
     f70:	003fda06 	br	edc <__alt_mem_epcq_avl_mem+0xef800edc>
	wsect = fs->winsect;
	if (wsect != sector) {	/* Changed current window */
#if !_FS_READONLY
		if (fs->wflag) {	/* Write back dirty window if needed */
			if (disk_write(fs->drv, fs->win, wsect, 1) != RES_OK)
				return FR_DISK_ERR;
     f74:	00800044 	movi	r2,1
     f78:	003fcf06 	br	eb8 <__alt_mem_epcq_avl_mem+0xef800eb8>

00000f7c <get_fileinfo>:
	BYTE nt, *dir;
	TCHAR *p, c;


	p = fno->fname;
	if (dj->sect) {
     f7c:	20800417 	ldw	r2,16(r4)
static
void get_fileinfo (		/* No return code */
	DIR *dj,			/* Pointer to the directory object */
	FILINFO *fno	 	/* Pointer to the file information to be filled */
)
{
     f80:	defffa04 	addi	sp,sp,-24
     f84:	dfc00515 	stw	ra,20(sp)
     f88:	dd000415 	stw	r20,16(sp)
     f8c:	dcc00315 	stw	r19,12(sp)
     f90:	dc800215 	stw	r18,8(sp)
     f94:	dc400115 	stw	r17,4(sp)
     f98:	dc000015 	stw	r16,0(sp)
	UINT i;
	BYTE nt, *dir;
	TCHAR *p, c;


	p = fno->fname;
     f9c:	28c00244 	addi	r3,r5,9
	if (dj->sect) {
     fa0:	10008826 	beq	r2,zero,11c4 <get_fileinfo+0x248>
		dir = dj->dir;
     fa4:	20800517 	ldw	r2,20(r4)
		nt = dir[DIR_NTres];		/* NT flag */
     fa8:	11800303 	ldbu	r6,12(r2)
		for (i = 0; i < 8; i++) {	/* Copy name body */
			c = dir[i];
			if (c == ' ') break;
			if (c == NDDE) c = (TCHAR)DDE;
			if (_USE_LFN && (nt & NS_BODY) && IsUpper(c)) c += 0x20;
     fac:	31c0020c 	andi	r7,r6,8
     fb0:	3800b51e 	bne	r7,zero,1288 <get_fileinfo+0x30c>
	p = fno->fname;
	if (dj->sect) {
		dir = dj->dir;
		nt = dir[DIR_NTres];		/* NT flag */
		for (i = 0; i < 8; i++) {	/* Copy name body */
			c = dir[i];
     fb4:	11c00003 	ldbu	r7,0(r2)
			if (c == ' ') break;
     fb8:	02400804 	movi	r9,32
     fbc:	3a003fcc 	andi	r8,r7,255
     fc0:	4200201c 	xori	r8,r8,128
     fc4:	423fe004 	addi	r8,r8,-128
     fc8:	42404a26 	beq	r8,r9,10f4 <get_fileinfo+0x178>
			if (c == NDDE) c = (TCHAR)DDE;
     fcc:	00c00144 	movi	r3,5
     fd0:	40c14626 	beq	r8,r3,14ec <get_fileinfo+0x570>
			if (IsDBCS1(c) && i < 7 && IsDBCS2(dir[i+1]))
				c = (c << 8) | dir[++i];
			c = ff_convert(c, 1);
			if (!c) c = '?';
#endif
			*p++ = c;
     fd4:	29c00245 	stb	r7,9(r5)
	p = fno->fname;
	if (dj->sect) {
		dir = dj->dir;
		nt = dir[DIR_NTres];		/* NT flag */
		for (i = 0; i < 8; i++) {	/* Copy name body */
			c = dir[i];
     fd8:	11c00043 	ldbu	r7,1(r2)
			if (c == ' ') break;
     fdc:	02400804 	movi	r9,32
			if (IsDBCS1(c) && i < 7 && IsDBCS2(dir[i+1]))
				c = (c << 8) | dir[++i];
			c = ff_convert(c, 1);
			if (!c) c = '?';
#endif
			*p++ = c;
     fe0:	28c00284 	addi	r3,r5,10
	if (dj->sect) {
		dir = dj->dir;
		nt = dir[DIR_NTres];		/* NT flag */
		for (i = 0; i < 8; i++) {	/* Copy name body */
			c = dir[i];
			if (c == ' ') break;
     fe4:	3a003fcc 	andi	r8,r7,255
     fe8:	4200201c 	xori	r8,r8,128
     fec:	423fe004 	addi	r8,r8,-128
     ff0:	42404026 	beq	r8,r9,10f4 <get_fileinfo+0x178>
			if (c == NDDE) c = (TCHAR)DDE;
     ff4:	00c00144 	movi	r3,5
     ff8:	40c13e26 	beq	r8,r3,14f4 <get_fileinfo+0x578>
			if (IsDBCS1(c) && i < 7 && IsDBCS2(dir[i+1]))
				c = (c << 8) | dir[++i];
			c = ff_convert(c, 1);
			if (!c) c = '?';
#endif
			*p++ = c;
     ffc:	29c00285 	stb	r7,10(r5)
	p = fno->fname;
	if (dj->sect) {
		dir = dj->dir;
		nt = dir[DIR_NTres];		/* NT flag */
		for (i = 0; i < 8; i++) {	/* Copy name body */
			c = dir[i];
    1000:	11c00083 	ldbu	r7,2(r2)
			if (c == ' ') break;
    1004:	02400804 	movi	r9,32
			if (IsDBCS1(c) && i < 7 && IsDBCS2(dir[i+1]))
				c = (c << 8) | dir[++i];
			c = ff_convert(c, 1);
			if (!c) c = '?';
#endif
			*p++ = c;
    1008:	28c002c4 	addi	r3,r5,11
	if (dj->sect) {
		dir = dj->dir;
		nt = dir[DIR_NTres];		/* NT flag */
		for (i = 0; i < 8; i++) {	/* Copy name body */
			c = dir[i];
			if (c == ' ') break;
    100c:	3a003fcc 	andi	r8,r7,255
    1010:	4200201c 	xori	r8,r8,128
    1014:	423fe004 	addi	r8,r8,-128
    1018:	42403626 	beq	r8,r9,10f4 <get_fileinfo+0x178>
			if (c == NDDE) c = (TCHAR)DDE;
    101c:	00c00144 	movi	r3,5
    1020:	40c13626 	beq	r8,r3,14fc <get_fileinfo+0x580>
			if (IsDBCS1(c) && i < 7 && IsDBCS2(dir[i+1]))
				c = (c << 8) | dir[++i];
			c = ff_convert(c, 1);
			if (!c) c = '?';
#endif
			*p++ = c;
    1024:	29c002c5 	stb	r7,11(r5)
	p = fno->fname;
	if (dj->sect) {
		dir = dj->dir;
		nt = dir[DIR_NTres];		/* NT flag */
		for (i = 0; i < 8; i++) {	/* Copy name body */
			c = dir[i];
    1028:	11c000c3 	ldbu	r7,3(r2)
			if (c == ' ') break;
    102c:	02400804 	movi	r9,32
			if (IsDBCS1(c) && i < 7 && IsDBCS2(dir[i+1]))
				c = (c << 8) | dir[++i];
			c = ff_convert(c, 1);
			if (!c) c = '?';
#endif
			*p++ = c;
    1030:	28c00304 	addi	r3,r5,12
	if (dj->sect) {
		dir = dj->dir;
		nt = dir[DIR_NTres];		/* NT flag */
		for (i = 0; i < 8; i++) {	/* Copy name body */
			c = dir[i];
			if (c == ' ') break;
    1034:	3a003fcc 	andi	r8,r7,255
    1038:	4200201c 	xori	r8,r8,128
    103c:	423fe004 	addi	r8,r8,-128
    1040:	42402c26 	beq	r8,r9,10f4 <get_fileinfo+0x178>
			if (c == NDDE) c = (TCHAR)DDE;
    1044:	00c00144 	movi	r3,5
    1048:	40c12e26 	beq	r8,r3,1504 <get_fileinfo+0x588>
			if (IsDBCS1(c) && i < 7 && IsDBCS2(dir[i+1]))
				c = (c << 8) | dir[++i];
			c = ff_convert(c, 1);
			if (!c) c = '?';
#endif
			*p++ = c;
    104c:	29c00305 	stb	r7,12(r5)
	p = fno->fname;
	if (dj->sect) {
		dir = dj->dir;
		nt = dir[DIR_NTres];		/* NT flag */
		for (i = 0; i < 8; i++) {	/* Copy name body */
			c = dir[i];
    1050:	11c00103 	ldbu	r7,4(r2)
			if (c == ' ') break;
    1054:	02400804 	movi	r9,32
			if (IsDBCS1(c) && i < 7 && IsDBCS2(dir[i+1]))
				c = (c << 8) | dir[++i];
			c = ff_convert(c, 1);
			if (!c) c = '?';
#endif
			*p++ = c;
    1058:	28c00344 	addi	r3,r5,13
	if (dj->sect) {
		dir = dj->dir;
		nt = dir[DIR_NTres];		/* NT flag */
		for (i = 0; i < 8; i++) {	/* Copy name body */
			c = dir[i];
			if (c == ' ') break;
    105c:	3a003fcc 	andi	r8,r7,255
    1060:	4200201c 	xori	r8,r8,128
    1064:	423fe004 	addi	r8,r8,-128
    1068:	42402226 	beq	r8,r9,10f4 <get_fileinfo+0x178>
			if (c == NDDE) c = (TCHAR)DDE;
    106c:	00c00144 	movi	r3,5
    1070:	40c13026 	beq	r8,r3,1534 <get_fileinfo+0x5b8>
			if (IsDBCS1(c) && i < 7 && IsDBCS2(dir[i+1]))
				c = (c << 8) | dir[++i];
			c = ff_convert(c, 1);
			if (!c) c = '?';
#endif
			*p++ = c;
    1074:	29c00345 	stb	r7,13(r5)
	p = fno->fname;
	if (dj->sect) {
		dir = dj->dir;
		nt = dir[DIR_NTres];		/* NT flag */
		for (i = 0; i < 8; i++) {	/* Copy name body */
			c = dir[i];
    1078:	11c00143 	ldbu	r7,5(r2)
			if (c == ' ') break;
    107c:	02400804 	movi	r9,32
			if (IsDBCS1(c) && i < 7 && IsDBCS2(dir[i+1]))
				c = (c << 8) | dir[++i];
			c = ff_convert(c, 1);
			if (!c) c = '?';
#endif
			*p++ = c;
    1080:	28c00384 	addi	r3,r5,14
	if (dj->sect) {
		dir = dj->dir;
		nt = dir[DIR_NTres];		/* NT flag */
		for (i = 0; i < 8; i++) {	/* Copy name body */
			c = dir[i];
			if (c == ' ') break;
    1084:	3a003fcc 	andi	r8,r7,255
    1088:	4200201c 	xori	r8,r8,128
    108c:	423fe004 	addi	r8,r8,-128
    1090:	42401826 	beq	r8,r9,10f4 <get_fileinfo+0x178>
			if (c == NDDE) c = (TCHAR)DDE;
    1094:	00c00144 	movi	r3,5
    1098:	40c12a26 	beq	r8,r3,1544 <get_fileinfo+0x5c8>
			if (IsDBCS1(c) && i < 7 && IsDBCS2(dir[i+1]))
				c = (c << 8) | dir[++i];
			c = ff_convert(c, 1);
			if (!c) c = '?';
#endif
			*p++ = c;
    109c:	29c00385 	stb	r7,14(r5)
	p = fno->fname;
	if (dj->sect) {
		dir = dj->dir;
		nt = dir[DIR_NTres];		/* NT flag */
		for (i = 0; i < 8; i++) {	/* Copy name body */
			c = dir[i];
    10a0:	11c00183 	ldbu	r7,6(r2)
			if (c == ' ') break;
    10a4:	02400804 	movi	r9,32
			if (IsDBCS1(c) && i < 7 && IsDBCS2(dir[i+1]))
				c = (c << 8) | dir[++i];
			c = ff_convert(c, 1);
			if (!c) c = '?';
#endif
			*p++ = c;
    10a8:	28c003c4 	addi	r3,r5,15
	if (dj->sect) {
		dir = dj->dir;
		nt = dir[DIR_NTres];		/* NT flag */
		for (i = 0; i < 8; i++) {	/* Copy name body */
			c = dir[i];
			if (c == ' ') break;
    10ac:	3a003fcc 	andi	r8,r7,255
    10b0:	4200201c 	xori	r8,r8,128
    10b4:	423fe004 	addi	r8,r8,-128
    10b8:	42400e26 	beq	r8,r9,10f4 <get_fileinfo+0x178>
			if (c == NDDE) c = (TCHAR)DDE;
    10bc:	00c00144 	movi	r3,5
    10c0:	40c12226 	beq	r8,r3,154c <get_fileinfo+0x5d0>
			if (IsDBCS1(c) && i < 7 && IsDBCS2(dir[i+1]))
				c = (c << 8) | dir[++i];
			c = ff_convert(c, 1);
			if (!c) c = '?';
#endif
			*p++ = c;
    10c4:	29c003c5 	stb	r7,15(r5)
	p = fno->fname;
	if (dj->sect) {
		dir = dj->dir;
		nt = dir[DIR_NTres];		/* NT flag */
		for (i = 0; i < 8; i++) {	/* Copy name body */
			c = dir[i];
    10c8:	11c001c3 	ldbu	r7,7(r2)
			if (c == ' ') break;
    10cc:	02400804 	movi	r9,32
			if (IsDBCS1(c) && i < 7 && IsDBCS2(dir[i+1]))
				c = (c << 8) | dir[++i];
			c = ff_convert(c, 1);
			if (!c) c = '?';
#endif
			*p++ = c;
    10d0:	28c00404 	addi	r3,r5,16
	if (dj->sect) {
		dir = dj->dir;
		nt = dir[DIR_NTres];		/* NT flag */
		for (i = 0; i < 8; i++) {	/* Copy name body */
			c = dir[i];
			if (c == ' ') break;
    10d4:	3a003fcc 	andi	r8,r7,255
    10d8:	4200201c 	xori	r8,r8,128
    10dc:	423fe004 	addi	r8,r8,-128
    10e0:	42400426 	beq	r8,r9,10f4 <get_fileinfo+0x178>
			if (c == NDDE) c = (TCHAR)DDE;
    10e4:	00c00144 	movi	r3,5
    10e8:	40c10826 	beq	r8,r3,150c <get_fileinfo+0x590>
			if (IsDBCS1(c) && i < 7 && IsDBCS2(dir[i+1]))
				c = (c << 8) | dir[++i];
			c = ff_convert(c, 1);
			if (!c) c = '?';
#endif
			*p++ = c;
    10ec:	28c00444 	addi	r3,r5,17
    10f0:	29c00405 	stb	r7,16(r5)
		}
		if (dir[8] != ' ') {		/* Copy name extension */
    10f4:	12000203 	ldbu	r8,8(r2)
    10f8:	01c00804 	movi	r7,32
    10fc:	41c01a26 	beq	r8,r7,1168 <get_fileinfo+0x1ec>
			*p++ = '.';
    1100:	02000b84 	movi	r8,46
    1104:	1a000005 	stb	r8,0(r3)
			for (i = 8; i < 11; i++) {
				c = dir[i];
				if (c == ' ') break;
				if (_USE_LFN && (nt & NS_EXT) && IsUpper(c)) c += 0x20;
    1108:	3180040c 	andi	r6,r6,16
			if (!c) c = '?';
#endif
			*p++ = c;
		}
		if (dir[8] != ' ') {		/* Copy name extension */
			*p++ = '.';
    110c:	1a000044 	addi	r8,r3,1
    1110:	3000d11e 	bne	r6,zero,1458 <get_fileinfo+0x4dc>
			for (i = 8; i < 11; i++) {
				c = dir[i];
    1114:	11800203 	ldbu	r6,8(r2)
				if (c == ' ') break;
    1118:	32403fcc 	andi	r9,r6,255
    111c:	4a40201c 	xori	r9,r9,128
    1120:	4a7fe004 	addi	r9,r9,-128
    1124:	49c11926 	beq	r9,r7,158c <get_fileinfo+0x610>
				if (IsDBCS1(c) && i < 10 && IsDBCS2(dir[i+1]))
					c = (c << 8) | dir[++i];
				c = ff_convert(c, 1);
				if (!c) c = '?';
#endif
				*p++ = c;
    1128:	19800045 	stb	r6,1(r3)
			*p++ = c;
		}
		if (dir[8] != ' ') {		/* Copy name extension */
			*p++ = '.';
			for (i = 8; i < 11; i++) {
				c = dir[i];
    112c:	11800243 	ldbu	r6,9(r2)
				if (IsDBCS1(c) && i < 10 && IsDBCS2(dir[i+1]))
					c = (c << 8) | dir[++i];
				c = ff_convert(c, 1);
				if (!c) c = '?';
#endif
				*p++ = c;
    1130:	1a400084 	addi	r9,r3,2
		}
		if (dir[8] != ' ') {		/* Copy name extension */
			*p++ = '.';
			for (i = 8; i < 11; i++) {
				c = dir[i];
				if (c == ' ') break;
    1134:	32003fcc 	andi	r8,r6,255
    1138:	4200201c 	xori	r8,r8,128
    113c:	423fe004 	addi	r8,r8,-128
    1140:	41c11026 	beq	r8,r7,1584 <get_fileinfo+0x608>
				if (IsDBCS1(c) && i < 10 && IsDBCS2(dir[i+1]))
					c = (c << 8) | dir[++i];
				c = ff_convert(c, 1);
				if (!c) c = '?';
#endif
				*p++ = c;
    1144:	19800085 	stb	r6,2(r3)
			*p++ = c;
		}
		if (dir[8] != ' ') {		/* Copy name extension */
			*p++ = '.';
			for (i = 8; i < 11; i++) {
				c = dir[i];
    1148:	11800283 	ldbu	r6,10(r2)
				if (IsDBCS1(c) && i < 10 && IsDBCS2(dir[i+1]))
					c = (c << 8) | dir[++i];
				c = ff_convert(c, 1);
				if (!c) c = '?';
#endif
				*p++ = c;
    114c:	1a4000c4 	addi	r9,r3,3
		}
		if (dir[8] != ' ') {		/* Copy name extension */
			*p++ = '.';
			for (i = 8; i < 11; i++) {
				c = dir[i];
				if (c == ' ') break;
    1150:	32003fcc 	andi	r8,r6,255
    1154:	4200201c 	xori	r8,r8,128
    1158:	423fe004 	addi	r8,r8,-128
    115c:	41c10926 	beq	r8,r7,1584 <get_fileinfo+0x608>
				if (IsDBCS1(c) && i < 10 && IsDBCS2(dir[i+1]))
					c = (c << 8) | dir[++i];
				c = ff_convert(c, 1);
				if (!c) c = '?';
#endif
				*p++ = c;
    1160:	198000c5 	stb	r6,3(r3)
    1164:	18c00104 	addi	r3,r3,4
			}
		}
		fno->fattrib = dir[DIR_Attr];				/* Attribute */
    1168:	118002c3 	ldbu	r6,11(r2)
    116c:	29800205 	stb	r6,8(r5)
		fno->fsize = LD_DWORD(dir+DIR_FileSize);	/* Size */
    1170:	118007c3 	ldbu	r6,31(r2)
    1174:	12000783 	ldbu	r8,30(r2)
    1178:	11c00743 	ldbu	r7,29(r2)
    117c:	300c963a 	slli	r6,r6,24
    1180:	4010943a 	slli	r8,r8,16
    1184:	12400703 	ldbu	r9,28(r2)
    1188:	380e923a 	slli	r7,r7,8
    118c:	320cb03a 	or	r6,r6,r8
    1190:	324cb03a 	or	r6,r6,r9
    1194:	31ccb03a 	or	r6,r6,r7
    1198:	29800015 	stw	r6,0(r5)
		fno->fdate = LD_WORD(dir+DIR_WrtDate);		/* Date */
    119c:	11800643 	ldbu	r6,25(r2)
    11a0:	11c00603 	ldbu	r7,24(r2)
    11a4:	300c923a 	slli	r6,r6,8
    11a8:	31ccb03a 	or	r6,r6,r7
    11ac:	2980010d 	sth	r6,4(r5)
		fno->ftime = LD_WORD(dir+DIR_WrtTime);		/* Time */
    11b0:	11c005c3 	ldbu	r7,23(r2)
    11b4:	11800583 	ldbu	r6,22(r2)
    11b8:	3804923a 	slli	r2,r7,8
    11bc:	1184b03a 	or	r2,r2,r6
    11c0:	2880018d 	sth	r2,6(r5)
	}
	*p = 0;		/* Terminate SFN str by a \0 */
    11c4:	18000005 	stb	zero,0(r3)

#if _USE_LFN
	if (fno->lfname && fno->lfsize) {
    11c8:	2cc00617 	ldw	r19,24(r5)
    11cc:	98000726 	beq	r19,zero,11ec <get_fileinfo+0x270>
    11d0:	28800717 	ldw	r2,28(r5)
    11d4:	10000526 	beq	r2,zero,11ec <get_fileinfo+0x270>
		TCHAR *tp = fno->lfname;
		WCHAR w, *lfn;

		i = 0;
		if (dj->sect && dj->lfn_idx != 0xFFFF) {/* Get LFN if available */
    11d8:	20800417 	ldw	r2,16(r4)
    11dc:	10000b1e 	bne	r2,zero,120c <get_fileinfo+0x290>
#if _USE_LFN
	if (fno->lfname && fno->lfsize) {
		TCHAR *tp = fno->lfname;
		WCHAR w, *lfn;

		i = 0;
    11e0:	0023883a 	mov	r17,zero
#endif
				if (i >= fno->lfsize - 1) { i = 0; break; }	/* Buffer overflow, no LFN */
				tp[i++] = (TCHAR)w;
			}
		}
		tp[i] = 0;	/* Terminate the LFN str by a \0 */
    11e4:	9c63883a 	add	r17,r19,r17
    11e8:	88000005 	stb	zero,0(r17)
	}
#endif
}
    11ec:	dfc00517 	ldw	ra,20(sp)
    11f0:	dd000417 	ldw	r20,16(sp)
    11f4:	dcc00317 	ldw	r19,12(sp)
    11f8:	dc800217 	ldw	r18,8(sp)
    11fc:	dc400117 	ldw	r17,4(sp)
    1200:	dc000017 	ldw	r16,0(sp)
    1204:	dec00604 	addi	sp,sp,24
    1208:	f800283a 	ret
	if (fno->lfname && fno->lfsize) {
		TCHAR *tp = fno->lfname;
		WCHAR w, *lfn;

		i = 0;
		if (dj->sect && dj->lfn_idx != 0xFFFF) {/* Get LFN if available */
    120c:	20c0080b 	ldhu	r3,32(r4)
    1210:	00bfffd4 	movui	r2,65535
    1214:	18bff226 	beq	r3,r2,11e0 <__alt_mem_epcq_avl_mem+0xef8011e0>
			lfn = dj->lfn;
    1218:	24800717 	ldw	r18,28(r4)
			while ((w = *lfn++) != 0) {			/* Get an LFN char */
    121c:	9100000b 	ldhu	r4,0(r18)
    1220:	94800084 	addi	r18,r18,2
    1224:	203fee26 	beq	r4,zero,11e0 <__alt_mem_epcq_avl_mem+0xef8011e0>
    1228:	2821883a 	mov	r16,r5
    122c:	0023883a 	mov	r17,zero
#if !_LFN_UNICODE
				w = ff_convert(w, 0);			/* Unicode -> OEM conversion */
				if (!w) { i = 0; break; }		/* Could not convert, no LFN */
				if (_DF1S && w >= 0x100)		/* Put 1st byte if it is a DBC (always false on SBCS cfg) */
    1230:	05003fc4 	movi	r20,255
    1234:	00000b06 	br	1264 <get_fileinfo+0x2e8>
					tp[i++] = (TCHAR)(w >> 8);
    1238:	89000044 	addi	r4,r17,1
    123c:	29800005 	stb	r6,0(r5)
#endif
				if (i >= fno->lfsize - 1) { i = 0; break; }	/* Buffer overflow, no LFN */
    1240:	80c00717 	ldw	r3,28(r16)
				tp[i++] = (TCHAR)w;
    1244:	990b883a 	add	r5,r19,r4
    1248:	94800084 	addi	r18,r18,2
				w = ff_convert(w, 0);			/* Unicode -> OEM conversion */
				if (!w) { i = 0; break; }		/* Could not convert, no LFN */
				if (_DF1S && w >= 0x100)		/* Put 1st byte if it is a DBC (always false on SBCS cfg) */
					tp[i++] = (TCHAR)(w >> 8);
#endif
				if (i >= fno->lfsize - 1) { i = 0; break; }	/* Buffer overflow, no LFN */
    124c:	18ffffc4 	addi	r3,r3,-1
				tp[i++] = (TCHAR)w;
    1250:	24400044 	addi	r17,r4,1
				w = ff_convert(w, 0);			/* Unicode -> OEM conversion */
				if (!w) { i = 0; break; }		/* Could not convert, no LFN */
				if (_DF1S && w >= 0x100)		/* Put 1st byte if it is a DBC (always false on SBCS cfg) */
					tp[i++] = (TCHAR)(w >> 8);
#endif
				if (i >= fno->lfsize - 1) { i = 0; break; }	/* Buffer overflow, no LFN */
    1254:	20ffe22e 	bgeu	r4,r3,11e0 <__alt_mem_epcq_avl_mem+0xef8011e0>
				tp[i++] = (TCHAR)w;
    1258:	28800005 	stb	r2,0(r5)
		WCHAR w, *lfn;

		i = 0;
		if (dj->sect && dj->lfn_idx != 0xFFFF) {/* Get LFN if available */
			lfn = dj->lfn;
			while ((w = *lfn++) != 0) {			/* Get an LFN char */
    125c:	913fff8b 	ldhu	r4,-2(r18)
    1260:	203fe026 	beq	r4,zero,11e4 <__alt_mem_epcq_avl_mem+0xef8011e4>
#if !_LFN_UNICODE
				w = ff_convert(w, 0);			/* Unicode -> OEM conversion */
    1264:	000b883a 	mov	r5,zero
    1268:	000bbdc0 	call	bbdc <ff_convert>
				if (!w) { i = 0; break; }		/* Could not convert, no LFN */
    126c:	10ffffcc 	andi	r3,r2,65535
				if (_DF1S && w >= 0x100)		/* Put 1st byte if it is a DBC (always false on SBCS cfg) */
					tp[i++] = (TCHAR)(w >> 8);
    1270:	180cd23a 	srli	r6,r3,8
    1274:	9c4b883a 	add	r5,r19,r17
		if (dj->sect && dj->lfn_idx != 0xFFFF) {/* Get LFN if available */
			lfn = dj->lfn;
			while ((w = *lfn++) != 0) {			/* Get an LFN char */
#if !_LFN_UNICODE
				w = ff_convert(w, 0);			/* Unicode -> OEM conversion */
				if (!w) { i = 0; break; }		/* Could not convert, no LFN */
    1278:	183fd926 	beq	r3,zero,11e0 <__alt_mem_epcq_avl_mem+0xef8011e0>
				if (_DF1S && w >= 0x100)		/* Put 1st byte if it is a DBC (always false on SBCS cfg) */
    127c:	a0ffee36 	bltu	r20,r3,1238 <__alt_mem_epcq_avl_mem+0xef801238>
    1280:	8809883a 	mov	r4,r17
    1284:	003fee06 	br	1240 <__alt_mem_epcq_avl_mem+0xef801240>
	p = fno->fname;
	if (dj->sect) {
		dir = dj->dir;
		nt = dir[DIR_NTres];		/* NT flag */
		for (i = 0; i < 8; i++) {	/* Copy name body */
			c = dir[i];
    1288:	11c00003 	ldbu	r7,0(r2)
			if (c == ' ') break;
    128c:	02400804 	movi	r9,32
    1290:	3a003fcc 	andi	r8,r7,255
    1294:	4200201c 	xori	r8,r8,128
    1298:	423fe004 	addi	r8,r8,-128
    129c:	427f9526 	beq	r8,r9,10f4 <__alt_mem_epcq_avl_mem+0xef8010f4>
			if (c == NDDE) c = (TCHAR)DDE;
    12a0:	00c00144 	movi	r3,5
    12a4:	40c08f26 	beq	r8,r3,14e4 <get_fileinfo+0x568>
			if (_USE_LFN && (nt & NS_BODY) && IsUpper(c)) c += 0x20;
    12a8:	38ffefc4 	addi	r3,r7,-65
    12ac:	18c03fcc 	andi	r3,r3,255
    12b0:	02000644 	movi	r8,25
    12b4:	40c00136 	bltu	r8,r3,12bc <get_fileinfo+0x340>
    12b8:	3a4f883a 	add	r7,r7,r9
			if (IsDBCS1(c) && i < 7 && IsDBCS2(dir[i+1]))
				c = (c << 8) | dir[++i];
			c = ff_convert(c, 1);
			if (!c) c = '?';
#endif
			*p++ = c;
    12bc:	29c00245 	stb	r7,9(r5)
	p = fno->fname;
	if (dj->sect) {
		dir = dj->dir;
		nt = dir[DIR_NTres];		/* NT flag */
		for (i = 0; i < 8; i++) {	/* Copy name body */
			c = dir[i];
    12c0:	11c00043 	ldbu	r7,1(r2)
			if (c == ' ') break;
    12c4:	02400804 	movi	r9,32
			if (IsDBCS1(c) && i < 7 && IsDBCS2(dir[i+1]))
				c = (c << 8) | dir[++i];
			c = ff_convert(c, 1);
			if (!c) c = '?';
#endif
			*p++ = c;
    12c8:	28c00284 	addi	r3,r5,10
	if (dj->sect) {
		dir = dj->dir;
		nt = dir[DIR_NTres];		/* NT flag */
		for (i = 0; i < 8; i++) {	/* Copy name body */
			c = dir[i];
			if (c == ' ') break;
    12cc:	3a003fcc 	andi	r8,r7,255
    12d0:	4200201c 	xori	r8,r8,128
    12d4:	423fe004 	addi	r8,r8,-128
    12d8:	427f8626 	beq	r8,r9,10f4 <__alt_mem_epcq_avl_mem+0xef8010f4>
			if (c == NDDE) c = (TCHAR)DDE;
    12dc:	00c00144 	movi	r3,5
    12e0:	40c08c26 	beq	r8,r3,1514 <get_fileinfo+0x598>
			if (_USE_LFN && (nt & NS_BODY) && IsUpper(c)) c += 0x20;
    12e4:	38ffefc4 	addi	r3,r7,-65
    12e8:	18c03fcc 	andi	r3,r3,255
    12ec:	02000644 	movi	r8,25
    12f0:	40c00136 	bltu	r8,r3,12f8 <get_fileinfo+0x37c>
    12f4:	3a4f883a 	add	r7,r7,r9
			if (IsDBCS1(c) && i < 7 && IsDBCS2(dir[i+1]))
				c = (c << 8) | dir[++i];
			c = ff_convert(c, 1);
			if (!c) c = '?';
#endif
			*p++ = c;
    12f8:	29c00285 	stb	r7,10(r5)
	p = fno->fname;
	if (dj->sect) {
		dir = dj->dir;
		nt = dir[DIR_NTres];		/* NT flag */
		for (i = 0; i < 8; i++) {	/* Copy name body */
			c = dir[i];
    12fc:	11c00083 	ldbu	r7,2(r2)
			if (c == ' ') break;
    1300:	02400804 	movi	r9,32
			if (IsDBCS1(c) && i < 7 && IsDBCS2(dir[i+1]))
				c = (c << 8) | dir[++i];
			c = ff_convert(c, 1);
			if (!c) c = '?';
#endif
			*p++ = c;
    1304:	28c002c4 	addi	r3,r5,11
	if (dj->sect) {
		dir = dj->dir;
		nt = dir[DIR_NTres];		/* NT flag */
		for (i = 0; i < 8; i++) {	/* Copy name body */
			c = dir[i];
			if (c == ' ') break;
    1308:	3a003fcc 	andi	r8,r7,255
    130c:	4200201c 	xori	r8,r8,128
    1310:	423fe004 	addi	r8,r8,-128
    1314:	427f7726 	beq	r8,r9,10f4 <__alt_mem_epcq_avl_mem+0xef8010f4>
			if (c == NDDE) c = (TCHAR)DDE;
    1318:	00c00144 	movi	r3,5
    131c:	40c07f26 	beq	r8,r3,151c <get_fileinfo+0x5a0>
			if (_USE_LFN && (nt & NS_BODY) && IsUpper(c)) c += 0x20;
    1320:	38ffefc4 	addi	r3,r7,-65
    1324:	18c03fcc 	andi	r3,r3,255
    1328:	02000644 	movi	r8,25
    132c:	40c00136 	bltu	r8,r3,1334 <get_fileinfo+0x3b8>
    1330:	3a4f883a 	add	r7,r7,r9
			if (IsDBCS1(c) && i < 7 && IsDBCS2(dir[i+1]))
				c = (c << 8) | dir[++i];
			c = ff_convert(c, 1);
			if (!c) c = '?';
#endif
			*p++ = c;
    1334:	29c002c5 	stb	r7,11(r5)
	p = fno->fname;
	if (dj->sect) {
		dir = dj->dir;
		nt = dir[DIR_NTres];		/* NT flag */
		for (i = 0; i < 8; i++) {	/* Copy name body */
			c = dir[i];
    1338:	11c000c3 	ldbu	r7,3(r2)
			if (c == ' ') break;
    133c:	02400804 	movi	r9,32
			if (IsDBCS1(c) && i < 7 && IsDBCS2(dir[i+1]))
				c = (c << 8) | dir[++i];
			c = ff_convert(c, 1);
			if (!c) c = '?';
#endif
			*p++ = c;
    1340:	28c00304 	addi	r3,r5,12
	if (dj->sect) {
		dir = dj->dir;
		nt = dir[DIR_NTres];		/* NT flag */
		for (i = 0; i < 8; i++) {	/* Copy name body */
			c = dir[i];
			if (c == ' ') break;
    1344:	3a003fcc 	andi	r8,r7,255
    1348:	4200201c 	xori	r8,r8,128
    134c:	423fe004 	addi	r8,r8,-128
    1350:	427f6826 	beq	r8,r9,10f4 <__alt_mem_epcq_avl_mem+0xef8010f4>
			if (c == NDDE) c = (TCHAR)DDE;
    1354:	00c00144 	movi	r3,5
    1358:	40c07226 	beq	r8,r3,1524 <get_fileinfo+0x5a8>
			if (_USE_LFN && (nt & NS_BODY) && IsUpper(c)) c += 0x20;
    135c:	38ffefc4 	addi	r3,r7,-65
    1360:	18c03fcc 	andi	r3,r3,255
    1364:	02000644 	movi	r8,25
    1368:	40c00136 	bltu	r8,r3,1370 <get_fileinfo+0x3f4>
    136c:	3a4f883a 	add	r7,r7,r9
			if (IsDBCS1(c) && i < 7 && IsDBCS2(dir[i+1]))
				c = (c << 8) | dir[++i];
			c = ff_convert(c, 1);
			if (!c) c = '?';
#endif
			*p++ = c;
    1370:	29c00305 	stb	r7,12(r5)
	p = fno->fname;
	if (dj->sect) {
		dir = dj->dir;
		nt = dir[DIR_NTres];		/* NT flag */
		for (i = 0; i < 8; i++) {	/* Copy name body */
			c = dir[i];
    1374:	11c00103 	ldbu	r7,4(r2)
			if (c == ' ') break;
    1378:	02400804 	movi	r9,32
			if (IsDBCS1(c) && i < 7 && IsDBCS2(dir[i+1]))
				c = (c << 8) | dir[++i];
			c = ff_convert(c, 1);
			if (!c) c = '?';
#endif
			*p++ = c;
    137c:	28c00344 	addi	r3,r5,13
	if (dj->sect) {
		dir = dj->dir;
		nt = dir[DIR_NTres];		/* NT flag */
		for (i = 0; i < 8; i++) {	/* Copy name body */
			c = dir[i];
			if (c == ' ') break;
    1380:	3a003fcc 	andi	r8,r7,255
    1384:	4200201c 	xori	r8,r8,128
    1388:	423fe004 	addi	r8,r8,-128
    138c:	427f5926 	beq	r8,r9,10f4 <__alt_mem_epcq_avl_mem+0xef8010f4>
			if (c == NDDE) c = (TCHAR)DDE;
    1390:	00c00144 	movi	r3,5
    1394:	40c06526 	beq	r8,r3,152c <get_fileinfo+0x5b0>
			if (_USE_LFN && (nt & NS_BODY) && IsUpper(c)) c += 0x20;
    1398:	38ffefc4 	addi	r3,r7,-65
    139c:	18c03fcc 	andi	r3,r3,255
    13a0:	02000644 	movi	r8,25
    13a4:	40c06d2e 	bgeu	r8,r3,155c <get_fileinfo+0x5e0>
			if (IsDBCS1(c) && i < 7 && IsDBCS2(dir[i+1]))
				c = (c << 8) | dir[++i];
			c = ff_convert(c, 1);
			if (!c) c = '?';
#endif
			*p++ = c;
    13a8:	29c00345 	stb	r7,13(r5)
	p = fno->fname;
	if (dj->sect) {
		dir = dj->dir;
		nt = dir[DIR_NTres];		/* NT flag */
		for (i = 0; i < 8; i++) {	/* Copy name body */
			c = dir[i];
    13ac:	11c00143 	ldbu	r7,5(r2)
			if (c == ' ') break;
    13b0:	02400804 	movi	r9,32
			if (IsDBCS1(c) && i < 7 && IsDBCS2(dir[i+1]))
				c = (c << 8) | dir[++i];
			c = ff_convert(c, 1);
			if (!c) c = '?';
#endif
			*p++ = c;
    13b4:	28c00384 	addi	r3,r5,14
	if (dj->sect) {
		dir = dj->dir;
		nt = dir[DIR_NTres];		/* NT flag */
		for (i = 0; i < 8; i++) {	/* Copy name body */
			c = dir[i];
			if (c == ' ') break;
    13b8:	3a003fcc 	andi	r8,r7,255
    13bc:	4200201c 	xori	r8,r8,128
    13c0:	423fe004 	addi	r8,r8,-128
    13c4:	427f4b26 	beq	r8,r9,10f4 <__alt_mem_epcq_avl_mem+0xef8010f4>
			if (c == NDDE) c = (TCHAR)DDE;
    13c8:	00c00144 	movi	r3,5
    13cc:	40c05b26 	beq	r8,r3,153c <get_fileinfo+0x5c0>
			if (_USE_LFN && (nt & NS_BODY) && IsUpper(c)) c += 0x20;
    13d0:	38ffefc4 	addi	r3,r7,-65
    13d4:	18c03fcc 	andi	r3,r3,255
    13d8:	02000644 	movi	r8,25
    13dc:	40c0612e 	bgeu	r8,r3,1564 <get_fileinfo+0x5e8>
			if (IsDBCS1(c) && i < 7 && IsDBCS2(dir[i+1]))
				c = (c << 8) | dir[++i];
			c = ff_convert(c, 1);
			if (!c) c = '?';
#endif
			*p++ = c;
    13e0:	29c00385 	stb	r7,14(r5)
	p = fno->fname;
	if (dj->sect) {
		dir = dj->dir;
		nt = dir[DIR_NTres];		/* NT flag */
		for (i = 0; i < 8; i++) {	/* Copy name body */
			c = dir[i];
    13e4:	11c00183 	ldbu	r7,6(r2)
			if (c == ' ') break;
    13e8:	02400804 	movi	r9,32
			if (IsDBCS1(c) && i < 7 && IsDBCS2(dir[i+1]))
				c = (c << 8) | dir[++i];
			c = ff_convert(c, 1);
			if (!c) c = '?';
#endif
			*p++ = c;
    13ec:	28c003c4 	addi	r3,r5,15
	if (dj->sect) {
		dir = dj->dir;
		nt = dir[DIR_NTres];		/* NT flag */
		for (i = 0; i < 8; i++) {	/* Copy name body */
			c = dir[i];
			if (c == ' ') break;
    13f0:	3a003fcc 	andi	r8,r7,255
    13f4:	4200201c 	xori	r8,r8,128
    13f8:	423fe004 	addi	r8,r8,-128
    13fc:	427f3d26 	beq	r8,r9,10f4 <__alt_mem_epcq_avl_mem+0xef8010f4>
			if (c == NDDE) c = (TCHAR)DDE;
    1400:	00c00144 	movi	r3,5
    1404:	40c05326 	beq	r8,r3,1554 <get_fileinfo+0x5d8>
			if (_USE_LFN && (nt & NS_BODY) && IsUpper(c)) c += 0x20;
    1408:	38ffefc4 	addi	r3,r7,-65
    140c:	18c03fcc 	andi	r3,r3,255
    1410:	02000644 	movi	r8,25
    1414:	40c0552e 	bgeu	r8,r3,156c <get_fileinfo+0x5f0>
			if (IsDBCS1(c) && i < 7 && IsDBCS2(dir[i+1]))
				c = (c << 8) | dir[++i];
			c = ff_convert(c, 1);
			if (!c) c = '?';
#endif
			*p++ = c;
    1418:	29c003c5 	stb	r7,15(r5)
	p = fno->fname;
	if (dj->sect) {
		dir = dj->dir;
		nt = dir[DIR_NTres];		/* NT flag */
		for (i = 0; i < 8; i++) {	/* Copy name body */
			c = dir[i];
    141c:	11c001c3 	ldbu	r7,7(r2)
			if (c == ' ') break;
    1420:	02400804 	movi	r9,32
			if (IsDBCS1(c) && i < 7 && IsDBCS2(dir[i+1]))
				c = (c << 8) | dir[++i];
			c = ff_convert(c, 1);
			if (!c) c = '?';
#endif
			*p++ = c;
    1424:	28c00404 	addi	r3,r5,16
	if (dj->sect) {
		dir = dj->dir;
		nt = dir[DIR_NTres];		/* NT flag */
		for (i = 0; i < 8; i++) {	/* Copy name body */
			c = dir[i];
			if (c == ' ') break;
    1428:	3a003fcc 	andi	r8,r7,255
    142c:	4200201c 	xori	r8,r8,128
    1430:	423fe004 	addi	r8,r8,-128
    1434:	427f2f26 	beq	r8,r9,10f4 <__alt_mem_epcq_avl_mem+0xef8010f4>
			if (c == NDDE) c = (TCHAR)DDE;
    1438:	00c00144 	movi	r3,5
    143c:	40c03326 	beq	r8,r3,150c <get_fileinfo+0x590>
			if (_USE_LFN && (nt & NS_BODY) && IsUpper(c)) c += 0x20;
    1440:	38ffefc4 	addi	r3,r7,-65
    1444:	18c03fcc 	andi	r3,r3,255
    1448:	02000644 	movi	r8,25
    144c:	40ff2736 	bltu	r8,r3,10ec <__alt_mem_epcq_avl_mem+0xef8010ec>
    1450:	3a4f883a 	add	r7,r7,r9
    1454:	003f2506 	br	10ec <__alt_mem_epcq_avl_mem+0xef8010ec>
			*p++ = c;
		}
		if (dir[8] != ' ') {		/* Copy name extension */
			*p++ = '.';
			for (i = 8; i < 11; i++) {
				c = dir[i];
    1458:	11800203 	ldbu	r6,8(r2)
				if (c == ' ') break;
    145c:	32403fcc 	andi	r9,r6,255
    1460:	4a40201c 	xori	r9,r9,128
    1464:	4a7fe004 	addi	r9,r9,-128
    1468:	49c04826 	beq	r9,r7,158c <get_fileinfo+0x610>
				if (_USE_LFN && (nt & NS_EXT) && IsUpper(c)) c += 0x20;
    146c:	31ffefc4 	addi	r7,r6,-65
    1470:	39c03fcc 	andi	r7,r7,255
    1474:	02000644 	movi	r8,25
    1478:	41c03e2e 	bgeu	r8,r7,1574 <get_fileinfo+0x5f8>
				if (IsDBCS1(c) && i < 10 && IsDBCS2(dir[i+1]))
					c = (c << 8) | dir[++i];
				c = ff_convert(c, 1);
				if (!c) c = '?';
#endif
				*p++ = c;
    147c:	19800045 	stb	r6,1(r3)
			*p++ = c;
		}
		if (dir[8] != ' ') {		/* Copy name extension */
			*p++ = '.';
			for (i = 8; i < 11; i++) {
				c = dir[i];
    1480:	11800243 	ldbu	r6,9(r2)
				if (c == ' ') break;
    1484:	01c00804 	movi	r7,32
				if (IsDBCS1(c) && i < 10 && IsDBCS2(dir[i+1]))
					c = (c << 8) | dir[++i];
				c = ff_convert(c, 1);
				if (!c) c = '?';
#endif
				*p++ = c;
    1488:	1a400084 	addi	r9,r3,2
		}
		if (dir[8] != ' ') {		/* Copy name extension */
			*p++ = '.';
			for (i = 8; i < 11; i++) {
				c = dir[i];
				if (c == ' ') break;
    148c:	32003fcc 	andi	r8,r6,255
    1490:	4200201c 	xori	r8,r8,128
    1494:	423fe004 	addi	r8,r8,-128
    1498:	41c03a26 	beq	r8,r7,1584 <get_fileinfo+0x608>
				if (_USE_LFN && (nt & NS_EXT) && IsUpper(c)) c += 0x20;
    149c:	31ffefc4 	addi	r7,r6,-65
    14a0:	39c03fcc 	andi	r7,r7,255
    14a4:	02000644 	movi	r8,25
    14a8:	41c0342e 	bgeu	r8,r7,157c <get_fileinfo+0x600>
				if (IsDBCS1(c) && i < 10 && IsDBCS2(dir[i+1]))
					c = (c << 8) | dir[++i];
				c = ff_convert(c, 1);
				if (!c) c = '?';
#endif
				*p++ = c;
    14ac:	19800085 	stb	r6,2(r3)
			*p++ = c;
		}
		if (dir[8] != ' ') {		/* Copy name extension */
			*p++ = '.';
			for (i = 8; i < 11; i++) {
				c = dir[i];
    14b0:	11800283 	ldbu	r6,10(r2)
				if (c == ' ') break;
    14b4:	01c00804 	movi	r7,32
				if (IsDBCS1(c) && i < 10 && IsDBCS2(dir[i+1]))
					c = (c << 8) | dir[++i];
				c = ff_convert(c, 1);
				if (!c) c = '?';
#endif
				*p++ = c;
    14b8:	1a4000c4 	addi	r9,r3,3
		}
		if (dir[8] != ' ') {		/* Copy name extension */
			*p++ = '.';
			for (i = 8; i < 11; i++) {
				c = dir[i];
				if (c == ' ') break;
    14bc:	32003fcc 	andi	r8,r6,255
    14c0:	4200201c 	xori	r8,r8,128
    14c4:	423fe004 	addi	r8,r8,-128
    14c8:	41c02e26 	beq	r8,r7,1584 <get_fileinfo+0x608>
				if (_USE_LFN && (nt & NS_EXT) && IsUpper(c)) c += 0x20;
    14cc:	31ffefc4 	addi	r7,r6,-65
    14d0:	39c03fcc 	andi	r7,r7,255
    14d4:	02000644 	movi	r8,25
    14d8:	41ff2136 	bltu	r8,r7,1160 <__alt_mem_epcq_avl_mem+0xef801160>
    14dc:	31800804 	addi	r6,r6,32
    14e0:	003f1f06 	br	1160 <__alt_mem_epcq_avl_mem+0xef801160>
		dir = dj->dir;
		nt = dir[DIR_NTres];		/* NT flag */
		for (i = 0; i < 8; i++) {	/* Copy name body */
			c = dir[i];
			if (c == ' ') break;
			if (c == NDDE) c = (TCHAR)DDE;
    14e4:	01fff944 	movi	r7,-27
    14e8:	003f7406 	br	12bc <__alt_mem_epcq_avl_mem+0xef8012bc>
    14ec:	01fff944 	movi	r7,-27
    14f0:	003eb806 	br	fd4 <__alt_mem_epcq_avl_mem+0xef800fd4>
    14f4:	01fff944 	movi	r7,-27
    14f8:	003ec006 	br	ffc <__alt_mem_epcq_avl_mem+0xef800ffc>
    14fc:	01fff944 	movi	r7,-27
    1500:	003ec806 	br	1024 <__alt_mem_epcq_avl_mem+0xef801024>
    1504:	01fff944 	movi	r7,-27
    1508:	003ed006 	br	104c <__alt_mem_epcq_avl_mem+0xef80104c>
    150c:	01fff944 	movi	r7,-27
    1510:	003ef606 	br	10ec <__alt_mem_epcq_avl_mem+0xef8010ec>
    1514:	01fff944 	movi	r7,-27
    1518:	003f7706 	br	12f8 <__alt_mem_epcq_avl_mem+0xef8012f8>
    151c:	01fff944 	movi	r7,-27
    1520:	003f8406 	br	1334 <__alt_mem_epcq_avl_mem+0xef801334>
    1524:	01fff944 	movi	r7,-27
    1528:	003f9106 	br	1370 <__alt_mem_epcq_avl_mem+0xef801370>
    152c:	01fff944 	movi	r7,-27
    1530:	003f9d06 	br	13a8 <__alt_mem_epcq_avl_mem+0xef8013a8>
    1534:	01fff944 	movi	r7,-27
    1538:	003ece06 	br	1074 <__alt_mem_epcq_avl_mem+0xef801074>
    153c:	01fff944 	movi	r7,-27
    1540:	003fa706 	br	13e0 <__alt_mem_epcq_avl_mem+0xef8013e0>
    1544:	01fff944 	movi	r7,-27
    1548:	003ed406 	br	109c <__alt_mem_epcq_avl_mem+0xef80109c>
    154c:	01fff944 	movi	r7,-27
    1550:	003edc06 	br	10c4 <__alt_mem_epcq_avl_mem+0xef8010c4>
    1554:	01fff944 	movi	r7,-27
    1558:	003faf06 	br	1418 <__alt_mem_epcq_avl_mem+0xef801418>
			if (_USE_LFN && (nt & NS_BODY) && IsUpper(c)) c += 0x20;
    155c:	3a4f883a 	add	r7,r7,r9
    1560:	003f9106 	br	13a8 <__alt_mem_epcq_avl_mem+0xef8013a8>
    1564:	3a4f883a 	add	r7,r7,r9
    1568:	003f9d06 	br	13e0 <__alt_mem_epcq_avl_mem+0xef8013e0>
    156c:	3a4f883a 	add	r7,r7,r9
    1570:	003fa906 	br	1418 <__alt_mem_epcq_avl_mem+0xef801418>
		if (dir[8] != ' ') {		/* Copy name extension */
			*p++ = '.';
			for (i = 8; i < 11; i++) {
				c = dir[i];
				if (c == ' ') break;
				if (_USE_LFN && (nt & NS_EXT) && IsUpper(c)) c += 0x20;
    1574:	31800804 	addi	r6,r6,32
    1578:	003fc006 	br	147c <__alt_mem_epcq_avl_mem+0xef80147c>
    157c:	31800804 	addi	r6,r6,32
    1580:	003fca06 	br	14ac <__alt_mem_epcq_avl_mem+0xef8014ac>
				if (IsDBCS1(c) && i < 10 && IsDBCS2(dir[i+1]))
					c = (c << 8) | dir[++i];
				c = ff_convert(c, 1);
				if (!c) c = '?';
#endif
				*p++ = c;
    1584:	4807883a 	mov	r3,r9
    1588:	003ef706 	br	1168 <__alt_mem_epcq_avl_mem+0xef801168>
			if (!c) c = '?';
#endif
			*p++ = c;
		}
		if (dir[8] != ' ') {		/* Copy name extension */
			*p++ = '.';
    158c:	4007883a 	mov	r3,r8
    1590:	003ef506 	br	1168 <__alt_mem_epcq_avl_mem+0xef801168>

00001594 <sync>:
#if !_FS_READONLY
static
FRESULT sync (	/* FR_OK: successful, FR_DISK_ERR: failed */
	FATFS *fs	/* File system object */
)
{
    1594:	defffa04 	addi	sp,sp,-24
    1598:	dc400115 	stw	r17,4(sp)
)					/* Move to zero only writes back dirty window */
{
	DWORD wsect;


	wsect = fs->winsect;
    159c:	24400b17 	ldw	r17,44(r4)
#if !_FS_READONLY
static
FRESULT sync (	/* FR_OK: successful, FR_DISK_ERR: failed */
	FATFS *fs	/* File system object */
)
{
    15a0:	dc000015 	stw	r16,0(sp)
    15a4:	dfc00515 	stw	ra,20(sp)
    15a8:	dd000415 	stw	r20,16(sp)
    15ac:	dcc00315 	stw	r19,12(sp)
    15b0:	dc800215 	stw	r18,8(sp)
    15b4:	2021883a 	mov	r16,r4
{
	DWORD wsect;


	wsect = fs->winsect;
	if (wsect != sector) {	/* Changed current window */
    15b8:	88000226 	beq	r17,zero,15c4 <sync+0x30>
#if !_FS_READONLY
		if (fs->wflag) {	/* Write back dirty window if needed */
    15bc:	20800103 	ldbu	r2,4(r4)
    15c0:	1000101e 	bne	r2,zero,1604 <sync+0x70>


	res = move_window(fs, 0);
	if (res == FR_OK) {
		/* Update FSInfo sector if needed */
		if (fs->fs_type == FS_FAT32 && fs->fsi_flag) {
    15c4:	80c00003 	ldbu	r3,0(r16)
    15c8:	008000c4 	movi	r2,3
    15cc:	18802c26 	beq	r3,r2,1680 <sync+0xec>
			/* Write it into the FSInfo sector */
			disk_write(fs->drv, fs->win, fs->fsi_sector, 1);
			fs->fsi_flag = 0;
		}
		/* Make sure that no pending write process in the physical drive */
		if (disk_ioctl(fs->drv, CTRL_SYNC, 0) != RES_OK)
    15d0:	81000043 	ldbu	r4,1(r16)
    15d4:	000b883a 	mov	r5,zero
    15d8:	000d883a 	mov	r6,zero
    15dc:	000b9900 	call	b990 <disk_ioctl>
    15e0:	1004c03a 	cmpne	r2,r2,zero
			res = FR_DISK_ERR;
	}

	return res;
}
    15e4:	dfc00517 	ldw	ra,20(sp)
    15e8:	dd000417 	ldw	r20,16(sp)
    15ec:	dcc00317 	ldw	r19,12(sp)
    15f0:	dc800217 	ldw	r18,8(sp)
    15f4:	dc400117 	ldw	r17,4(sp)
    15f8:	dc000017 	ldw	r16,0(sp)
    15fc:	dec00604 	addi	sp,sp,24
    1600:	f800283a 	ret

	wsect = fs->winsect;
	if (wsect != sector) {	/* Changed current window */
#if !_FS_READONLY
		if (fs->wflag) {	/* Write back dirty window if needed */
			if (disk_write(fs->drv, fs->win, wsect, 1) != RES_OK)
    1604:	21000043 	ldbu	r4,1(r4)
    1608:	85000c04 	addi	r20,r16,48
    160c:	04c00044 	movi	r19,1
    1610:	a00b883a 	mov	r5,r20
    1614:	880d883a 	mov	r6,r17
    1618:	980f883a 	mov	r7,r19
    161c:	000b6e40 	call	b6e4 <disk_write>
    1620:	1000151e 	bne	r2,zero,1678 <sync+0xe4>
				return FR_DISK_ERR;
			fs->wflag = 0;
			if (wsect < (fs->fatbase + fs->fsize)) {	/* In FAT area */
    1624:	80800717 	ldw	r2,28(r16)
    1628:	80c00817 	ldw	r3,32(r16)
	if (wsect != sector) {	/* Changed current window */
#if !_FS_READONLY
		if (fs->wflag) {	/* Write back dirty window if needed */
			if (disk_write(fs->drv, fs->win, wsect, 1) != RES_OK)
				return FR_DISK_ERR;
			fs->wflag = 0;
    162c:	80000105 	stb	zero,4(r16)
			if (wsect < (fs->fatbase + fs->fsize)) {	/* In FAT area */
    1630:	10c7883a 	add	r3,r2,r3
    1634:	88ffe32e 	bgeu	r17,r3,15c4 <__alt_mem_epcq_avl_mem+0xef8015c4>
				BYTE nf;
				for (nf = fs->n_fats; nf > 1; nf--) {	/* Reflect the change to all FAT copies */
    1638:	848000c3 	ldbu	r18,3(r16)
    163c:	90c03fcc 	andi	r3,r18,255
    1640:	98c00236 	bltu	r19,r3,164c <sync+0xb8>
    1644:	003fdf06 	br	15c4 <__alt_mem_epcq_avl_mem+0xef8015c4>
    1648:	80800717 	ldw	r2,28(r16)
					wsect += fs->fsize;
					disk_write(fs->drv, fs->win, wsect, 1);
    164c:	81000043 	ldbu	r4,1(r16)
				return FR_DISK_ERR;
			fs->wflag = 0;
			if (wsect < (fs->fatbase + fs->fsize)) {	/* In FAT area */
				BYTE nf;
				for (nf = fs->n_fats; nf > 1; nf--) {	/* Reflect the change to all FAT copies */
					wsect += fs->fsize;
    1650:	88a3883a 	add	r17,r17,r2
					disk_write(fs->drv, fs->win, wsect, 1);
    1654:	a00b883a 	mov	r5,r20
    1658:	880d883a 	mov	r6,r17
    165c:	01c00044 	movi	r7,1
    1660:	000b6e40 	call	b6e4 <disk_write>
			if (disk_write(fs->drv, fs->win, wsect, 1) != RES_OK)
				return FR_DISK_ERR;
			fs->wflag = 0;
			if (wsect < (fs->fatbase + fs->fsize)) {	/* In FAT area */
				BYTE nf;
				for (nf = fs->n_fats; nf > 1; nf--) {	/* Reflect the change to all FAT copies */
    1664:	90ffffc4 	addi	r3,r18,-1
    1668:	18803fcc 	andi	r2,r3,255
    166c:	1825883a 	mov	r18,r3
    1670:	14fff51e 	bne	r2,r19,1648 <__alt_mem_epcq_avl_mem+0xef801648>
    1674:	003fd306 	br	15c4 <__alt_mem_epcq_avl_mem+0xef8015c4>

	wsect = fs->winsect;
	if (wsect != sector) {	/* Changed current window */
#if !_FS_READONLY
		if (fs->wflag) {	/* Write back dirty window if needed */
			if (disk_write(fs->drv, fs->win, wsect, 1) != RES_OK)
    1678:	9805883a 	mov	r2,r19
    167c:	003fd906 	br	15e4 <__alt_mem_epcq_avl_mem+0xef8015e4>


	res = move_window(fs, 0);
	if (res == FR_OK) {
		/* Update FSInfo sector if needed */
		if (fs->fs_type == FS_FAT32 && fs->fsi_flag) {
    1680:	80800143 	ldbu	r2,5(r16)
    1684:	103fd226 	beq	r2,zero,15d0 <__alt_mem_epcq_avl_mem+0xef8015d0>
			fs->winsect = 0;
			/* Create FSInfo structure */
			mem_set(fs->win, 0, 512);
    1688:	84400c04 	addi	r17,r16,48
    168c:	8809883a 	mov	r4,r17
    1690:	000b883a 	mov	r5,zero
    1694:	01808004 	movi	r6,512

	res = move_window(fs, 0);
	if (res == FR_OK) {
		/* Update FSInfo sector if needed */
		if (fs->fs_type == FS_FAT32 && fs->fsi_flag) {
			fs->winsect = 0;
    1698:	80000b15 	stw	zero,44(r16)
    169c:	000f0340 	call	f034 <memset>
			/* Create FSInfo structure */
			mem_set(fs->win, 0, 512);
			ST_WORD(fs->win+BS_55AA, 0xAA55);
			ST_DWORD(fs->win+FSI_LeadSig, 0x41615252);
			ST_DWORD(fs->win+FSI_StrucSig, 0x61417272);
			ST_DWORD(fs->win+FSI_Free_Count, fs->free_clust);
    16a0:	80c00417 	ldw	r3,16(r16)
			ST_DWORD(fs->win+FSI_Nxt_Free, fs->last_clust);
    16a4:	80800317 	ldw	r2,12(r16)
		/* Update FSInfo sector if needed */
		if (fs->fs_type == FS_FAT32 && fs->fsi_flag) {
			fs->winsect = 0;
			/* Create FSInfo structure */
			mem_set(fs->win, 0, 512);
			ST_WORD(fs->win+BS_55AA, 0xAA55);
    16a8:	04801544 	movi	r18,85
			ST_DWORD(fs->win+FSI_LeadSig, 0x41615252);
			ST_DWORD(fs->win+FSI_StrucSig, 0x61417272);
			ST_DWORD(fs->win+FSI_Free_Count, fs->free_clust);
    16ac:	181ed23a 	srli	r15,r3,8
    16b0:	181cd43a 	srli	r14,r3,16
    16b4:	181ad63a 	srli	r13,r3,24
			ST_DWORD(fs->win+FSI_Nxt_Free, fs->last_clust);
    16b8:	1018d23a 	srli	r12,r2,8
    16bc:	1016d43a 	srli	r11,r2,16
    16c0:	1014d63a 	srli	r10,r2,24
			/* Write it into the FSInfo sector */
			disk_write(fs->drv, fs->win, fs->fsi_sector, 1);
    16c4:	81000043 	ldbu	r4,1(r16)
    16c8:	81800517 	ldw	r6,20(r16)
		if (fs->fs_type == FS_FAT32 && fs->fsi_flag) {
			fs->winsect = 0;
			/* Create FSInfo structure */
			mem_set(fs->win, 0, 512);
			ST_WORD(fs->win+BS_55AA, 0xAA55);
			ST_DWORD(fs->win+FSI_LeadSig, 0x41615252);
    16cc:	02401484 	movi	r9,82
    16d0:	01401844 	movi	r5,97
    16d4:	01c01044 	movi	r7,65
			ST_DWORD(fs->win+FSI_StrucSig, 0x61417272);
    16d8:	02001c84 	movi	r8,114
		/* Update FSInfo sector if needed */
		if (fs->fs_type == FS_FAT32 && fs->fsi_flag) {
			fs->winsect = 0;
			/* Create FSInfo structure */
			mem_set(fs->win, 0, 512);
			ST_WORD(fs->win+BS_55AA, 0xAA55);
    16dc:	84808b85 	stb	r18,558(r16)
    16e0:	04bfea84 	movi	r18,-86
			ST_DWORD(fs->win+FSI_LeadSig, 0x41615252);
    16e4:	81400c85 	stb	r5,50(r16)
    16e8:	81c00cc5 	stb	r7,51(r16)
			ST_DWORD(fs->win+FSI_StrucSig, 0x61417272);
    16ec:	81c08585 	stb	r7,534(r16)
    16f0:	814085c5 	stb	r5,535(r16)
		/* Update FSInfo sector if needed */
		if (fs->fs_type == FS_FAT32 && fs->fsi_flag) {
			fs->winsect = 0;
			/* Create FSInfo structure */
			mem_set(fs->win, 0, 512);
			ST_WORD(fs->win+BS_55AA, 0xAA55);
    16f4:	84808bc5 	stb	r18,559(r16)
			ST_DWORD(fs->win+FSI_LeadSig, 0x41615252);
    16f8:	82400c05 	stb	r9,48(r16)
    16fc:	82400c45 	stb	r9,49(r16)
			ST_DWORD(fs->win+FSI_StrucSig, 0x61417272);
    1700:	82008505 	stb	r8,532(r16)
    1704:	82008545 	stb	r8,533(r16)
			ST_DWORD(fs->win+FSI_Free_Count, fs->free_clust);
    1708:	80c08605 	stb	r3,536(r16)
    170c:	83c08645 	stb	r15,537(r16)
    1710:	83808685 	stb	r14,538(r16)
    1714:	834086c5 	stb	r13,539(r16)
			ST_DWORD(fs->win+FSI_Nxt_Free, fs->last_clust);
    1718:	80808705 	stb	r2,540(r16)
    171c:	83008745 	stb	r12,541(r16)
    1720:	82c08785 	stb	r11,542(r16)
    1724:	828087c5 	stb	r10,543(r16)
			/* Write it into the FSInfo sector */
			disk_write(fs->drv, fs->win, fs->fsi_sector, 1);
    1728:	880b883a 	mov	r5,r17
    172c:	01c00044 	movi	r7,1
    1730:	000b6e40 	call	b6e4 <disk_write>
			fs->fsi_flag = 0;
    1734:	80000145 	stb	zero,5(r16)
    1738:	003fa506 	br	15d0 <__alt_mem_epcq_avl_mem+0xef8015d0>

0000173c <put_fat.part.4>:
/*-----------------------------------------------------------------------*/
/* FAT access - Change value of a FAT entry                              */
/*-----------------------------------------------------------------------*/
#if !_FS_READONLY

FRESULT put_fat (
    173c:	defff604 	addi	sp,sp,-40
    1740:	dc800215 	stw	r18,8(sp)
    1744:	dc400115 	stw	r17,4(sp)
    1748:	dc000015 	stw	r16,0(sp)
    174c:	dfc00915 	stw	ra,36(sp)
    1750:	df000815 	stw	fp,32(sp)
    1754:	ddc00715 	stw	r23,28(sp)
    1758:	dd800615 	stw	r22,24(sp)
    175c:	dd400515 	stw	r21,20(sp)
    1760:	dd000415 	stw	r20,16(sp)
    1764:	dcc00315 	stw	r19,12(sp)

	if (clst < 2 || clst >= fs->n_fatent) {	/* Check range */
		res = FR_INT_ERR;

	} else {
		switch (fs->fs_type) {
    1768:	24c00003 	ldbu	r19,0(r4)
    176c:	00800084 	movi	r2,2
/*-----------------------------------------------------------------------*/
/* FAT access - Change value of a FAT entry                              */
/*-----------------------------------------------------------------------*/
#if !_FS_READONLY

FRESULT put_fat (
    1770:	2021883a 	mov	r16,r4
    1774:	2823883a 	mov	r17,r5
    1778:	3025883a 	mov	r18,r6

	if (clst < 2 || clst >= fs->n_fatent) {	/* Check range */
		res = FR_INT_ERR;

	} else {
		switch (fs->fs_type) {
    177c:	98807726 	beq	r19,r2,195c <put_fat.part.4+0x220>
    1780:	00c000c4 	movi	r3,3
    1784:	98c05326 	beq	r19,r3,18d4 <put_fat.part.4+0x198>
    1788:	00c00044 	movi	r3,1
    178c:	98c00e26 	beq	r19,r3,17c8 <put_fat.part.4+0x8c>
			break;

		default :
			res = FR_INT_ERR;
		}
		fs->wflag = 1;
    1790:	00c00044 	movi	r3,1
    1794:	80c00105 	stb	r3,4(r16)
	}

	return res;
}
    1798:	dfc00917 	ldw	ra,36(sp)
    179c:	df000817 	ldw	fp,32(sp)
    17a0:	ddc00717 	ldw	r23,28(sp)
    17a4:	dd800617 	ldw	r22,24(sp)
    17a8:	dd400517 	ldw	r21,20(sp)
    17ac:	dd000417 	ldw	r20,16(sp)
    17b0:	dcc00317 	ldw	r19,12(sp)
    17b4:	dc800217 	ldw	r18,8(sp)
    17b8:	dc400117 	ldw	r17,4(sp)
    17bc:	dc000017 	ldw	r16,0(sp)
    17c0:	dec00a04 	addi	sp,sp,40
    17c4:	f800283a 	ret
		res = FR_INT_ERR;

	} else {
		switch (fs->fs_type) {
		case FS_FAT12 :
			bc = clst; bc += bc / 2;
    17c8:	28e8d83a 	srl	r20,r5,r3
			res = move_window(fs, fs->fatbase + (bc / SS(fs)));
    17cc:	20800817 	ldw	r2,32(r4)
)					/* Move to zero only writes back dirty window */
{
	DWORD wsect;


	wsect = fs->winsect;
    17d0:	25800b17 	ldw	r22,44(r4)
		res = FR_INT_ERR;

	} else {
		switch (fs->fs_type) {
		case FS_FAT12 :
			bc = clst; bc += bc / 2;
    17d4:	a169883a 	add	r20,r20,r5
			res = move_window(fs, fs->fatbase + (bc / SS(fs)));
    17d8:	a02ad27a 	srli	r21,r20,9
    17dc:	a8ab883a 	add	r21,r21,r2
{
	DWORD wsect;


	wsect = fs->winsect;
	if (wsect != sector) {	/* Changed current window */
    17e0:	ad800526 	beq	r21,r22,17f8 <put_fat.part.4+0xbc>
#if !_FS_READONLY
		if (fs->wflag) {	/* Write back dirty window if needed */
    17e4:	20800103 	ldbu	r2,4(r4)
    17e8:	1000b41e 	bne	r2,zero,1abc <put_fat.part.4+0x380>
					disk_write(fs->drv, fs->win, wsect, 1);
				}
			}
		}
#endif
		if (sector) {
    17ec:	a800cf1e 	bne	r21,zero,1b2c <put_fat.part.4+0x3f0>
    17f0:	80800817 	ldw	r2,32(r16)
    17f4:	85400b17 	ldw	r21,44(r16)
		case FS_FAT12 :
			bc = clst; bc += bc / 2;
			res = move_window(fs, fs->fatbase + (bc / SS(fs)));
			if (res != FR_OK) break;
			p = &fs->win[bc % SS(fs)];
			*p = (clst & 1) ? ((*p & 0x0F) | ((BYTE)val << 4)) : (BYTE)val;
    17f8:	8c40004c 	andi	r17,r17,1
		switch (fs->fs_type) {
		case FS_FAT12 :
			bc = clst; bc += bc / 2;
			res = move_window(fs, fs->fatbase + (bc / SS(fs)));
			if (res != FR_OK) break;
			p = &fs->win[bc % SS(fs)];
    17fc:	a0c07fcc 	andi	r3,r20,511
			*p = (clst & 1) ? ((*p & 0x0F) | ((BYTE)val << 4)) : (BYTE)val;
    1800:	88006d1e 	bne	r17,zero,19b8 <put_fat.part.4+0x27c>
    1804:	9009883a 	mov	r4,r18
    1808:	80c7883a 	add	r3,r16,r3
			bc++;
    180c:	a5000044 	addi	r20,r20,1
			fs->wflag = 1;
			res = move_window(fs, fs->fatbase + (bc / SS(fs)));
    1810:	a026d27a 	srli	r19,r20,9
		case FS_FAT12 :
			bc = clst; bc += bc / 2;
			res = move_window(fs, fs->fatbase + (bc / SS(fs)));
			if (res != FR_OK) break;
			p = &fs->win[bc % SS(fs)];
			*p = (clst & 1) ? ((*p & 0x0F) | ((BYTE)val << 4)) : (BYTE)val;
    1814:	19000c05 	stb	r4,48(r3)
			bc++;
			fs->wflag = 1;
    1818:	00c00044 	movi	r3,1
    181c:	80c00105 	stb	r3,4(r16)
			res = move_window(fs, fs->fatbase + (bc / SS(fs)));
    1820:	14e7883a 	add	r19,r2,r19
{
	DWORD wsect;


	wsect = fs->winsect;
	if (wsect != sector) {	/* Changed current window */
    1824:	9d402426 	beq	r19,r21,18b8 <put_fat.part.4+0x17c>
#if !_FS_READONLY
		if (fs->wflag) {	/* Write back dirty window if needed */
			if (disk_write(fs->drv, fs->win, wsect, 1) != RES_OK)
    1828:	81000043 	ldbu	r4,1(r16)
    182c:	85800c04 	addi	r22,r16,48
    1830:	05c00044 	movi	r23,1
    1834:	b00b883a 	mov	r5,r22
    1838:	a80d883a 	mov	r6,r21
    183c:	b80f883a 	mov	r7,r23
    1840:	000b6e40 	call	b6e4 <disk_write>
    1844:	1000bf1e 	bne	r2,zero,1b44 <put_fat.part.4+0x408>
				return FR_DISK_ERR;
			fs->wflag = 0;
			if (wsect < (fs->fatbase + fs->fsize)) {	/* In FAT area */
    1848:	80800717 	ldw	r2,28(r16)
    184c:	80c00817 	ldw	r3,32(r16)
	if (wsect != sector) {	/* Changed current window */
#if !_FS_READONLY
		if (fs->wflag) {	/* Write back dirty window if needed */
			if (disk_write(fs->drv, fs->win, wsect, 1) != RES_OK)
				return FR_DISK_ERR;
			fs->wflag = 0;
    1850:	80000105 	stb	zero,4(r16)
			if (wsect < (fs->fatbase + fs->fsize)) {	/* In FAT area */
    1854:	10c7883a 	add	r3,r2,r3
    1858:	a8c00f2e 	bgeu	r21,r3,1898 <put_fat.part.4+0x15c>
				BYTE nf;
				for (nf = fs->n_fats; nf > 1; nf--) {	/* Reflect the change to all FAT copies */
    185c:	870000c3 	ldbu	fp,3(r16)
    1860:	e0c03fcc 	andi	r3,fp,255
    1864:	b8c00236 	bltu	r23,r3,1870 <put_fat.part.4+0x134>
    1868:	00000b06 	br	1898 <put_fat.part.4+0x15c>
    186c:	80800717 	ldw	r2,28(r16)
					wsect += fs->fsize;
					disk_write(fs->drv, fs->win, wsect, 1);
    1870:	81000043 	ldbu	r4,1(r16)
				return FR_DISK_ERR;
			fs->wflag = 0;
			if (wsect < (fs->fatbase + fs->fsize)) {	/* In FAT area */
				BYTE nf;
				for (nf = fs->n_fats; nf > 1; nf--) {	/* Reflect the change to all FAT copies */
					wsect += fs->fsize;
    1874:	a8ab883a 	add	r21,r21,r2
					disk_write(fs->drv, fs->win, wsect, 1);
    1878:	b00b883a 	mov	r5,r22
    187c:	a80d883a 	mov	r6,r21
    1880:	01c00044 	movi	r7,1
    1884:	000b6e40 	call	b6e4 <disk_write>
			if (disk_write(fs->drv, fs->win, wsect, 1) != RES_OK)
				return FR_DISK_ERR;
			fs->wflag = 0;
			if (wsect < (fs->fatbase + fs->fsize)) {	/* In FAT area */
				BYTE nf;
				for (nf = fs->n_fats; nf > 1; nf--) {	/* Reflect the change to all FAT copies */
    1888:	e0bfffc4 	addi	r2,fp,-1
    188c:	10c03fcc 	andi	r3,r2,255
    1890:	1039883a 	mov	fp,r2
    1894:	1dfff51e 	bne	r3,r23,186c <__alt_mem_epcq_avl_mem+0xef80186c>
					disk_write(fs->drv, fs->win, wsect, 1);
				}
			}
		}
#endif
		if (sector) {
    1898:	98000726 	beq	r19,zero,18b8 <put_fat.part.4+0x17c>
			if (disk_read(fs->drv, fs->win, sector, 1) != RES_OK)
    189c:	81000043 	ldbu	r4,1(r16)
    18a0:	b00b883a 	mov	r5,r22
    18a4:	980d883a 	mov	r6,r19
    18a8:	01c00044 	movi	r7,1
    18ac:	000b5000 	call	b500 <disk_read>
    18b0:	1000a41e 	bne	r2,zero,1b44 <put_fat.part.4+0x408>
				return FR_DISK_ERR;
			fs->winsect = sector;
    18b4:	84c00b15 	stw	r19,44(r16)
			*p = (clst & 1) ? ((*p & 0x0F) | ((BYTE)val << 4)) : (BYTE)val;
			bc++;
			fs->wflag = 1;
			res = move_window(fs, fs->fatbase + (bc / SS(fs)));
			if (res != FR_OK) break;
			p = &fs->win[bc % SS(fs)];
    18b8:	a5007fcc 	andi	r20,r20,511
			*p = (clst & 1) ? (BYTE)(val >> 4) : ((*p & 0xF0) | ((BYTE)(val >> 8) & 0x0F));
    18bc:	8800a626 	beq	r17,zero,1b58 <put_fat.part.4+0x41c>
    18c0:	9024d13a 	srli	r18,r18,4
    18c4:	8529883a 	add	r20,r16,r20
    18c8:	a4800c05 	stb	r18,48(r20)
    18cc:	0005883a 	mov	r2,zero
    18d0:	003faf06 	br	1790 <__alt_mem_epcq_avl_mem+0xef801790>
			p = &fs->win[clst * 2 % SS(fs)];
			ST_WORD(p, (WORD)val);
			break;

		case FS_FAT32 :
			res = move_window(fs, fs->fatbase + (clst / (SS(fs) / 4)));
    18d4:	2826d1fa 	srli	r19,r5,7
    18d8:	20800817 	ldw	r2,32(r4)
)					/* Move to zero only writes back dirty window */
{
	DWORD wsect;


	wsect = fs->winsect;
    18dc:	25000b17 	ldw	r20,44(r4)
			p = &fs->win[clst * 2 % SS(fs)];
			ST_WORD(p, (WORD)val);
			break;

		case FS_FAT32 :
			res = move_window(fs, fs->fatbase + (clst / (SS(fs) / 4)));
    18e0:	98a7883a 	add	r19,r19,r2
{
	DWORD wsect;


	wsect = fs->winsect;
	if (wsect != sector) {	/* Changed current window */
    18e4:	9d000a26 	beq	r19,r20,1910 <put_fat.part.4+0x1d4>
#if !_FS_READONLY
		if (fs->wflag) {	/* Write back dirty window if needed */
    18e8:	20800103 	ldbu	r2,4(r4)
    18ec:	1000391e 	bne	r2,zero,19d4 <put_fat.part.4+0x298>
					disk_write(fs->drv, fs->win, wsect, 1);
				}
			}
		}
#endif
		if (sector) {
    18f0:	98000726 	beq	r19,zero,1910 <put_fat.part.4+0x1d4>
			if (disk_read(fs->drv, fs->win, sector, 1) != RES_OK)
    18f4:	81000043 	ldbu	r4,1(r16)
    18f8:	81400c04 	addi	r5,r16,48
    18fc:	980d883a 	mov	r6,r19
    1900:	01c00044 	movi	r7,1
    1904:	000b5000 	call	b500 <disk_read>
    1908:	10008e1e 	bne	r2,zero,1b44 <put_fat.part.4+0x408>
				return FR_DISK_ERR;
			fs->winsect = sector;
    190c:	84c00b15 	stw	r19,44(r16)
			break;

		case FS_FAT32 :
			res = move_window(fs, fs->fatbase + (clst / (SS(fs) / 4)));
			if (res != FR_OK) break;
			p = &fs->win[clst * 4 % SS(fs)];
    1910:	8c63883a 	add	r17,r17,r17
    1914:	8c63883a 	add	r17,r17,r17
    1918:	8c407f0c 	andi	r17,r17,508
    191c:	88c00c04 	addi	r3,r17,48
    1920:	80c7883a 	add	r3,r16,r3
			val |= LD_DWORD(p) & 0xF0000000;
    1924:	190000c3 	ldbu	r4,3(r3)
    1928:	8463883a 	add	r17,r16,r17
			ST_DWORD(p, val);
    192c:	0005883a 	mov	r2,zero

		case FS_FAT32 :
			res = move_window(fs, fs->fatbase + (clst / (SS(fs) / 4)));
			if (res != FR_OK) break;
			p = &fs->win[clst * 4 % SS(fs)];
			val |= LD_DWORD(p) & 0xF0000000;
    1930:	2008963a 	slli	r4,r4,24
    1934:	213c002c 	andhi	r4,r4,61440
    1938:	24a4b03a 	or	r18,r4,r18
			ST_DWORD(p, val);
    193c:	900cd23a 	srli	r6,r18,8
    1940:	900ad43a 	srli	r5,r18,16
    1944:	9008d63a 	srli	r4,r18,24
    1948:	8c800c05 	stb	r18,48(r17)
    194c:	19800045 	stb	r6,1(r3)
    1950:	19400085 	stb	r5,2(r3)
    1954:	190000c5 	stb	r4,3(r3)
    1958:	003f8d06 	br	1790 <__alt_mem_epcq_avl_mem+0xef801790>
			p = &fs->win[bc % SS(fs)];
			*p = (clst & 1) ? (BYTE)(val >> 4) : ((*p & 0xF0) | ((BYTE)(val >> 8) & 0x0F));
			break;

		case FS_FAT16 :
			res = move_window(fs, fs->fatbase + (clst / (SS(fs) / 2)));
    195c:	2826d23a 	srli	r19,r5,8
    1960:	20800817 	ldw	r2,32(r4)
)					/* Move to zero only writes back dirty window */
{
	DWORD wsect;


	wsect = fs->winsect;
    1964:	25000b17 	ldw	r20,44(r4)
			p = &fs->win[bc % SS(fs)];
			*p = (clst & 1) ? (BYTE)(val >> 4) : ((*p & 0xF0) | ((BYTE)(val >> 8) & 0x0F));
			break;

		case FS_FAT16 :
			res = move_window(fs, fs->fatbase + (clst / (SS(fs) / 2)));
    1968:	98a7883a 	add	r19,r19,r2
{
	DWORD wsect;


	wsect = fs->winsect;
	if (wsect != sector) {	/* Changed current window */
    196c:	9d000a26 	beq	r19,r20,1998 <put_fat.part.4+0x25c>
#if !_FS_READONLY
		if (fs->wflag) {	/* Write back dirty window if needed */
    1970:	20800103 	ldbu	r2,4(r4)
    1974:	1000341e 	bne	r2,zero,1a48 <put_fat.part.4+0x30c>
					disk_write(fs->drv, fs->win, wsect, 1);
				}
			}
		}
#endif
		if (sector) {
    1978:	98000726 	beq	r19,zero,1998 <put_fat.part.4+0x25c>
			if (disk_read(fs->drv, fs->win, sector, 1) != RES_OK)
    197c:	81000043 	ldbu	r4,1(r16)
    1980:	81400c04 	addi	r5,r16,48
    1984:	980d883a 	mov	r6,r19
    1988:	01c00044 	movi	r7,1
    198c:	000b5000 	call	b500 <disk_read>
    1990:	10006c1e 	bne	r2,zero,1b44 <put_fat.part.4+0x408>
				return FR_DISK_ERR;
			fs->winsect = sector;
    1994:	84c00b15 	stw	r19,44(r16)

		case FS_FAT16 :
			res = move_window(fs, fs->fatbase + (clst / (SS(fs) / 2)));
			if (res != FR_OK) break;
			p = &fs->win[clst * 2 % SS(fs)];
			ST_WORD(p, (WORD)val);
    1998:	9004d23a 	srli	r2,r18,8
			break;

		case FS_FAT16 :
			res = move_window(fs, fs->fatbase + (clst / (SS(fs) / 2)));
			if (res != FR_OK) break;
			p = &fs->win[clst * 2 % SS(fs)];
    199c:	8c63883a 	add	r17,r17,r17
    19a0:	8c407f8c 	andi	r17,r17,510
			ST_WORD(p, (WORD)val);
    19a4:	8447883a 	add	r3,r16,r17
    19a8:	18800c45 	stb	r2,49(r3)
    19ac:	1c800c05 	stb	r18,48(r3)
    19b0:	0005883a 	mov	r2,zero
    19b4:	003f7606 	br	1790 <__alt_mem_epcq_avl_mem+0xef801790>
		case FS_FAT12 :
			bc = clst; bc += bc / 2;
			res = move_window(fs, fs->fatbase + (bc / SS(fs)));
			if (res != FR_OK) break;
			p = &fs->win[bc % SS(fs)];
			*p = (clst & 1) ? ((*p & 0x0F) | ((BYTE)val << 4)) : (BYTE)val;
    19b8:	80c7883a 	add	r3,r16,r3
    19bc:	91003fcc 	andi	r4,r18,255
    19c0:	19800c03 	ldbu	r6,48(r3)
    19c4:	200a913a 	slli	r5,r4,4
    19c8:	310003cc 	andi	r4,r6,15
    19cc:	2148b03a 	or	r4,r4,r5
    19d0:	003f8e06 	br	180c <__alt_mem_epcq_avl_mem+0xef80180c>

	wsect = fs->winsect;
	if (wsect != sector) {	/* Changed current window */
#if !_FS_READONLY
		if (fs->wflag) {	/* Write back dirty window if needed */
			if (disk_write(fs->drv, fs->win, wsect, 1) != RES_OK)
    19d4:	21000043 	ldbu	r4,1(r4)
    19d8:	85c00c04 	addi	r23,r16,48
    19dc:	05800044 	movi	r22,1
    19e0:	b80b883a 	mov	r5,r23
    19e4:	a00d883a 	mov	r6,r20
    19e8:	b00f883a 	mov	r7,r22
    19ec:	000b6e40 	call	b6e4 <disk_write>
    19f0:	1000541e 	bne	r2,zero,1b44 <put_fat.part.4+0x408>
				return FR_DISK_ERR;
			fs->wflag = 0;
			if (wsect < (fs->fatbase + fs->fsize)) {	/* In FAT area */
    19f4:	80800717 	ldw	r2,28(r16)
    19f8:	80c00817 	ldw	r3,32(r16)
	if (wsect != sector) {	/* Changed current window */
#if !_FS_READONLY
		if (fs->wflag) {	/* Write back dirty window if needed */
			if (disk_write(fs->drv, fs->win, wsect, 1) != RES_OK)
				return FR_DISK_ERR;
			fs->wflag = 0;
    19fc:	80000105 	stb	zero,4(r16)
			if (wsect < (fs->fatbase + fs->fsize)) {	/* In FAT area */
    1a00:	10c7883a 	add	r3,r2,r3
    1a04:	a0ffba2e 	bgeu	r20,r3,18f0 <__alt_mem_epcq_avl_mem+0xef8018f0>
				BYTE nf;
				for (nf = fs->n_fats; nf > 1; nf--) {	/* Reflect the change to all FAT copies */
    1a08:	854000c3 	ldbu	r21,3(r16)
    1a0c:	a8c03fcc 	andi	r3,r21,255
    1a10:	b0c00236 	bltu	r22,r3,1a1c <put_fat.part.4+0x2e0>
    1a14:	003fb606 	br	18f0 <__alt_mem_epcq_avl_mem+0xef8018f0>
    1a18:	80800717 	ldw	r2,28(r16)
					wsect += fs->fsize;
					disk_write(fs->drv, fs->win, wsect, 1);
    1a1c:	81000043 	ldbu	r4,1(r16)
				return FR_DISK_ERR;
			fs->wflag = 0;
			if (wsect < (fs->fatbase + fs->fsize)) {	/* In FAT area */
				BYTE nf;
				for (nf = fs->n_fats; nf > 1; nf--) {	/* Reflect the change to all FAT copies */
					wsect += fs->fsize;
    1a20:	a0a9883a 	add	r20,r20,r2
					disk_write(fs->drv, fs->win, wsect, 1);
    1a24:	b80b883a 	mov	r5,r23
    1a28:	a00d883a 	mov	r6,r20
    1a2c:	01c00044 	movi	r7,1
    1a30:	000b6e40 	call	b6e4 <disk_write>
			if (disk_write(fs->drv, fs->win, wsect, 1) != RES_OK)
				return FR_DISK_ERR;
			fs->wflag = 0;
			if (wsect < (fs->fatbase + fs->fsize)) {	/* In FAT area */
				BYTE nf;
				for (nf = fs->n_fats; nf > 1; nf--) {	/* Reflect the change to all FAT copies */
    1a34:	a8bfffc4 	addi	r2,r21,-1
    1a38:	10c03fcc 	andi	r3,r2,255
    1a3c:	102b883a 	mov	r21,r2
    1a40:	1dbff51e 	bne	r3,r22,1a18 <__alt_mem_epcq_avl_mem+0xef801a18>
    1a44:	003faa06 	br	18f0 <__alt_mem_epcq_avl_mem+0xef8018f0>

	wsect = fs->winsect;
	if (wsect != sector) {	/* Changed current window */
#if !_FS_READONLY
		if (fs->wflag) {	/* Write back dirty window if needed */
			if (disk_write(fs->drv, fs->win, wsect, 1) != RES_OK)
    1a48:	21000043 	ldbu	r4,1(r4)
    1a4c:	85c00c04 	addi	r23,r16,48
    1a50:	05800044 	movi	r22,1
    1a54:	b80b883a 	mov	r5,r23
    1a58:	a00d883a 	mov	r6,r20
    1a5c:	b00f883a 	mov	r7,r22
    1a60:	000b6e40 	call	b6e4 <disk_write>
    1a64:	1000371e 	bne	r2,zero,1b44 <put_fat.part.4+0x408>
				return FR_DISK_ERR;
			fs->wflag = 0;
			if (wsect < (fs->fatbase + fs->fsize)) {	/* In FAT area */
    1a68:	80800717 	ldw	r2,28(r16)
    1a6c:	80c00817 	ldw	r3,32(r16)
	if (wsect != sector) {	/* Changed current window */
#if !_FS_READONLY
		if (fs->wflag) {	/* Write back dirty window if needed */
			if (disk_write(fs->drv, fs->win, wsect, 1) != RES_OK)
				return FR_DISK_ERR;
			fs->wflag = 0;
    1a70:	80000105 	stb	zero,4(r16)
			if (wsect < (fs->fatbase + fs->fsize)) {	/* In FAT area */
    1a74:	10c7883a 	add	r3,r2,r3
    1a78:	a0ffbf2e 	bgeu	r20,r3,1978 <__alt_mem_epcq_avl_mem+0xef801978>
				BYTE nf;
				for (nf = fs->n_fats; nf > 1; nf--) {	/* Reflect the change to all FAT copies */
    1a7c:	854000c3 	ldbu	r21,3(r16)
    1a80:	a8c03fcc 	andi	r3,r21,255
    1a84:	b0c00236 	bltu	r22,r3,1a90 <put_fat.part.4+0x354>
    1a88:	003fbb06 	br	1978 <__alt_mem_epcq_avl_mem+0xef801978>
    1a8c:	80800717 	ldw	r2,28(r16)
					wsect += fs->fsize;
					disk_write(fs->drv, fs->win, wsect, 1);
    1a90:	81000043 	ldbu	r4,1(r16)
				return FR_DISK_ERR;
			fs->wflag = 0;
			if (wsect < (fs->fatbase + fs->fsize)) {	/* In FAT area */
				BYTE nf;
				for (nf = fs->n_fats; nf > 1; nf--) {	/* Reflect the change to all FAT copies */
					wsect += fs->fsize;
    1a94:	a0a9883a 	add	r20,r20,r2
					disk_write(fs->drv, fs->win, wsect, 1);
    1a98:	b80b883a 	mov	r5,r23
    1a9c:	a00d883a 	mov	r6,r20
    1aa0:	01c00044 	movi	r7,1
    1aa4:	000b6e40 	call	b6e4 <disk_write>
			if (disk_write(fs->drv, fs->win, wsect, 1) != RES_OK)
				return FR_DISK_ERR;
			fs->wflag = 0;
			if (wsect < (fs->fatbase + fs->fsize)) {	/* In FAT area */
				BYTE nf;
				for (nf = fs->n_fats; nf > 1; nf--) {	/* Reflect the change to all FAT copies */
    1aa8:	a8bfffc4 	addi	r2,r21,-1
    1aac:	10c03fcc 	andi	r3,r2,255
    1ab0:	102b883a 	mov	r21,r2
    1ab4:	1dbff51e 	bne	r3,r22,1a8c <__alt_mem_epcq_avl_mem+0xef801a8c>
    1ab8:	003faf06 	br	1978 <__alt_mem_epcq_avl_mem+0xef801978>

	wsect = fs->winsect;
	if (wsect != sector) {	/* Changed current window */
#if !_FS_READONLY
		if (fs->wflag) {	/* Write back dirty window if needed */
			if (disk_write(fs->drv, fs->win, wsect, 1) != RES_OK)
    1abc:	21000043 	ldbu	r4,1(r4)
    1ac0:	85c00c04 	addi	r23,r16,48
    1ac4:	b80b883a 	mov	r5,r23
    1ac8:	b00d883a 	mov	r6,r22
    1acc:	980f883a 	mov	r7,r19
    1ad0:	000b6e40 	call	b6e4 <disk_write>
    1ad4:	10001b1e 	bne	r2,zero,1b44 <put_fat.part.4+0x408>
				return FR_DISK_ERR;
			fs->wflag = 0;
			if (wsect < (fs->fatbase + fs->fsize)) {	/* In FAT area */
    1ad8:	80800717 	ldw	r2,28(r16)
    1adc:	80c00817 	ldw	r3,32(r16)
	if (wsect != sector) {	/* Changed current window */
#if !_FS_READONLY
		if (fs->wflag) {	/* Write back dirty window if needed */
			if (disk_write(fs->drv, fs->win, wsect, 1) != RES_OK)
				return FR_DISK_ERR;
			fs->wflag = 0;
    1ae0:	80000105 	stb	zero,4(r16)
			if (wsect < (fs->fatbase + fs->fsize)) {	/* In FAT area */
    1ae4:	10c7883a 	add	r3,r2,r3
    1ae8:	b0ff402e 	bgeu	r22,r3,17ec <__alt_mem_epcq_avl_mem+0xef8017ec>
				BYTE nf;
				for (nf = fs->n_fats; nf > 1; nf--) {	/* Reflect the change to all FAT copies */
    1aec:	870000c3 	ldbu	fp,3(r16)
    1af0:	e0c03fcc 	andi	r3,fp,255
    1af4:	98c00236 	bltu	r19,r3,1b00 <put_fat.part.4+0x3c4>
    1af8:	003f3c06 	br	17ec <__alt_mem_epcq_avl_mem+0xef8017ec>
    1afc:	80800717 	ldw	r2,28(r16)
					wsect += fs->fsize;
					disk_write(fs->drv, fs->win, wsect, 1);
    1b00:	81000043 	ldbu	r4,1(r16)
				return FR_DISK_ERR;
			fs->wflag = 0;
			if (wsect < (fs->fatbase + fs->fsize)) {	/* In FAT area */
				BYTE nf;
				for (nf = fs->n_fats; nf > 1; nf--) {	/* Reflect the change to all FAT copies */
					wsect += fs->fsize;
    1b04:	b0ad883a 	add	r22,r22,r2
					disk_write(fs->drv, fs->win, wsect, 1);
    1b08:	b80b883a 	mov	r5,r23
    1b0c:	b00d883a 	mov	r6,r22
    1b10:	01c00044 	movi	r7,1
    1b14:	000b6e40 	call	b6e4 <disk_write>
			if (disk_write(fs->drv, fs->win, wsect, 1) != RES_OK)
				return FR_DISK_ERR;
			fs->wflag = 0;
			if (wsect < (fs->fatbase + fs->fsize)) {	/* In FAT area */
				BYTE nf;
				for (nf = fs->n_fats; nf > 1; nf--) {	/* Reflect the change to all FAT copies */
    1b18:	e0bfffc4 	addi	r2,fp,-1
    1b1c:	10c03fcc 	andi	r3,r2,255
    1b20:	1039883a 	mov	fp,r2
    1b24:	1cfff51e 	bne	r3,r19,1afc <__alt_mem_epcq_avl_mem+0xef801afc>
    1b28:	003f3006 	br	17ec <__alt_mem_epcq_avl_mem+0xef8017ec>
				}
			}
		}
#endif
		if (sector) {
			if (disk_read(fs->drv, fs->win, sector, 1) != RES_OK)
    1b2c:	81000043 	ldbu	r4,1(r16)
    1b30:	81400c04 	addi	r5,r16,48
    1b34:	a80d883a 	mov	r6,r21
    1b38:	01c00044 	movi	r7,1
    1b3c:	000b5000 	call	b500 <disk_read>
    1b40:	10000226 	beq	r2,zero,1b4c <put_fat.part.4+0x410>
			val |= LD_DWORD(p) & 0xF0000000;
			ST_DWORD(p, val);
			break;

		default :
			res = FR_INT_ERR;
    1b44:	00800044 	movi	r2,1
    1b48:	003f1106 	br	1790 <__alt_mem_epcq_avl_mem+0xef801790>
		}
#endif
		if (sector) {
			if (disk_read(fs->drv, fs->win, sector, 1) != RES_OK)
				return FR_DISK_ERR;
			fs->winsect = sector;
    1b4c:	85400b15 	stw	r21,44(r16)
    1b50:	80800817 	ldw	r2,32(r16)
    1b54:	003f2806 	br	17f8 <__alt_mem_epcq_avl_mem+0xef8017f8>
			bc++;
			fs->wflag = 1;
			res = move_window(fs, fs->fatbase + (bc / SS(fs)));
			if (res != FR_OK) break;
			p = &fs->win[bc % SS(fs)];
			*p = (clst & 1) ? (BYTE)(val >> 4) : ((*p & 0xF0) | ((BYTE)(val >> 8) & 0x0F));
    1b58:	8529883a 	add	r20,r16,r20
    1b5c:	a0c00c03 	ldbu	r3,48(r20)
    1b60:	9024d23a 	srli	r18,r18,8
    1b64:	00bffc04 	movi	r2,-16
    1b68:	1884703a 	and	r2,r3,r2
    1b6c:	948003cc 	andi	r18,r18,15
    1b70:	14a4b03a 	or	r18,r2,r18
    1b74:	003f5406 	br	18c8 <__alt_mem_epcq_avl_mem+0xef8018c8>

00001b78 <remove_chain.part.6>:
/*-----------------------------------------------------------------------*/
/* FAT handling - Remove a cluster chain                                 */
/*-----------------------------------------------------------------------*/
#if !_FS_READONLY
static
FRESULT remove_chain (
    1b78:	defff304 	addi	sp,sp,-52
    1b7c:	df000b15 	stw	fp,44(sp)
    1b80:	dd800915 	stw	r22,36(sp)
    1b84:	dd400815 	stw	r21,32(sp)
    1b88:	dd000715 	stw	r20,28(sp)
    1b8c:	dcc00615 	stw	r19,24(sp)
    1b90:	dc400415 	stw	r17,16(sp)
    1b94:	dc000315 	stw	r16,12(sp)
    1b98:	dfc00c15 	stw	ra,48(sp)
    1b9c:	ddc00a15 	stw	r23,40(sp)
    1ba0:	dc800515 	stw	r18,20(sp)
    1ba4:	2021883a 	mov	r16,r4
    1ba8:	2823883a 	mov	r17,r5
{
	UINT wc, bc;
	BYTE *p;


	if (clst < 2 || clst >= fs->n_fatent)	/* Chack range */
    1bac:	07000044 	movi	fp,1
		res = FR_OK;
		while (clst < fs->n_fatent) {			/* Not a last link? */
			nxt = get_fat(fs, clst);			/* Get cluster status */
			if (nxt == 0) break;				/* Empty cluster? */
			if (nxt == 1) { res = FR_INT_ERR; break; }	/* Internal error? */
			if (nxt == 0xFFFFFFFF) { res = FR_DISK_ERR; break; }	/* Disk error? */
    1bb0:	04ffffc4 	movi	r19,-1


	if (clst < 2 || clst >= fs->n_fatent)	/* Chack range */
		return 1;

	switch (fs->fs_type) {
    1bb4:	05000084 	movi	r20,2

	wsect = fs->winsect;
	if (wsect != sector) {	/* Changed current window */
#if !_FS_READONLY
		if (fs->wflag) {	/* Write back dirty window if needed */
			if (disk_write(fs->drv, fs->win, wsect, 1) != RES_OK)
    1bb8:	25400c04 	addi	r21,r4,48


	if (clst < 2 || clst >= fs->n_fatent)	/* Chack range */
		return 1;

	switch (fs->fs_type) {
    1bbc:	058000c4 	movi	r22,3
	if (clst < 2 || clst >= fs->n_fatent) {	/* Check range */
		res = FR_INT_ERR;

	} else {
		res = FR_OK;
		while (clst < fs->n_fatent) {			/* Not a last link? */
    1bc0:	80800617 	ldw	r2,24(r16)
    1bc4:	8880602e 	bgeu	r17,r2,1d48 <remove_chain.part.6+0x1d0>
{
	UINT wc, bc;
	BYTE *p;


	if (clst < 2 || clst >= fs->n_fatent)	/* Chack range */
    1bc8:	e4407d2e 	bgeu	fp,r17,1dc0 <remove_chain.part.6+0x248>
		return 1;

	switch (fs->fs_type) {
    1bcc:	80800003 	ldbu	r2,0(r16)
    1bd0:	15005f26 	beq	r2,r20,1d50 <remove_chain.part.6+0x1d8>
    1bd4:	15804026 	beq	r2,r22,1cd8 <remove_chain.part.6+0x160>
    1bd8:	17001d26 	beq	r2,fp,1c50 <remove_chain.part.6+0xd8>
		if (move_window(fs, fs->fatbase + (clst / (SS(fs) / 4)))) break;
		p = &fs->win[clst * 4 % SS(fs)];
		return LD_DWORD(p) & 0x0FFFFFFF;
	}

	return 0xFFFFFFFF;	/* An error occurred at the disk I/O layer */
    1bdc:	04bfffc4 	movi	r18,-1
	} else {
		res = FR_OK;
		while (clst < fs->n_fatent) {			/* Not a last link? */
			nxt = get_fat(fs, clst);			/* Get cluster status */
			if (nxt == 0) break;				/* Empty cluster? */
			if (nxt == 1) { res = FR_INT_ERR; break; }	/* Internal error? */
    1be0:	97000426 	beq	r18,fp,1bf4 <remove_chain.part.6+0x7c>
			if (nxt == 0xFFFFFFFF) { res = FR_DISK_ERR; break; }	/* Disk error? */
    1be4:	94c01826 	beq	r18,r19,1c48 <remove_chain.part.6+0xd0>
	UINT bc;
	BYTE *p;
	FRESULT res;


	if (clst < 2 || clst >= fs->n_fatent) {	/* Check range */
    1be8:	e440022e 	bgeu	fp,r17,1bf4 <remove_chain.part.6+0x7c>
    1bec:	80800617 	ldw	r2,24(r16)
    1bf0:	88806736 	bltu	r17,r2,1d90 <remove_chain.part.6+0x218>
	} else {
		res = FR_OK;
		while (clst < fs->n_fatent) {			/* Not a last link? */
			nxt = get_fat(fs, clst);			/* Get cluster status */
			if (nxt == 0) break;				/* Empty cluster? */
			if (nxt == 1) { res = FR_INT_ERR; break; }	/* Internal error? */
    1bf4:	00800084 	movi	r2,2
			clst = nxt;	/* Next cluster */
		}
	}

	return res;
}
    1bf8:	dfc00c17 	ldw	ra,48(sp)
    1bfc:	df000b17 	ldw	fp,44(sp)
    1c00:	ddc00a17 	ldw	r23,40(sp)
    1c04:	dd800917 	ldw	r22,36(sp)
    1c08:	dd400817 	ldw	r21,32(sp)
    1c0c:	dd000717 	ldw	r20,28(sp)
    1c10:	dcc00617 	ldw	r19,24(sp)
    1c14:	dc800517 	ldw	r18,20(sp)
    1c18:	dc400417 	ldw	r17,16(sp)
    1c1c:	dc000317 	ldw	r16,12(sp)
    1c20:	dec00d04 	addi	sp,sp,52
    1c24:	f800283a 	ret
				}
			}
		}
#endif
		if (sector) {
			if (disk_read(fs->drv, fs->win, sector, 1) != RES_OK)
    1c28:	81000043 	ldbu	r4,1(r16)
    1c2c:	180d883a 	mov	r6,r3
    1c30:	a80b883a 	mov	r5,r21
    1c34:	01c00044 	movi	r7,1
    1c38:	d8c00215 	stw	r3,8(sp)
    1c3c:	000b5000 	call	b500 <disk_read>
    1c40:	d8c00217 	ldw	r3,8(sp)
    1c44:	1000cb26 	beq	r2,zero,1f74 <remove_chain.part.6+0x3fc>
		res = FR_OK;
		while (clst < fs->n_fatent) {			/* Not a last link? */
			nxt = get_fat(fs, clst);			/* Get cluster status */
			if (nxt == 0) break;				/* Empty cluster? */
			if (nxt == 1) { res = FR_INT_ERR; break; }	/* Internal error? */
			if (nxt == 0xFFFFFFFF) { res = FR_DISK_ERR; break; }	/* Disk error? */
    1c48:	00800044 	movi	r2,1
    1c4c:	003fea06 	br	1bf8 <__alt_mem_epcq_avl_mem+0xef801bf8>
	if (clst < 2 || clst >= fs->n_fatent)	/* Chack range */
		return 1;

	switch (fs->fs_type) {
	case FS_FAT12 :
		bc = (UINT)clst; bc += bc / 2;
    1c50:	8824d07a 	srli	r18,r17,1
		if (move_window(fs, fs->fatbase + (bc / SS(fs)))) break;
    1c54:	80800817 	ldw	r2,32(r16)
)					/* Move to zero only writes back dirty window */
{
	DWORD wsect;


	wsect = fs->winsect;
    1c58:	85c00b17 	ldw	r23,44(r16)
	if (clst < 2 || clst >= fs->n_fatent)	/* Chack range */
		return 1;

	switch (fs->fs_type) {
	case FS_FAT12 :
		bc = (UINT)clst; bc += bc / 2;
    1c5c:	9465883a 	add	r18,r18,r17
		if (move_window(fs, fs->fatbase + (bc / SS(fs)))) break;
    1c60:	9008d27a 	srli	r4,r18,9
    1c64:	2087883a 	add	r3,r4,r2
{
	DWORD wsect;


	wsect = fs->winsect;
	if (wsect != sector) {	/* Changed current window */
    1c68:	b8c0c526 	beq	r23,r3,1f80 <remove_chain.part.6+0x408>
#if !_FS_READONLY
		if (fs->wflag) {	/* Write back dirty window if needed */
    1c6c:	80800103 	ldbu	r2,4(r16)
    1c70:	10009f1e 	bne	r2,zero,1ef0 <remove_chain.part.6+0x378>
					disk_write(fs->drv, fs->win, wsect, 1);
				}
			}
		}
#endif
		if (sector) {
    1c74:	183fec1e 	bne	r3,zero,1c28 <__alt_mem_epcq_avl_mem+0xef801c28>
    1c78:	80800817 	ldw	r2,32(r16)
    1c7c:	80c00b17 	ldw	r3,44(r16)

	switch (fs->fs_type) {
	case FS_FAT12 :
		bc = (UINT)clst; bc += bc / 2;
		if (move_window(fs, fs->fatbase + (bc / SS(fs)))) break;
		wc = fs->win[bc % SS(fs)]; bc++;
    1c80:	92400044 	addi	r9,r18,1
		if (move_window(fs, fs->fatbase + (bc / SS(fs)))) break;
    1c84:	4810d27a 	srli	r8,r9,9

	switch (fs->fs_type) {
	case FS_FAT12 :
		bc = (UINT)clst; bc += bc / 2;
		if (move_window(fs, fs->fatbase + (bc / SS(fs)))) break;
		wc = fs->win[bc % SS(fs)]; bc++;
    1c88:	94807fcc 	andi	r18,r18,511
    1c8c:	84a5883a 	add	r18,r16,r18
		if (move_window(fs, fs->fatbase + (bc / SS(fs)))) break;
    1c90:	1211883a 	add	r8,r2,r8

	switch (fs->fs_type) {
	case FS_FAT12 :
		bc = (UINT)clst; bc += bc / 2;
		if (move_window(fs, fs->fatbase + (bc / SS(fs)))) break;
		wc = fs->win[bc % SS(fs)]; bc++;
    1c94:	94800c03 	ldbu	r18,48(r18)
{
	DWORD wsect;


	wsect = fs->winsect;
	if (wsect != sector) {	/* Changed current window */
    1c98:	40c00326 	beq	r8,r3,1ca8 <remove_chain.part.6+0x130>
#if !_FS_READONLY
		if (fs->wflag) {	/* Write back dirty window if needed */
    1c9c:	80800103 	ldbu	r2,4(r16)
    1ca0:	1000c71e 	bne	r2,zero,1fc0 <remove_chain.part.6+0x448>
					disk_write(fs->drv, fs->win, wsect, 1);
				}
			}
		}
#endif
		if (sector) {
    1ca4:	4000ba1e 	bne	r8,zero,1f90 <remove_chain.part.6+0x418>
	case FS_FAT12 :
		bc = (UINT)clst; bc += bc / 2;
		if (move_window(fs, fs->fatbase + (bc / SS(fs)))) break;
		wc = fs->win[bc % SS(fs)]; bc++;
		if (move_window(fs, fs->fatbase + (bc / SS(fs)))) break;
		wc |= fs->win[bc % SS(fs)] << 8;
    1ca8:	48807fcc 	andi	r2,r9,511
    1cac:	8085883a 	add	r2,r16,r2
    1cb0:	10c00c03 	ldbu	r3,48(r2)

	switch (fs->fs_type) {
	case FS_FAT12 :
		bc = (UINT)clst; bc += bc / 2;
		if (move_window(fs, fs->fatbase + (bc / SS(fs)))) break;
		wc = fs->win[bc % SS(fs)]; bc++;
    1cb4:	94803fcc 	andi	r18,r18,255
		if (move_window(fs, fs->fatbase + (bc / SS(fs)))) break;
		wc |= fs->win[bc % SS(fs)] << 8;
		return (clst & 1) ? (wc >> 4) : (wc & 0xFFF);
    1cb8:	8880004c 	andi	r2,r17,1
	case FS_FAT12 :
		bc = (UINT)clst; bc += bc / 2;
		if (move_window(fs, fs->fatbase + (bc / SS(fs)))) break;
		wc = fs->win[bc % SS(fs)]; bc++;
		if (move_window(fs, fs->fatbase + (bc / SS(fs)))) break;
		wc |= fs->win[bc % SS(fs)] << 8;
    1cbc:	1806923a 	slli	r3,r3,8
    1cc0:	1ca4b03a 	or	r18,r3,r18
		return (clst & 1) ? (wc >> 4) : (wc & 0xFFF);
    1cc4:	1000b026 	beq	r2,zero,1f88 <remove_chain.part.6+0x410>
    1cc8:	9024d13a 	srli	r18,r18,4

	} else {
		res = FR_OK;
		while (clst < fs->n_fatent) {			/* Not a last link? */
			nxt = get_fat(fs, clst);			/* Get cluster status */
			if (nxt == 0) break;				/* Empty cluster? */
    1ccc:	90001e26 	beq	r18,zero,1d48 <remove_chain.part.6+0x1d0>
			if (nxt == 1) { res = FR_INT_ERR; break; }	/* Internal error? */
    1cd0:	973fc51e 	bne	r18,fp,1be8 <__alt_mem_epcq_avl_mem+0xef801be8>
    1cd4:	003fc706 	br	1bf4 <__alt_mem_epcq_avl_mem+0xef801bf4>
		if (move_window(fs, fs->fatbase + (clst / (SS(fs) / 2)))) break;
		p = &fs->win[clst * 2 % SS(fs)];
		return LD_WORD(p);

	case FS_FAT32 :
		if (move_window(fs, fs->fatbase + (clst / (SS(fs) / 4)))) break;
    1cd8:	8824d1fa 	srli	r18,r17,7
    1cdc:	80800817 	ldw	r2,32(r16)
)					/* Move to zero only writes back dirty window */
{
	DWORD wsect;


	wsect = fs->winsect;
    1ce0:	85c00b17 	ldw	r23,44(r16)
		if (move_window(fs, fs->fatbase + (clst / (SS(fs) / 2)))) break;
		p = &fs->win[clst * 2 % SS(fs)];
		return LD_WORD(p);

	case FS_FAT32 :
		if (move_window(fs, fs->fatbase + (clst / (SS(fs) / 4)))) break;
    1ce4:	90a5883a 	add	r18,r18,r2
{
	DWORD wsect;


	wsect = fs->winsect;
	if (wsect != sector) {	/* Changed current window */
    1ce8:	95c00326 	beq	r18,r23,1cf8 <remove_chain.part.6+0x180>
#if !_FS_READONLY
		if (fs->wflag) {	/* Write back dirty window if needed */
    1cec:	80800103 	ldbu	r2,4(r16)
    1cf0:	1000621e 	bne	r2,zero,1e7c <remove_chain.part.6+0x304>
					disk_write(fs->drv, fs->win, wsect, 1);
				}
			}
		}
#endif
		if (sector) {
    1cf4:	9000341e 	bne	r18,zero,1dc8 <remove_chain.part.6+0x250>
		p = &fs->win[clst * 2 % SS(fs)];
		return LD_WORD(p);

	case FS_FAT32 :
		if (move_window(fs, fs->fatbase + (clst / (SS(fs) / 4)))) break;
		p = &fs->win[clst * 4 % SS(fs)];
    1cf8:	8c45883a 	add	r2,r17,r17
    1cfc:	1085883a 	add	r2,r2,r2
    1d00:	10807f0c 	andi	r2,r2,508
    1d04:	10c00c04 	addi	r3,r2,48
    1d08:	80c7883a 	add	r3,r16,r3
		return LD_DWORD(p) & 0x0FFFFFFF;
    1d0c:	1c800083 	ldbu	r18,2(r3)
    1d10:	190000c3 	ldbu	r4,3(r3)
    1d14:	18c00043 	ldbu	r3,1(r3)
    1d18:	9024943a 	slli	r18,r18,16
    1d1c:	2008963a 	slli	r4,r4,24
    1d20:	1806923a 	slli	r3,r3,8
    1d24:	8085883a 	add	r2,r16,r2
    1d28:	10800c03 	ldbu	r2,48(r2)
    1d2c:	9124b03a 	or	r18,r18,r4
    1d30:	90e4b03a 	or	r18,r18,r3
    1d34:	90a4b03a 	or	r18,r18,r2
    1d38:	00840034 	movhi	r2,4096
    1d3c:	10bfffc4 	addi	r2,r2,-1
    1d40:	90a4703a 	and	r18,r18,r2

	} else {
		res = FR_OK;
		while (clst < fs->n_fatent) {			/* Not a last link? */
			nxt = get_fat(fs, clst);			/* Get cluster status */
			if (nxt == 0) break;				/* Empty cluster? */
    1d44:	903fe21e 	bne	r18,zero,1cd0 <__alt_mem_epcq_avl_mem+0xef801cd0>
/*-----------------------------------------------------------------------*/
/* FAT handling - Remove a cluster chain                                 */
/*-----------------------------------------------------------------------*/
#if !_FS_READONLY
static
FRESULT remove_chain (
    1d48:	0005883a 	mov	r2,zero
    1d4c:	003faa06 	br	1bf8 <__alt_mem_epcq_avl_mem+0xef801bf8>
		if (move_window(fs, fs->fatbase + (bc / SS(fs)))) break;
		wc |= fs->win[bc % SS(fs)] << 8;
		return (clst & 1) ? (wc >> 4) : (wc & 0xFFF);

	case FS_FAT16 :
		if (move_window(fs, fs->fatbase + (clst / (SS(fs) / 2)))) break;
    1d50:	8824d23a 	srli	r18,r17,8
    1d54:	80800817 	ldw	r2,32(r16)
)					/* Move to zero only writes back dirty window */
{
	DWORD wsect;


	wsect = fs->winsect;
    1d58:	85c00b17 	ldw	r23,44(r16)
		if (move_window(fs, fs->fatbase + (bc / SS(fs)))) break;
		wc |= fs->win[bc % SS(fs)] << 8;
		return (clst & 1) ? (wc >> 4) : (wc & 0xFFF);

	case FS_FAT16 :
		if (move_window(fs, fs->fatbase + (clst / (SS(fs) / 2)))) break;
    1d5c:	90a5883a 	add	r18,r18,r2
{
	DWORD wsect;


	wsect = fs->winsect;
	if (wsect != sector) {	/* Changed current window */
    1d60:	95c00326 	beq	r18,r23,1d70 <remove_chain.part.6+0x1f8>
#if !_FS_READONLY
		if (fs->wflag) {	/* Write back dirty window if needed */
    1d64:	80800103 	ldbu	r2,4(r16)
    1d68:	1000271e 	bne	r2,zero,1e08 <remove_chain.part.6+0x290>
					disk_write(fs->drv, fs->win, wsect, 1);
				}
			}
		}
#endif
		if (sector) {
    1d6c:	90001e1e 	bne	r18,zero,1de8 <remove_chain.part.6+0x270>
		wc |= fs->win[bc % SS(fs)] << 8;
		return (clst & 1) ? (wc >> 4) : (wc & 0xFFF);

	case FS_FAT16 :
		if (move_window(fs, fs->fatbase + (clst / (SS(fs) / 2)))) break;
		p = &fs->win[clst * 2 % SS(fs)];
    1d70:	8c45883a 	add	r2,r17,r17
    1d74:	10807f8c 	andi	r2,r2,510
		return LD_WORD(p);
    1d78:	8087883a 	add	r3,r16,r2
    1d7c:	1c800c43 	ldbu	r18,49(r3)
    1d80:	18800c03 	ldbu	r2,48(r3)
    1d84:	9024923a 	slli	r18,r18,8
    1d88:	90a4b03a 	or	r18,r18,r2
    1d8c:	003fcf06 	br	1ccc <__alt_mem_epcq_avl_mem+0xef801ccc>
    1d90:	8009883a 	mov	r4,r16
    1d94:	880b883a 	mov	r5,r17
    1d98:	000d883a 	mov	r6,zero
    1d9c:	000173c0 	call	173c <put_fat.part.4>
			nxt = get_fat(fs, clst);			/* Get cluster status */
			if (nxt == 0) break;				/* Empty cluster? */
			if (nxt == 1) { res = FR_INT_ERR; break; }	/* Internal error? */
			if (nxt == 0xFFFFFFFF) { res = FR_DISK_ERR; break; }	/* Disk error? */
			res = put_fat(fs, clst, 0);			/* Mark the cluster "empty" */
			if (res != FR_OK) break;
    1da0:	103f951e 	bne	r2,zero,1bf8 <__alt_mem_epcq_avl_mem+0xef801bf8>
			if (fs->free_clust != 0xFFFFFFFF) {	/* Update FSInfo */
    1da4:	80800417 	ldw	r2,16(r16)
    1da8:	14c00326 	beq	r2,r19,1db8 <remove_chain.part.6+0x240>
				fs->free_clust++;
    1dac:	10800044 	addi	r2,r2,1
    1db0:	80800415 	stw	r2,16(r16)
				fs->fsi_flag = 1;
    1db4:	87000145 	stb	fp,5(r16)
/*-----------------------------------------------------------------------*/
/* FAT handling - Remove a cluster chain                                 */
/*-----------------------------------------------------------------------*/
#if !_FS_READONLY
static
FRESULT remove_chain (
    1db8:	9023883a 	mov	r17,r18
    1dbc:	003f8006 	br	1bc0 <__alt_mem_epcq_avl_mem+0xef801bc0>
	UINT wc, bc;
	BYTE *p;


	if (clst < 2 || clst >= fs->n_fatent)	/* Chack range */
		return 1;
    1dc0:	04800044 	movi	r18,1
    1dc4:	003f8606 	br	1be0 <__alt_mem_epcq_avl_mem+0xef801be0>
				}
			}
		}
#endif
		if (sector) {
			if (disk_read(fs->drv, fs->win, sector, 1) != RES_OK)
    1dc8:	81000043 	ldbu	r4,1(r16)
    1dcc:	a80b883a 	mov	r5,r21
    1dd0:	900d883a 	mov	r6,r18
    1dd4:	01c00044 	movi	r7,1
    1dd8:	000b5000 	call	b500 <disk_read>
    1ddc:	103f9a1e 	bne	r2,zero,1c48 <__alt_mem_epcq_avl_mem+0xef801c48>
				return FR_DISK_ERR;
			fs->winsect = sector;
    1de0:	84800b15 	stw	r18,44(r16)
    1de4:	003fc406 	br	1cf8 <__alt_mem_epcq_avl_mem+0xef801cf8>
				}
			}
		}
#endif
		if (sector) {
			if (disk_read(fs->drv, fs->win, sector, 1) != RES_OK)
    1de8:	81000043 	ldbu	r4,1(r16)
    1dec:	a80b883a 	mov	r5,r21
    1df0:	900d883a 	mov	r6,r18
    1df4:	01c00044 	movi	r7,1
    1df8:	000b5000 	call	b500 <disk_read>
    1dfc:	103f921e 	bne	r2,zero,1c48 <__alt_mem_epcq_avl_mem+0xef801c48>
				return FR_DISK_ERR;
			fs->winsect = sector;
    1e00:	84800b15 	stw	r18,44(r16)
    1e04:	003fda06 	br	1d70 <__alt_mem_epcq_avl_mem+0xef801d70>

	wsect = fs->winsect;
	if (wsect != sector) {	/* Changed current window */
#if !_FS_READONLY
		if (fs->wflag) {	/* Write back dirty window if needed */
			if (disk_write(fs->drv, fs->win, wsect, 1) != RES_OK)
    1e08:	81000043 	ldbu	r4,1(r16)
    1e0c:	a80b883a 	mov	r5,r21
    1e10:	b80d883a 	mov	r6,r23
    1e14:	01c00044 	movi	r7,1
    1e18:	000b6e40 	call	b6e4 <disk_write>
    1e1c:	103f8a1e 	bne	r2,zero,1c48 <__alt_mem_epcq_avl_mem+0xef801c48>
				return FR_DISK_ERR;
			fs->wflag = 0;
			if (wsect < (fs->fatbase + fs->fsize)) {	/* In FAT area */
    1e20:	80800717 	ldw	r2,28(r16)
    1e24:	80c00817 	ldw	r3,32(r16)
	if (wsect != sector) {	/* Changed current window */
#if !_FS_READONLY
		if (fs->wflag) {	/* Write back dirty window if needed */
			if (disk_write(fs->drv, fs->win, wsect, 1) != RES_OK)
				return FR_DISK_ERR;
			fs->wflag = 0;
    1e28:	80000105 	stb	zero,4(r16)
			if (wsect < (fs->fatbase + fs->fsize)) {	/* In FAT area */
    1e2c:	10c7883a 	add	r3,r2,r3
    1e30:	b8ffce2e 	bgeu	r23,r3,1d6c <__alt_mem_epcq_avl_mem+0xef801d6c>
				BYTE nf;
				for (nf = fs->n_fats; nf > 1; nf--) {	/* Reflect the change to all FAT copies */
    1e34:	80c000c3 	ldbu	r3,3(r16)
    1e38:	19003fcc 	andi	r4,r3,255
    1e3c:	e1000236 	bltu	fp,r4,1e48 <remove_chain.part.6+0x2d0>
    1e40:	003fca06 	br	1d6c <__alt_mem_epcq_avl_mem+0xef801d6c>
    1e44:	80800717 	ldw	r2,28(r16)
					wsect += fs->fsize;
					disk_write(fs->drv, fs->win, wsect, 1);
    1e48:	81000043 	ldbu	r4,1(r16)
				return FR_DISK_ERR;
			fs->wflag = 0;
			if (wsect < (fs->fatbase + fs->fsize)) {	/* In FAT area */
				BYTE nf;
				for (nf = fs->n_fats; nf > 1; nf--) {	/* Reflect the change to all FAT copies */
					wsect += fs->fsize;
    1e4c:	b8af883a 	add	r23,r23,r2
					disk_write(fs->drv, fs->win, wsect, 1);
    1e50:	a80b883a 	mov	r5,r21
    1e54:	b80d883a 	mov	r6,r23
    1e58:	01c00044 	movi	r7,1
    1e5c:	d8c00215 	stw	r3,8(sp)
    1e60:	000b6e40 	call	b6e4 <disk_write>
			if (disk_write(fs->drv, fs->win, wsect, 1) != RES_OK)
				return FR_DISK_ERR;
			fs->wflag = 0;
			if (wsect < (fs->fatbase + fs->fsize)) {	/* In FAT area */
				BYTE nf;
				for (nf = fs->n_fats; nf > 1; nf--) {	/* Reflect the change to all FAT copies */
    1e64:	d8c00217 	ldw	r3,8(sp)
    1e68:	18bfffc4 	addi	r2,r3,-1
    1e6c:	11003fcc 	andi	r4,r2,255
    1e70:	1007883a 	mov	r3,r2
    1e74:	273ff31e 	bne	r4,fp,1e44 <__alt_mem_epcq_avl_mem+0xef801e44>
    1e78:	003fbc06 	br	1d6c <__alt_mem_epcq_avl_mem+0xef801d6c>

	wsect = fs->winsect;
	if (wsect != sector) {	/* Changed current window */
#if !_FS_READONLY
		if (fs->wflag) {	/* Write back dirty window if needed */
			if (disk_write(fs->drv, fs->win, wsect, 1) != RES_OK)
    1e7c:	81000043 	ldbu	r4,1(r16)
    1e80:	a80b883a 	mov	r5,r21
    1e84:	b80d883a 	mov	r6,r23
    1e88:	01c00044 	movi	r7,1
    1e8c:	000b6e40 	call	b6e4 <disk_write>
    1e90:	103f6d1e 	bne	r2,zero,1c48 <__alt_mem_epcq_avl_mem+0xef801c48>
				return FR_DISK_ERR;
			fs->wflag = 0;
			if (wsect < (fs->fatbase + fs->fsize)) {	/* In FAT area */
    1e94:	80800717 	ldw	r2,28(r16)
    1e98:	80c00817 	ldw	r3,32(r16)
	if (wsect != sector) {	/* Changed current window */
#if !_FS_READONLY
		if (fs->wflag) {	/* Write back dirty window if needed */
			if (disk_write(fs->drv, fs->win, wsect, 1) != RES_OK)
				return FR_DISK_ERR;
			fs->wflag = 0;
    1e9c:	80000105 	stb	zero,4(r16)
			if (wsect < (fs->fatbase + fs->fsize)) {	/* In FAT area */
    1ea0:	10c7883a 	add	r3,r2,r3
    1ea4:	b8ff932e 	bgeu	r23,r3,1cf4 <__alt_mem_epcq_avl_mem+0xef801cf4>
				BYTE nf;
				for (nf = fs->n_fats; nf > 1; nf--) {	/* Reflect the change to all FAT copies */
    1ea8:	80c000c3 	ldbu	r3,3(r16)
    1eac:	19003fcc 	andi	r4,r3,255
    1eb0:	e1000236 	bltu	fp,r4,1ebc <remove_chain.part.6+0x344>
    1eb4:	003f8f06 	br	1cf4 <__alt_mem_epcq_avl_mem+0xef801cf4>
    1eb8:	80800717 	ldw	r2,28(r16)
					wsect += fs->fsize;
					disk_write(fs->drv, fs->win, wsect, 1);
    1ebc:	81000043 	ldbu	r4,1(r16)
				return FR_DISK_ERR;
			fs->wflag = 0;
			if (wsect < (fs->fatbase + fs->fsize)) {	/* In FAT area */
				BYTE nf;
				for (nf = fs->n_fats; nf > 1; nf--) {	/* Reflect the change to all FAT copies */
					wsect += fs->fsize;
    1ec0:	b8af883a 	add	r23,r23,r2
					disk_write(fs->drv, fs->win, wsect, 1);
    1ec4:	a80b883a 	mov	r5,r21
    1ec8:	b80d883a 	mov	r6,r23
    1ecc:	01c00044 	movi	r7,1
    1ed0:	d8c00215 	stw	r3,8(sp)
    1ed4:	000b6e40 	call	b6e4 <disk_write>
			if (disk_write(fs->drv, fs->win, wsect, 1) != RES_OK)
				return FR_DISK_ERR;
			fs->wflag = 0;
			if (wsect < (fs->fatbase + fs->fsize)) {	/* In FAT area */
				BYTE nf;
				for (nf = fs->n_fats; nf > 1; nf--) {	/* Reflect the change to all FAT copies */
    1ed8:	d8c00217 	ldw	r3,8(sp)
    1edc:	18bfffc4 	addi	r2,r3,-1
    1ee0:	11003fcc 	andi	r4,r2,255
    1ee4:	1007883a 	mov	r3,r2
    1ee8:	273ff31e 	bne	r4,fp,1eb8 <__alt_mem_epcq_avl_mem+0xef801eb8>
    1eec:	003f8106 	br	1cf4 <__alt_mem_epcq_avl_mem+0xef801cf4>

	wsect = fs->winsect;
	if (wsect != sector) {	/* Changed current window */
#if !_FS_READONLY
		if (fs->wflag) {	/* Write back dirty window if needed */
			if (disk_write(fs->drv, fs->win, wsect, 1) != RES_OK)
    1ef0:	81000043 	ldbu	r4,1(r16)
    1ef4:	a80b883a 	mov	r5,r21
    1ef8:	b80d883a 	mov	r6,r23
    1efc:	e00f883a 	mov	r7,fp
    1f00:	d8c00215 	stw	r3,8(sp)
    1f04:	000b6e40 	call	b6e4 <disk_write>
    1f08:	d8c00217 	ldw	r3,8(sp)
    1f0c:	103f4e1e 	bne	r2,zero,1c48 <__alt_mem_epcq_avl_mem+0xef801c48>
				return FR_DISK_ERR;
			fs->wflag = 0;
			if (wsect < (fs->fatbase + fs->fsize)) {	/* In FAT area */
    1f10:	80800717 	ldw	r2,28(r16)
    1f14:	81000817 	ldw	r4,32(r16)
	if (wsect != sector) {	/* Changed current window */
#if !_FS_READONLY
		if (fs->wflag) {	/* Write back dirty window if needed */
			if (disk_write(fs->drv, fs->win, wsect, 1) != RES_OK)
				return FR_DISK_ERR;
			fs->wflag = 0;
    1f18:	80000105 	stb	zero,4(r16)
			if (wsect < (fs->fatbase + fs->fsize)) {	/* In FAT area */
    1f1c:	1109883a 	add	r4,r2,r4
    1f20:	b93f542e 	bgeu	r23,r4,1c74 <__alt_mem_epcq_avl_mem+0xef801c74>
				BYTE nf;
				for (nf = fs->n_fats; nf > 1; nf--) {	/* Reflect the change to all FAT copies */
    1f24:	820000c3 	ldbu	r8,3(r16)
    1f28:	41003fcc 	andi	r4,r8,255
    1f2c:	e1000236 	bltu	fp,r4,1f38 <remove_chain.part.6+0x3c0>
    1f30:	003f5006 	br	1c74 <__alt_mem_epcq_avl_mem+0xef801c74>
    1f34:	80800717 	ldw	r2,28(r16)
					wsect += fs->fsize;
					disk_write(fs->drv, fs->win, wsect, 1);
    1f38:	81000043 	ldbu	r4,1(r16)
				return FR_DISK_ERR;
			fs->wflag = 0;
			if (wsect < (fs->fatbase + fs->fsize)) {	/* In FAT area */
				BYTE nf;
				for (nf = fs->n_fats; nf > 1; nf--) {	/* Reflect the change to all FAT copies */
					wsect += fs->fsize;
    1f3c:	b8af883a 	add	r23,r23,r2
					disk_write(fs->drv, fs->win, wsect, 1);
    1f40:	a80b883a 	mov	r5,r21
    1f44:	b80d883a 	mov	r6,r23
    1f48:	01c00044 	movi	r7,1
    1f4c:	d8c00215 	stw	r3,8(sp)
    1f50:	da000115 	stw	r8,4(sp)
    1f54:	000b6e40 	call	b6e4 <disk_write>
			if (disk_write(fs->drv, fs->win, wsect, 1) != RES_OK)
				return FR_DISK_ERR;
			fs->wflag = 0;
			if (wsect < (fs->fatbase + fs->fsize)) {	/* In FAT area */
				BYTE nf;
				for (nf = fs->n_fats; nf > 1; nf--) {	/* Reflect the change to all FAT copies */
    1f58:	da000117 	ldw	r8,4(sp)
    1f5c:	d8c00217 	ldw	r3,8(sp)
    1f60:	40bfffc4 	addi	r2,r8,-1
    1f64:	11003fcc 	andi	r4,r2,255
    1f68:	1011883a 	mov	r8,r2
    1f6c:	273ff11e 	bne	r4,fp,1f34 <__alt_mem_epcq_avl_mem+0xef801f34>
    1f70:	003f4006 	br	1c74 <__alt_mem_epcq_avl_mem+0xef801c74>
		}
#endif
		if (sector) {
			if (disk_read(fs->drv, fs->win, sector, 1) != RES_OK)
				return FR_DISK_ERR;
			fs->winsect = sector;
    1f74:	80c00b15 	stw	r3,44(r16)
    1f78:	80800817 	ldw	r2,32(r16)
    1f7c:	003f4006 	br	1c80 <__alt_mem_epcq_avl_mem+0xef801c80>
{
	DWORD wsect;


	wsect = fs->winsect;
	if (wsect != sector) {	/* Changed current window */
    1f80:	b807883a 	mov	r3,r23
    1f84:	003f3e06 	br	1c80 <__alt_mem_epcq_avl_mem+0xef801c80>
		bc = (UINT)clst; bc += bc / 2;
		if (move_window(fs, fs->fatbase + (bc / SS(fs)))) break;
		wc = fs->win[bc % SS(fs)]; bc++;
		if (move_window(fs, fs->fatbase + (bc / SS(fs)))) break;
		wc |= fs->win[bc % SS(fs)] << 8;
		return (clst & 1) ? (wc >> 4) : (wc & 0xFFF);
    1f88:	9483ffcc 	andi	r18,r18,4095
    1f8c:	003f4f06 	br	1ccc <__alt_mem_epcq_avl_mem+0xef801ccc>
				}
			}
		}
#endif
		if (sector) {
			if (disk_read(fs->drv, fs->win, sector, 1) != RES_OK)
    1f90:	81000043 	ldbu	r4,1(r16)
    1f94:	400d883a 	mov	r6,r8
    1f98:	a80b883a 	mov	r5,r21
    1f9c:	01c00044 	movi	r7,1
    1fa0:	da000115 	stw	r8,4(sp)
    1fa4:	da400015 	stw	r9,0(sp)
    1fa8:	000b5000 	call	b500 <disk_read>
    1fac:	da000117 	ldw	r8,4(sp)
    1fb0:	da400017 	ldw	r9,0(sp)
    1fb4:	103f241e 	bne	r2,zero,1c48 <__alt_mem_epcq_avl_mem+0xef801c48>
				return FR_DISK_ERR;
			fs->winsect = sector;
    1fb8:	82000b15 	stw	r8,44(r16)
    1fbc:	003f3a06 	br	1ca8 <__alt_mem_epcq_avl_mem+0xef801ca8>

	wsect = fs->winsect;
	if (wsect != sector) {	/* Changed current window */
#if !_FS_READONLY
		if (fs->wflag) {	/* Write back dirty window if needed */
			if (disk_write(fs->drv, fs->win, wsect, 1) != RES_OK)
    1fc0:	81000043 	ldbu	r4,1(r16)
    1fc4:	180d883a 	mov	r6,r3
    1fc8:	a80b883a 	mov	r5,r21
    1fcc:	01c00044 	movi	r7,1
    1fd0:	d8c00215 	stw	r3,8(sp)
    1fd4:	da000115 	stw	r8,4(sp)
    1fd8:	da400015 	stw	r9,0(sp)
    1fdc:	000b6e40 	call	b6e4 <disk_write>
    1fe0:	d8c00217 	ldw	r3,8(sp)
    1fe4:	da000117 	ldw	r8,4(sp)
    1fe8:	da400017 	ldw	r9,0(sp)
    1fec:	103f161e 	bne	r2,zero,1c48 <__alt_mem_epcq_avl_mem+0xef801c48>
				return FR_DISK_ERR;
			fs->wflag = 0;
			if (wsect < (fs->fatbase + fs->fsize)) {	/* In FAT area */
    1ff0:	80800717 	ldw	r2,28(r16)
    1ff4:	81000817 	ldw	r4,32(r16)
	if (wsect != sector) {	/* Changed current window */
#if !_FS_READONLY
		if (fs->wflag) {	/* Write back dirty window if needed */
			if (disk_write(fs->drv, fs->win, wsect, 1) != RES_OK)
				return FR_DISK_ERR;
			fs->wflag = 0;
    1ff8:	80000105 	stb	zero,4(r16)
			if (wsect < (fs->fatbase + fs->fsize)) {	/* In FAT area */
    1ffc:	1109883a 	add	r4,r2,r4
    2000:	193f282e 	bgeu	r3,r4,1ca4 <__alt_mem_epcq_avl_mem+0xef801ca4>
				BYTE nf;
				for (nf = fs->n_fats; nf > 1; nf--) {	/* Reflect the change to all FAT copies */
    2004:	85c000c3 	ldbu	r23,3(r16)
    2008:	b9003fcc 	andi	r4,r23,255
    200c:	e1000236 	bltu	fp,r4,2018 <remove_chain.part.6+0x4a0>
    2010:	003f2406 	br	1ca4 <__alt_mem_epcq_avl_mem+0xef801ca4>
    2014:	80800717 	ldw	r2,28(r16)
					wsect += fs->fsize;
					disk_write(fs->drv, fs->win, wsect, 1);
    2018:	81000043 	ldbu	r4,1(r16)
				return FR_DISK_ERR;
			fs->wflag = 0;
			if (wsect < (fs->fatbase + fs->fsize)) {	/* In FAT area */
				BYTE nf;
				for (nf = fs->n_fats; nf > 1; nf--) {	/* Reflect the change to all FAT copies */
					wsect += fs->fsize;
    201c:	1887883a 	add	r3,r3,r2
					disk_write(fs->drv, fs->win, wsect, 1);
    2020:	180d883a 	mov	r6,r3
    2024:	a80b883a 	mov	r5,r21
    2028:	01c00044 	movi	r7,1
    202c:	d8c00215 	stw	r3,8(sp)
    2030:	da000115 	stw	r8,4(sp)
    2034:	da400015 	stw	r9,0(sp)
    2038:	000b6e40 	call	b6e4 <disk_write>
			if (disk_write(fs->drv, fs->win, wsect, 1) != RES_OK)
				return FR_DISK_ERR;
			fs->wflag = 0;
			if (wsect < (fs->fatbase + fs->fsize)) {	/* In FAT area */
				BYTE nf;
				for (nf = fs->n_fats; nf > 1; nf--) {	/* Reflect the change to all FAT copies */
    203c:	b8bfffc4 	addi	r2,r23,-1
    2040:	11003fcc 	andi	r4,r2,255
    2044:	102f883a 	mov	r23,r2
    2048:	d8c00217 	ldw	r3,8(sp)
    204c:	da000117 	ldw	r8,4(sp)
    2050:	da400017 	ldw	r9,0(sp)
    2054:	273fef1e 	bne	r4,fp,2014 <__alt_mem_epcq_avl_mem+0xef802014>
					disk_write(fs->drv, fs->win, wsect, 1);
				}
			}
		}
#endif
		if (sector) {
    2058:	403f1326 	beq	r8,zero,1ca8 <__alt_mem_epcq_avl_mem+0xef801ca8>
    205c:	003fcc06 	br	1f90 <__alt_mem_epcq_avl_mem+0xef801f90>

00002060 <chk_mounted>:
	BYTE fmt, b, pi, *tbl;
	UINT vol;
	DSTATUS stat;
	DWORD bsect, fasize, tsect, sysect, nclst, szbfat;
	WORD nrsv;
	const TCHAR *p = *path;
    2060:	20c00017 	ldw	r3,0(r4)
FRESULT chk_mounted (	/* FR_OK(0): successful, !=0: any error occurred */
	const TCHAR **path,	/* Pointer to pointer to the path name (drive number) */
	FATFS **rfs,		/* Pointer to pointer to the found file system object */
	BYTE chk_wp			/* !=0: Check media write protection for write access */
)
{
    2064:	defff904 	addi	sp,sp,-28
    2068:	dfc00615 	stw	ra,24(sp)
    206c:	dd400515 	stw	r21,20(sp)
    2070:	dd000415 	stw	r20,16(sp)
    2074:	dcc00315 	stw	r19,12(sp)
    2078:	dc800215 	stw	r18,8(sp)
    207c:	dc400115 	stw	r17,4(sp)
    2080:	dc000015 	stw	r16,0(sp)
	WORD nrsv;
	const TCHAR *p = *path;
	FATFS *fs;

	/* Get logical drive number from the path name */
	vol = p[0] - '0';					/* Is there a drive number? */
    2084:	18800007 	ldb	r2,0(r3)
	if (vol <= 9 && p[1] == ':') {		/* Found a drive number, get and strip it */
    2088:	01c00244 	movi	r7,9
	WORD nrsv;
	const TCHAR *p = *path;
	FATFS *fs;

	/* Get logical drive number from the path name */
	vol = p[0] - '0';					/* Is there a drive number? */
    208c:	10bff404 	addi	r2,r2,-48
	if (vol <= 9 && p[1] == ':') {		/* Found a drive number, get and strip it */
    2090:	38800336 	bltu	r7,r2,20a0 <chk_mounted+0x40>
    2094:	1a000047 	ldb	r8,1(r3)
    2098:	01c00e84 	movi	r7,58
    209c:	41c01926 	beq	r8,r7,2104 <chk_mounted+0xa4>
	}

	/* Check if the file system object is valid or not */
	if (vol >= _VOLUMES) 				/* Is the drive number valid? */
		return FR_INVALID_DRIVE;
	*rfs = fs = FatFs[vol];				/* Return pointer to the corresponding file system object */
    20a0:	d4201717 	ldw	r16,-32676(gp)
    20a4:	2c000015 	stw	r16,0(r5)
	if (!fs) return FR_NOT_ENABLED;		/* Is the file system object available? */
    20a8:	80000c26 	beq	r16,zero,20dc <chk_mounted+0x7c>

	ENTER_FF(fs);						/* Lock file system */

	if (fs->fs_type) {					/* If the logical drive has been mounted */
    20ac:	80800003 	ldbu	r2,0(r16)
    20b0:	3023883a 	mov	r17,r6
    20b4:	10001826 	beq	r2,zero,2118 <chk_mounted+0xb8>
		stat = disk_status(fs->drv);
    20b8:	81000043 	ldbu	r4,1(r16)
    20bc:	000b2040 	call	b204 <disk_status>
		if (!(stat & STA_NOINIT)) {		/* and the physical drive is kept initialized (has not been changed), */
    20c0:	10c0004c 	andi	r3,r2,1
    20c4:	1800141e 	bne	r3,zero,2118 <chk_mounted+0xb8>
			if (!_FS_READONLY && chk_wp && (stat & STA_PROTECT))	/* Check write protection if needed */
    20c8:	88000226 	beq	r17,zero,20d4 <chk_mounted+0x74>
    20cc:	1080010c 	andi	r2,r2,4
    20d0:	10001c1e 	bne	r2,zero,2144 <chk_mounted+0xe4>
				return FR_WRITE_PROTECTED;
			return FR_OK;				/* The file system object is valid */
    20d4:	0005883a 	mov	r2,zero
    20d8:	00000106 	br	20e0 <chk_mounted+0x80>

	/* Check if the file system object is valid or not */
	if (vol >= _VOLUMES) 				/* Is the drive number valid? */
		return FR_INVALID_DRIVE;
	*rfs = fs = FatFs[vol];				/* Return pointer to the corresponding file system object */
	if (!fs) return FR_NOT_ENABLED;		/* Is the file system object available? */
    20dc:	00800304 	movi	r2,12
#if _FS_SHARE				/* Clear file lock semaphores */
	clear_lock(fs);
#endif

	return FR_OK;
}
    20e0:	dfc00617 	ldw	ra,24(sp)
    20e4:	dd400517 	ldw	r21,20(sp)
    20e8:	dd000417 	ldw	r20,16(sp)
    20ec:	dcc00317 	ldw	r19,12(sp)
    20f0:	dc800217 	ldw	r18,8(sp)
    20f4:	dc400117 	ldw	r17,4(sp)
    20f8:	dc000017 	ldw	r16,0(sp)
    20fc:	dec00704 	addi	sp,sp,28
    2100:	f800283a 	ret
	FATFS *fs;

	/* Get logical drive number from the path name */
	vol = p[0] - '0';					/* Is there a drive number? */
	if (vol <= 9 && p[1] == ':') {		/* Found a drive number, get and strip it */
		p += 2; *path = p;				/* Return pointer to the path name */
    2104:	18c00084 	addi	r3,r3,2
    2108:	20c00015 	stw	r3,0(r4)
		vol = 0;						/* Use drive 0 */
#endif
	}

	/* Check if the file system object is valid or not */
	if (vol >= _VOLUMES) 				/* Is the drive number valid? */
    210c:	103fe426 	beq	r2,zero,20a0 <__alt_mem_epcq_avl_mem+0xef8020a0>
		return FR_INVALID_DRIVE;
    2110:	008002c4 	movi	r2,11
    2114:	003ff206 	br	20e0 <__alt_mem_epcq_avl_mem+0xef8020e0>
	}

	/* The file system object is not valid. */
	/* Following code attempts to mount the volume. (analyze BPB and initialize the fs object) */

	fs->fs_type = 0;					/* Clear the file system object */
    2118:	80000005 	stb	zero,0(r16)
	fs->drv = LD2PD(vol);				/* Bind the logical drive and a physical drive */
    211c:	80000045 	stb	zero,1(r16)
	stat = disk_initialize(fs->drv);	/* Initialize low level disk I/O layer */
    2120:	0009883a 	mov	r4,zero
    2124:	000b2b40 	call	b2b4 <disk_initialize>
	if (stat & STA_NOINIT)				/* Check if the initialization succeeded */
    2128:	10c0004c 	andi	r3,r2,1
    212c:	18000226 	beq	r3,zero,2138 <chk_mounted+0xd8>
		return FR_NOT_READY;			/* Failed to initialize due to no media or hard error */
    2130:	008000c4 	movi	r2,3
    2134:	003fea06 	br	20e0 <__alt_mem_epcq_avl_mem+0xef8020e0>
	if (!_FS_READONLY && chk_wp && (stat & STA_PROTECT))	/* Check disk write protection if needed */
    2138:	88000426 	beq	r17,zero,214c <chk_mounted+0xec>
    213c:	1080010c 	andi	r2,r2,4
    2140:	10000226 	beq	r2,zero,214c <chk_mounted+0xec>

	if (fs->fs_type) {					/* If the logical drive has been mounted */
		stat = disk_status(fs->drv);
		if (!(stat & STA_NOINIT)) {		/* and the physical drive is kept initialized (has not been changed), */
			if (!_FS_READONLY && chk_wp && (stat & STA_PROTECT))	/* Check write protection if needed */
				return FR_WRITE_PROTECTED;
    2144:	00800284 	movi	r2,10
    2148:	003fe506 	br	20e0 <__alt_mem_epcq_avl_mem+0xef8020e0>
BYTE check_fs (	/* 0:FAT-VBR, 1:Valid BR but not FAT, 2:Not a BR, 3:Disk error */
	FATFS *fs,	/* File system object */
	DWORD sect	/* Sector# (lba) to check if it is an FAT boot record or not */
)
{
	if (disk_read(fs->drv, fs->win, sect, 1) != RES_OK)	/* Load boot record */
    214c:	81000043 	ldbu	r4,1(r16)
    2150:	84400c04 	addi	r17,r16,48
    2154:	880b883a 	mov	r5,r17
    2158:	000d883a 	mov	r6,zero
    215c:	01c00044 	movi	r7,1
    2160:	000b5000 	call	b500 <disk_read>
    2164:	10000226 	beq	r2,zero,2170 <chk_mounted+0x110>
		if (tbl[4]) {						/* Is the partition existing? */
			bsect = LD_DWORD(&tbl[8]);		/* Partition offset in LBA */
			fmt = check_fs(fs, bsect);		/* Check the partition */
		}
	}
	if (fmt == 3) return FR_DISK_ERR;
    2168:	00800044 	movi	r2,1
    216c:	003fdc06 	br	20e0 <__alt_mem_epcq_avl_mem+0xef8020e0>
	DWORD sect	/* Sector# (lba) to check if it is an FAT boot record or not */
)
{
	if (disk_read(fs->drv, fs->win, sect, 1) != RES_OK)	/* Load boot record */
		return 3;
	if (LD_WORD(&fs->win[BS_55AA]) != 0xAA55)		/* Check record signature (always placed at offset 510 even if the sector size is >512) */
    2170:	84808bc3 	ldbu	r18,559(r16)
    2174:	80808b83 	ldbu	r2,558(r16)
    2178:	9024923a 	slli	r18,r18,8
    217c:	90a4b03a 	or	r18,r18,r2
    2180:	94bfffcc 	andi	r18,r18,65535
    2184:	94a0001c 	xori	r18,r18,32768
    2188:	94a00004 	addi	r18,r18,-32768
    218c:	00aa9544 	movi	r2,-21931
    2190:	90808e26 	beq	r18,r2,23cc <chk_mounted+0x36c>
		return 2;
    2194:	00800084 	movi	r2,2
#if _MAX_SS != 512						/* Get disk sector size (variable sector size cfg only) */
	if (disk_ioctl(fs->drv, GET_SECTOR_SIZE, &fs->ssize) != RES_OK)
		return FR_DISK_ERR;
#endif
	/* Search FAT partition on the drive. Supports only generic partitionings, FDISK and SFD. */
	fmt = check_fs(fs, bsect = 0);		/* Load sector 0 and check if it is an FAT-VBR (in SFD) */
    2198:	0027883a 	mov	r19,zero
			bsect = LD_DWORD(&tbl[8]);		/* Partition offset in LBA */
			fmt = check_fs(fs, bsect);		/* Check the partition */
		}
	}
	if (fmt == 3) return FR_DISK_ERR;
	if (fmt) return FR_NO_FILESYSTEM;		/* No FAT volume is found */
    219c:	10803fcc 	andi	r2,r2,255
    21a0:	10000226 	beq	r2,zero,21ac <chk_mounted+0x14c>
    21a4:	00800344 	movi	r2,13
    21a8:	003fcd06 	br	20e0 <__alt_mem_epcq_avl_mem+0xef8020e0>

	/* An FAT volume is found. Following code initializes the file system object */

	if (LD_WORD(fs->win+BPB_BytsPerSec) != SS(fs))		/* (BPB_BytsPerSec must be equal to the physical sector size) */
    21ac:	80c00f03 	ldbu	r3,60(r16)
    21b0:	80800ec3 	ldbu	r2,59(r16)
    21b4:	1806923a 	slli	r3,r3,8
    21b8:	1884b03a 	or	r2,r3,r2
    21bc:	10bfffcc 	andi	r2,r2,65535
    21c0:	10a0001c 	xori	r2,r2,32768
    21c4:	10a00004 	addi	r2,r2,-32768
    21c8:	00c08004 	movi	r3,512
    21cc:	10fff51e 	bne	r2,r3,21a4 <__alt_mem_epcq_avl_mem+0xef8021a4>
		return FR_NO_FILESYSTEM;

	fasize = LD_WORD(fs->win+BPB_FATSz16);				/* Number of sectors per FAT */
    21d0:	814011c3 	ldbu	r5,71(r16)
    21d4:	80801183 	ldbu	r2,70(r16)
    21d8:	280a923a 	slli	r5,r5,8
	if (!fasize) fasize = LD_DWORD(fs->win+BPB_FATSz32);
    21dc:	288ab03a 	or	r5,r5,r2
    21e0:	28000a1e 	bne	r5,zero,220c <chk_mounted+0x1ac>
    21e4:	810015c3 	ldbu	r4,87(r16)
    21e8:	80801583 	ldbu	r2,86(r16)
    21ec:	80c01543 	ldbu	r3,85(r16)
    21f0:	2008963a 	slli	r4,r4,24
    21f4:	1004943a 	slli	r2,r2,16
    21f8:	81401503 	ldbu	r5,84(r16)
    21fc:	1806923a 	slli	r3,r3,8
    2200:	2084b03a 	or	r2,r4,r2
    2204:	1144b03a 	or	r2,r2,r5
    2208:	10cab03a 	or	r5,r2,r3
	fs->fsize = fasize;

	fs->n_fats = b = fs->win[BPB_NumFATs];				/* Number of FAT copies */
    220c:	81c01003 	ldbu	r7,64(r16)
	if (LD_WORD(fs->win+BPB_BytsPerSec) != SS(fs))		/* (BPB_BytsPerSec must be equal to the physical sector size) */
		return FR_NO_FILESYSTEM;

	fasize = LD_WORD(fs->win+BPB_FATSz16);				/* Number of sectors per FAT */
	if (!fasize) fasize = LD_DWORD(fs->win+BPB_FATSz32);
	fs->fsize = fasize;
    2210:	81400715 	stw	r5,28(r16)

	fs->n_fats = b = fs->win[BPB_NumFATs];				/* Number of FAT copies */
	if (b != 1 && b != 2) return FR_NO_FILESYSTEM;		/* (Must be 1 or 2) */
    2214:	00c00044 	movi	r3,1
    2218:	38bfffc4 	addi	r2,r7,-1

	fasize = LD_WORD(fs->win+BPB_FATSz16);				/* Number of sectors per FAT */
	if (!fasize) fasize = LD_DWORD(fs->win+BPB_FATSz32);
	fs->fsize = fasize;

	fs->n_fats = b = fs->win[BPB_NumFATs];				/* Number of FAT copies */
    221c:	81c000c5 	stb	r7,3(r16)
	if (b != 1 && b != 2) return FR_NO_FILESYSTEM;		/* (Must be 1 or 2) */
    2220:	10803fcc 	andi	r2,r2,255
    2224:	18bfdf36 	bltu	r3,r2,21a4 <__alt_mem_epcq_avl_mem+0xef8021a4>
	fasize *= b;										/* Number of sectors for FAT area */

	fs->csize = b = fs->win[BPB_SecPerClus];			/* Number of sectors per cluster */
    2228:	80800f43 	ldbu	r2,61(r16)
    222c:	80800085 	stb	r2,2(r16)
	if (!b || (b & (b - 1))) return FR_NO_FILESYSTEM;	/* (Must be power of 2) */
    2230:	10803fcc 	andi	r2,r2,255
    2234:	103fdb26 	beq	r2,zero,21a4 <__alt_mem_epcq_avl_mem+0xef8021a4>
    2238:	10ffffc4 	addi	r3,r2,-1
    223c:	1886703a 	and	r3,r3,r2
    2240:	183fd81e 	bne	r3,zero,21a4 <__alt_mem_epcq_avl_mem+0xef8021a4>

	fs->n_rootdir = LD_WORD(fs->win+BPB_RootEntCnt);	/* Number of root directory entries */
    2244:	80c01083 	ldbu	r3,66(r16)
    2248:	81801043 	ldbu	r6,65(r16)
    224c:	1806923a 	slli	r3,r3,8
    2250:	198cb03a 	or	r6,r3,r6
    2254:	8180020d 	sth	r6,8(r16)
	if (fs->n_rootdir % (SS(fs) / SZ_DIR)) return FR_NO_FILESYSTEM;	/* (BPB_RootEntCnt must be sector aligned) */
    2258:	30c003cc 	andi	r3,r6,15
    225c:	183fd11e 	bne	r3,zero,21a4 <__alt_mem_epcq_avl_mem+0xef8021a4>

	tsect = LD_WORD(fs->win+BPB_TotSec16);				/* Number of sectors on the volume */
    2260:	81001103 	ldbu	r4,68(r16)
    2264:	80c010c3 	ldbu	r3,67(r16)
    2268:	2008923a 	slli	r4,r4,8
    226c:	20c6b03a 	or	r3,r4,r3
	if (!tsect) tsect = LD_DWORD(fs->win+BPB_TotSec32);
    2270:	18000a1e 	bne	r3,zero,229c <chk_mounted+0x23c>
    2274:	824014c3 	ldbu	r9,83(r16)
    2278:	81001483 	ldbu	r4,82(r16)
    227c:	80c01443 	ldbu	r3,81(r16)
    2280:	4812963a 	slli	r9,r9,24
    2284:	2008943a 	slli	r4,r4,16
    2288:	82001403 	ldbu	r8,80(r16)
    228c:	1806923a 	slli	r3,r3,8
    2290:	4908b03a 	or	r4,r9,r4
    2294:	2208b03a 	or	r4,r4,r8
    2298:	20c6b03a 	or	r3,r4,r3

	nrsv = LD_WORD(fs->win+BPB_RsvdSecCnt);				/* Number of reserved sectors */
    229c:	81000fc3 	ldbu	r4,63(r16)
    22a0:	82000f83 	ldbu	r8,62(r16)
    22a4:	2008923a 	slli	r4,r4,8
	if (!nrsv) return FR_NO_FILESYSTEM;					/* (BPB_RsvdSecCnt must not be 0) */
    22a8:	2208b03a 	or	r4,r4,r8
    22ac:	203fbd26 	beq	r4,zero,21a4 <__alt_mem_epcq_avl_mem+0xef8021a4>

	/* Determine the FAT sub type */
	sysect = nrsv + fasize + fs->n_rootdir / (SS(fs) / SZ_DIR);	/* RSV+FAT+DIR */
    22b0:	323fffcc 	andi	r8,r6,65535
	if (!fasize) fasize = LD_DWORD(fs->win+BPB_FATSz32);
	fs->fsize = fasize;

	fs->n_fats = b = fs->win[BPB_NumFATs];				/* Number of FAT copies */
	if (b != 1 && b != 2) return FR_NO_FILESYSTEM;		/* (Must be 1 or 2) */
	fasize *= b;										/* Number of sectors for FAT area */
    22b4:	39c03fcc 	andi	r7,r7,255

	nrsv = LD_WORD(fs->win+BPB_RsvdSecCnt);				/* Number of reserved sectors */
	if (!nrsv) return FR_NO_FILESYSTEM;					/* (BPB_RsvdSecCnt must not be 0) */

	/* Determine the FAT sub type */
	sysect = nrsv + fasize + fs->n_rootdir / (SS(fs) / SZ_DIR);	/* RSV+FAT+DIR */
    22b8:	400cd13a 	srli	r6,r8,4
	if (!fasize) fasize = LD_DWORD(fs->win+BPB_FATSz32);
	fs->fsize = fasize;

	fs->n_fats = b = fs->win[BPB_NumFATs];				/* Number of FAT copies */
	if (b != 1 && b != 2) return FR_NO_FILESYSTEM;		/* (Must be 1 or 2) */
	fasize *= b;										/* Number of sectors for FAT area */
    22bc:	29cf383a 	mul	r7,r5,r7
    22c0:	310d883a 	add	r6,r6,r4

	nrsv = LD_WORD(fs->win+BPB_RsvdSecCnt);				/* Number of reserved sectors */
	if (!nrsv) return FR_NO_FILESYSTEM;					/* (BPB_RsvdSecCnt must not be 0) */

	/* Determine the FAT sub type */
	sysect = nrsv + fasize + fs->n_rootdir / (SS(fs) / SZ_DIR);	/* RSV+FAT+DIR */
    22c4:	31cd883a 	add	r6,r6,r7
	if (tsect < sysect) return FR_NO_FILESYSTEM;		/* (Invalid volume size) */
    22c8:	19bfb636 	bltu	r3,r6,21a4 <__alt_mem_epcq_avl_mem+0xef8021a4>
	nclst = (tsect - sysect) / fs->csize;				/* Number of clusters */
    22cc:	1987c83a 	sub	r3,r3,r6
    22d0:	1885203a 	divu	r2,r3,r2
	if (!nclst) return FR_NO_FILESYSTEM;				/* (Invalid volume size) */
    22d4:	103fb326 	beq	r2,zero,21a4 <__alt_mem_epcq_avl_mem+0xef8021a4>
	fmt = FS_FAT12;
	if (nclst >= MIN_FAT16) fmt = FS_FAT16;
    22d8:	00c3fd44 	movi	r3,4085
    22dc:	1880d02e 	bgeu	r3,r2,2620 <chk_mounted+0x5c0>
	if (nclst >= MIN_FAT32) fmt = FS_FAT32;
    22e0:	00fffd54 	movui	r3,65525
    22e4:	1880bc2e 	bgeu	r3,r2,25d8 <chk_mounted+0x578>

	/* Boundaries and Limits */
	fs->n_fatent = nclst + 2;							/* Number of FAT entries */
    22e8:	10800084 	addi	r2,r2,2
	fs->database = bsect + sysect;						/* Data start sector */
    22ec:	34cd883a 	add	r6,r6,r19
	fs->fatbase = bsect + nrsv; 						/* FAT start sector */
    22f0:	9909883a 	add	r4,r19,r4
	fmt = FS_FAT12;
	if (nclst >= MIN_FAT16) fmt = FS_FAT16;
	if (nclst >= MIN_FAT32) fmt = FS_FAT32;

	/* Boundaries and Limits */
	fs->n_fatent = nclst + 2;							/* Number of FAT entries */
    22f4:	80800615 	stw	r2,24(r16)
	fs->database = bsect + sysect;						/* Data start sector */
    22f8:	81800a15 	stw	r6,40(r16)
	fs->fatbase = bsect + nrsv; 						/* FAT start sector */
    22fc:	81000815 	stw	r4,32(r16)
	if (fmt == FS_FAT32) {
		if (fs->n_rootdir) return FR_NO_FILESYSTEM;		/* (BPB_RootEntCnt must be 0) */
    2300:	403fa81e 	bne	r8,zero,21a4 <__alt_mem_epcq_avl_mem+0xef8021a4>
		fs->dirbase = LD_DWORD(fs->win+BPB_RootClus);	/* Root directory start cluster */
    2304:	81c017c3 	ldbu	r7,95(r16)
    2308:	81001783 	ldbu	r4,94(r16)
    230c:	80c01743 	ldbu	r3,93(r16)
    2310:	380e963a 	slli	r7,r7,24
    2314:	2008943a 	slli	r4,r4,16
    2318:	81801703 	ldbu	r6,92(r16)
		szbfat = fs->n_fatent * 4;						/* (Required FAT size) */
    231c:	1085883a 	add	r2,r2,r2
	fs->n_fatent = nclst + 2;							/* Number of FAT entries */
	fs->database = bsect + sysect;						/* Data start sector */
	fs->fatbase = bsect + nrsv; 						/* FAT start sector */
	if (fmt == FS_FAT32) {
		if (fs->n_rootdir) return FR_NO_FILESYSTEM;		/* (BPB_RootEntCnt must be 0) */
		fs->dirbase = LD_DWORD(fs->win+BPB_RootClus);	/* Root directory start cluster */
    2320:	1806923a 	slli	r3,r3,8
		szbfat = fs->n_fatent * 4;						/* (Required FAT size) */
    2324:	1085883a 	add	r2,r2,r2
	fs->n_fatent = nclst + 2;							/* Number of FAT entries */
	fs->database = bsect + sysect;						/* Data start sector */
	fs->fatbase = bsect + nrsv; 						/* FAT start sector */
	if (fmt == FS_FAT32) {
		if (fs->n_rootdir) return FR_NO_FILESYSTEM;		/* (BPB_RootEntCnt must be 0) */
		fs->dirbase = LD_DWORD(fs->win+BPB_RootClus);	/* Root directory start cluster */
    2328:	3908b03a 	or	r4,r7,r4
		if (!fs->n_rootdir)	return FR_NO_FILESYSTEM;	/* (BPB_RootEntCnt must not be 0) */
		fs->dirbase = fs->fatbase + fasize;				/* Root directory start sector */
		szbfat = (fmt == FS_FAT16) ?					/* (Required FAT size) */
			fs->n_fatent * 2 : fs->n_fatent * 3 / 2 + (fs->n_fatent & 1);
	}
	if (fs->fsize < (szbfat + (SS(fs) - 1)) / SS(fs))	/* (BPB_FATSz must not be less than required) */
    232c:	10807fc4 	addi	r2,r2,511
    2330:	2188b03a 	or	r4,r4,r6
    2334:	1004d27a 	srli	r2,r2,9
	fs->n_fatent = nclst + 2;							/* Number of FAT entries */
	fs->database = bsect + sysect;						/* Data start sector */
	fs->fatbase = bsect + nrsv; 						/* FAT start sector */
	if (fmt == FS_FAT32) {
		if (fs->n_rootdir) return FR_NO_FILESYSTEM;		/* (BPB_RootEntCnt must be 0) */
		fs->dirbase = LD_DWORD(fs->win+BPB_RootClus);	/* Root directory start cluster */
    2338:	20c6b03a 	or	r3,r4,r3
    233c:	80c00915 	stw	r3,36(r16)
		if (!fs->n_rootdir)	return FR_NO_FILESYSTEM;	/* (BPB_RootEntCnt must not be 0) */
		fs->dirbase = fs->fatbase + fasize;				/* Root directory start sector */
		szbfat = (fmt == FS_FAT16) ?					/* (Required FAT size) */
			fs->n_fatent * 2 : fs->n_fatent * 3 / 2 + (fs->n_fatent & 1);
	}
	if (fs->fsize < (szbfat + (SS(fs) - 1)) / SS(fs))	/* (BPB_FATSz must not be less than required) */
    2340:	28bf9836 	bltu	r5,r2,21a4 <__alt_mem_epcq_avl_mem+0xef8021a4>
	fs->last_clust = 0;

	/* Get fsinfo if available */
	if (fmt == FS_FAT32) {
	 	fs->fsi_flag = 0;
		fs->fsi_sector = bsect + LD_WORD(fs->win+BPB_FSInfo);
    2344:	81801843 	ldbu	r6,97(r16)
    2348:	80801803 	ldbu	r2,96(r16)
		if (disk_read(fs->drv, fs->win, fs->fsi_sector, 1) == RES_OK &&
    234c:	81000043 	ldbu	r4,1(r16)
	fs->last_clust = 0;

	/* Get fsinfo if available */
	if (fmt == FS_FAT32) {
	 	fs->fsi_flag = 0;
		fs->fsi_sector = bsect + LD_WORD(fs->win+BPB_FSInfo);
    2350:	300c923a 	slli	r6,r6,8
	if (fs->fsize < (szbfat + (SS(fs) - 1)) / SS(fs))	/* (BPB_FATSz must not be less than required) */
		return FR_NO_FILESYSTEM;

#if !_FS_READONLY
	/* Initialize cluster allocation information */
	fs->free_clust = 0xFFFFFFFF;
    2354:	00ffffc4 	movi	r3,-1
    2358:	80c00415 	stw	r3,16(r16)
	fs->last_clust = 0;

	/* Get fsinfo if available */
	if (fmt == FS_FAT32) {
	 	fs->fsi_flag = 0;
		fs->fsi_sector = bsect + LD_WORD(fs->win+BPB_FSInfo);
    235c:	308cb03a 	or	r6,r6,r2
    2360:	998d883a 	add	r6,r19,r6
		return FR_NO_FILESYSTEM;

#if !_FS_READONLY
	/* Initialize cluster allocation information */
	fs->free_clust = 0xFFFFFFFF;
	fs->last_clust = 0;
    2364:	80000315 	stw	zero,12(r16)

	/* Get fsinfo if available */
	if (fmt == FS_FAT32) {
	 	fs->fsi_flag = 0;
    2368:	80000145 	stb	zero,5(r16)
		fs->fsi_sector = bsect + LD_WORD(fs->win+BPB_FSInfo);
    236c:	81800515 	stw	r6,20(r16)
		if (disk_read(fs->drv, fs->win, fs->fsi_sector, 1) == RES_OK &&
    2370:	880b883a 	mov	r5,r17
    2374:	01c00044 	movi	r7,1
    2378:	000b5000 	call	b500 <disk_read>
    237c:	1000091e 	bne	r2,zero,23a4 <chk_mounted+0x344>
			LD_WORD(fs->win+BS_55AA) == 0xAA55 &&
    2380:	80c08bc3 	ldbu	r3,559(r16)
    2384:	80808b83 	ldbu	r2,558(r16)
    2388:	1806923a 	slli	r3,r3,8
    238c:	1884b03a 	or	r2,r3,r2

	/* Get fsinfo if available */
	if (fmt == FS_FAT32) {
	 	fs->fsi_flag = 0;
		fs->fsi_sector = bsect + LD_WORD(fs->win+BPB_FSInfo);
		if (disk_read(fs->drv, fs->win, fs->fsi_sector, 1) == RES_OK &&
    2390:	10bfffcc 	andi	r2,r2,65535
    2394:	10a0001c 	xori	r2,r2,32768
    2398:	10a00004 	addi	r2,r2,-32768
    239c:	00ea9544 	movi	r3,-21931
    23a0:	10c05b26 	beq	r2,r3,2510 <chk_mounted+0x4b0>
    23a4:	008000c4 	movi	r2,3
				fs->free_clust = LD_DWORD(fs->win+FSI_Free_Count);
		}
	}
#endif
	fs->fs_type = fmt;		/* FAT sub-type */
	fs->id = ++Fsid;		/* File system mount ID */
    23a8:	d0e0160b 	ldhu	r3,-32680(gp)
				fs->last_clust = LD_DWORD(fs->win+FSI_Nxt_Free);
				fs->free_clust = LD_DWORD(fs->win+FSI_Free_Count);
		}
	}
#endif
	fs->fs_type = fmt;		/* FAT sub-type */
    23ac:	80800005 	stb	r2,0(r16)
	fs->id = ++Fsid;		/* File system mount ID */
	fs->winsect = 0;		/* Invalidate sector cache */
    23b0:	80000b15 	stw	zero,44(r16)
				fs->free_clust = LD_DWORD(fs->win+FSI_Free_Count);
		}
	}
#endif
	fs->fs_type = fmt;		/* FAT sub-type */
	fs->id = ++Fsid;		/* File system mount ID */
    23b4:	18800044 	addi	r2,r3,1
    23b8:	d0a0160d 	sth	r2,-32680(gp)
    23bc:	8080018d 	sth	r2,6(r16)
	fs->winsect = 0;		/* Invalidate sector cache */
	fs->wflag = 0;
    23c0:	80000105 	stb	zero,4(r16)
#endif
#if _FS_SHARE				/* Clear file lock semaphores */
	clear_lock(fs);
#endif

	return FR_OK;
    23c4:	0005883a 	mov	r2,zero
    23c8:	003f4506 	br	20e0 <__alt_mem_epcq_avl_mem+0xef8020e0>
	if (disk_read(fs->drv, fs->win, sect, 1) != RES_OK)	/* Load boot record */
		return 3;
	if (LD_WORD(&fs->win[BS_55AA]) != 0xAA55)		/* Check record signature (always placed at offset 510 even if the sector size is >512) */
		return 2;

	if ((LD_DWORD(&fs->win[BS_FilSysType]) & 0xFFFFFF) == 0x544146)	/* Check "FAT" string */
    23cc:	81401a43 	ldbu	r5,105(r16)
    23d0:	80c01a03 	ldbu	r3,104(r16)
    23d4:	808019c3 	ldbu	r2,103(r16)
    23d8:	280a963a 	slli	r5,r5,24
    23dc:	1806943a 	slli	r3,r3,16
    23e0:	81001983 	ldbu	r4,102(r16)
    23e4:	1004923a 	slli	r2,r2,8
    23e8:	28c6b03a 	or	r3,r5,r3
    23ec:	05404034 	movhi	r21,256
    23f0:	1906b03a 	or	r3,r3,r4
    23f4:	ad7fffc4 	addi	r21,r21,-1
    23f8:	05001534 	movhi	r20,84
    23fc:	1884b03a 	or	r2,r3,r2
    2400:	a5105184 	addi	r20,r20,16710
    2404:	1544703a 	and	r2,r2,r21
    2408:	15003f26 	beq	r2,r20,2508 <chk_mounted+0x4a8>
		return 0;
	if ((LD_DWORD(&fs->win[BS_FilSysType32]) & 0xFFFFFF) == 0x544146)
    240c:	81402143 	ldbu	r5,133(r16)
    2410:	80c02103 	ldbu	r3,132(r16)
    2414:	808020c3 	ldbu	r2,131(r16)
    2418:	280a963a 	slli	r5,r5,24
    241c:	1806943a 	slli	r3,r3,16
    2420:	81002083 	ldbu	r4,130(r16)
    2424:	1004923a 	slli	r2,r2,8
    2428:	28c6b03a 	or	r3,r5,r3
    242c:	1906b03a 	or	r3,r3,r4
    2430:	1884b03a 	or	r2,r3,r2
    2434:	1544703a 	and	r2,r2,r21
    2438:	15003326 	beq	r2,r20,2508 <chk_mounted+0x4a8>
	if (fmt == 1) {						/* Not an FAT-VBR, the physical drive can be partitioned */
		/* Check the partition listed in the partition table */
		pi = LD2PT(vol);
		if (pi) pi--;
		tbl = &fs->win[MBR_Table + pi * SZ_PTE];/* Partition table */
		if (tbl[4]) {						/* Is the partition existing? */
    243c:	80807c83 	ldbu	r2,498(r16)
    2440:	103f5826 	beq	r2,zero,21a4 <__alt_mem_epcq_avl_mem+0xef8021a4>
			bsect = LD_DWORD(&tbl[8]);		/* Partition offset in LBA */
    2444:	80807e43 	ldbu	r2,505(r16)
    2448:	80c07e03 	ldbu	r3,504(r16)
    244c:	81407dc3 	ldbu	r5,503(r16)
    2450:	1004963a 	slli	r2,r2,24
    2454:	1806943a 	slli	r3,r3,16
    2458:	84c07d83 	ldbu	r19,502(r16)
    245c:	280a923a 	slli	r5,r5,8
    2460:	10c6b03a 	or	r3,r2,r3
    2464:	1cc6b03a 	or	r3,r3,r19
BYTE check_fs (	/* 0:FAT-VBR, 1:Valid BR but not FAT, 2:Not a BR, 3:Disk error */
	FATFS *fs,	/* File system object */
	DWORD sect	/* Sector# (lba) to check if it is an FAT boot record or not */
)
{
	if (disk_read(fs->drv, fs->win, sect, 1) != RES_OK)	/* Load boot record */
    2468:	81000043 	ldbu	r4,1(r16)
		/* Check the partition listed in the partition table */
		pi = LD2PT(vol);
		if (pi) pi--;
		tbl = &fs->win[MBR_Table + pi * SZ_PTE];/* Partition table */
		if (tbl[4]) {						/* Is the partition existing? */
			bsect = LD_DWORD(&tbl[8]);		/* Partition offset in LBA */
    246c:	1966b03a 	or	r19,r3,r5
BYTE check_fs (	/* 0:FAT-VBR, 1:Valid BR but not FAT, 2:Not a BR, 3:Disk error */
	FATFS *fs,	/* File system object */
	DWORD sect	/* Sector# (lba) to check if it is an FAT boot record or not */
)
{
	if (disk_read(fs->drv, fs->win, sect, 1) != RES_OK)	/* Load boot record */
    2470:	980d883a 	mov	r6,r19
    2474:	880b883a 	mov	r5,r17
    2478:	01c00044 	movi	r7,1
    247c:	000b5000 	call	b500 <disk_read>
    2480:	103f391e 	bne	r2,zero,2168 <__alt_mem_epcq_avl_mem+0xef802168>
		return 3;
	if (LD_WORD(&fs->win[BS_55AA]) != 0xAA55)		/* Check record signature (always placed at offset 510 even if the sector size is >512) */
    2484:	80c08bc3 	ldbu	r3,559(r16)
    2488:	80808b83 	ldbu	r2,558(r16)
    248c:	1806923a 	slli	r3,r3,8
    2490:	1884b03a 	or	r2,r3,r2
    2494:	10bfffcc 	andi	r2,r2,65535
    2498:	10a0001c 	xori	r2,r2,32768
    249c:	10a00004 	addi	r2,r2,-32768
    24a0:	14bf401e 	bne	r2,r18,21a4 <__alt_mem_epcq_avl_mem+0xef8021a4>
		return 2;

	if ((LD_DWORD(&fs->win[BS_FilSysType]) & 0xFFFFFF) == 0x544146)	/* Check "FAT" string */
    24a4:	81401a43 	ldbu	r5,105(r16)
    24a8:	80801a03 	ldbu	r2,104(r16)
    24ac:	80c019c3 	ldbu	r3,103(r16)
    24b0:	280a963a 	slli	r5,r5,24
    24b4:	1004943a 	slli	r2,r2,16
    24b8:	81001983 	ldbu	r4,102(r16)
    24bc:	1806923a 	slli	r3,r3,8
    24c0:	2884b03a 	or	r2,r5,r2
    24c4:	1104b03a 	or	r2,r2,r4
    24c8:	10c6b03a 	or	r3,r2,r3
    24cc:	1d46703a 	and	r3,r3,r21
    24d0:	1d3f3626 	beq	r3,r20,21ac <__alt_mem_epcq_avl_mem+0xef8021ac>
		return 0;
	if ((LD_DWORD(&fs->win[BS_FilSysType32]) & 0xFFFFFF) == 0x544146)
    24d4:	81402143 	ldbu	r5,133(r16)
    24d8:	80802103 	ldbu	r2,132(r16)
    24dc:	80c020c3 	ldbu	r3,131(r16)
    24e0:	280a963a 	slli	r5,r5,24
    24e4:	1004943a 	slli	r2,r2,16
    24e8:	81002083 	ldbu	r4,130(r16)
    24ec:	1806923a 	slli	r3,r3,8
    24f0:	2884b03a 	or	r2,r5,r2
    24f4:	1104b03a 	or	r2,r2,r4
    24f8:	10c6b03a 	or	r3,r2,r3
    24fc:	1d44703a 	and	r2,r3,r21
    2500:	1504c03a 	cmpne	r2,r2,r20
    2504:	003f2506 	br	219c <__alt_mem_epcq_avl_mem+0xef80219c>
		return 3;
	if (LD_WORD(&fs->win[BS_55AA]) != 0xAA55)		/* Check record signature (always placed at offset 510 even if the sector size is >512) */
		return 2;

	if ((LD_DWORD(&fs->win[BS_FilSysType]) & 0xFFFFFF) == 0x544146)	/* Check "FAT" string */
		return 0;
    2508:	0005883a 	mov	r2,zero
    250c:	003f2206 	br	2198 <__alt_mem_epcq_avl_mem+0xef802198>
	if (fmt == FS_FAT32) {
	 	fs->fsi_flag = 0;
		fs->fsi_sector = bsect + LD_WORD(fs->win+BPB_FSInfo);
		if (disk_read(fs->drv, fs->win, fs->fsi_sector, 1) == RES_OK &&
			LD_WORD(fs->win+BS_55AA) == 0xAA55 &&
			LD_DWORD(fs->win+FSI_LeadSig) == 0x41615252 &&
    2510:	81400cc3 	ldbu	r5,51(r16)
    2514:	80c00c83 	ldbu	r3,50(r16)
    2518:	80800c43 	ldbu	r2,49(r16)
    251c:	280a963a 	slli	r5,r5,24
    2520:	1806943a 	slli	r3,r3,16
    2524:	81000c03 	ldbu	r4,48(r16)
    2528:	1004923a 	slli	r2,r2,8
    252c:	28c6b03a 	or	r3,r5,r3
    2530:	1906b03a 	or	r3,r3,r4
    2534:	1884b03a 	or	r2,r3,r2
	/* Get fsinfo if available */
	if (fmt == FS_FAT32) {
	 	fs->fsi_flag = 0;
		fs->fsi_sector = bsect + LD_WORD(fs->win+BPB_FSInfo);
		if (disk_read(fs->drv, fs->win, fs->fsi_sector, 1) == RES_OK &&
			LD_WORD(fs->win+BS_55AA) == 0xAA55 &&
    2538:	00d05874 	movhi	r3,16737
    253c:	18d49484 	addi	r3,r3,21074
    2540:	10ff981e 	bne	r2,r3,23a4 <__alt_mem_epcq_avl_mem+0xef8023a4>
			LD_DWORD(fs->win+FSI_LeadSig) == 0x41615252 &&
			LD_DWORD(fs->win+FSI_StrucSig) == 0x61417272) {
    2544:	814085c3 	ldbu	r5,535(r16)
    2548:	80c08583 	ldbu	r3,534(r16)
    254c:	80808543 	ldbu	r2,533(r16)
    2550:	280a963a 	slli	r5,r5,24
    2554:	1806943a 	slli	r3,r3,16
    2558:	81008503 	ldbu	r4,532(r16)
    255c:	1004923a 	slli	r2,r2,8
    2560:	28c6b03a 	or	r3,r5,r3
    2564:	1906b03a 	or	r3,r3,r4
    2568:	1884b03a 	or	r2,r3,r2
	if (fmt == FS_FAT32) {
	 	fs->fsi_flag = 0;
		fs->fsi_sector = bsect + LD_WORD(fs->win+BPB_FSInfo);
		if (disk_read(fs->drv, fs->win, fs->fsi_sector, 1) == RES_OK &&
			LD_WORD(fs->win+BS_55AA) == 0xAA55 &&
			LD_DWORD(fs->win+FSI_LeadSig) == 0x41615252 &&
    256c:	00d85074 	movhi	r3,24897
    2570:	18dc9c84 	addi	r3,r3,29298
    2574:	10ff8b1e 	bne	r2,r3,23a4 <__alt_mem_epcq_avl_mem+0xef8023a4>
			LD_DWORD(fs->win+FSI_StrucSig) == 0x61417272) {
				fs->last_clust = LD_DWORD(fs->win+FSI_Nxt_Free);
    2578:	824087c3 	ldbu	r9,543(r16)
    257c:	81408783 	ldbu	r5,542(r16)
				fs->free_clust = LD_DWORD(fs->win+FSI_Free_Count);
    2580:	820086c3 	ldbu	r8,539(r16)
    2584:	81008683 	ldbu	r4,538(r16)
		fs->fsi_sector = bsect + LD_WORD(fs->win+BPB_FSInfo);
		if (disk_read(fs->drv, fs->win, fs->fsi_sector, 1) == RES_OK &&
			LD_WORD(fs->win+BS_55AA) == 0xAA55 &&
			LD_DWORD(fs->win+FSI_LeadSig) == 0x41615252 &&
			LD_DWORD(fs->win+FSI_StrucSig) == 0x61417272) {
				fs->last_clust = LD_DWORD(fs->win+FSI_Nxt_Free);
    2588:	80c08743 	ldbu	r3,541(r16)
				fs->free_clust = LD_DWORD(fs->win+FSI_Free_Count);
    258c:	80808643 	ldbu	r2,537(r16)
		fs->fsi_sector = bsect + LD_WORD(fs->win+BPB_FSInfo);
		if (disk_read(fs->drv, fs->win, fs->fsi_sector, 1) == RES_OK &&
			LD_WORD(fs->win+BS_55AA) == 0xAA55 &&
			LD_DWORD(fs->win+FSI_LeadSig) == 0x41615252 &&
			LD_DWORD(fs->win+FSI_StrucSig) == 0x61417272) {
				fs->last_clust = LD_DWORD(fs->win+FSI_Nxt_Free);
    2590:	4812963a 	slli	r9,r9,24
    2594:	280a943a 	slli	r5,r5,16
				fs->free_clust = LD_DWORD(fs->win+FSI_Free_Count);
    2598:	4010963a 	slli	r8,r8,24
    259c:	2008943a 	slli	r4,r4,16
		fs->fsi_sector = bsect + LD_WORD(fs->win+BPB_FSInfo);
		if (disk_read(fs->drv, fs->win, fs->fsi_sector, 1) == RES_OK &&
			LD_WORD(fs->win+BS_55AA) == 0xAA55 &&
			LD_DWORD(fs->win+FSI_LeadSig) == 0x41615252 &&
			LD_DWORD(fs->win+FSI_StrucSig) == 0x61417272) {
				fs->last_clust = LD_DWORD(fs->win+FSI_Nxt_Free);
    25a0:	81c08703 	ldbu	r7,540(r16)
				fs->free_clust = LD_DWORD(fs->win+FSI_Free_Count);
    25a4:	81808603 	ldbu	r6,536(r16)
		fs->fsi_sector = bsect + LD_WORD(fs->win+BPB_FSInfo);
		if (disk_read(fs->drv, fs->win, fs->fsi_sector, 1) == RES_OK &&
			LD_WORD(fs->win+BS_55AA) == 0xAA55 &&
			LD_DWORD(fs->win+FSI_LeadSig) == 0x41615252 &&
			LD_DWORD(fs->win+FSI_StrucSig) == 0x61417272) {
				fs->last_clust = LD_DWORD(fs->win+FSI_Nxt_Free);
    25a8:	1806923a 	slli	r3,r3,8
				fs->free_clust = LD_DWORD(fs->win+FSI_Free_Count);
    25ac:	1004923a 	slli	r2,r2,8
		fs->fsi_sector = bsect + LD_WORD(fs->win+BPB_FSInfo);
		if (disk_read(fs->drv, fs->win, fs->fsi_sector, 1) == RES_OK &&
			LD_WORD(fs->win+BS_55AA) == 0xAA55 &&
			LD_DWORD(fs->win+FSI_LeadSig) == 0x41615252 &&
			LD_DWORD(fs->win+FSI_StrucSig) == 0x61417272) {
				fs->last_clust = LD_DWORD(fs->win+FSI_Nxt_Free);
    25b0:	494ab03a 	or	r5,r9,r5
				fs->free_clust = LD_DWORD(fs->win+FSI_Free_Count);
    25b4:	4108b03a 	or	r4,r8,r4
    25b8:	29cab03a 	or	r5,r5,r7
    25bc:	2188b03a 	or	r4,r4,r6
    25c0:	2084b03a 	or	r2,r4,r2
		fs->fsi_sector = bsect + LD_WORD(fs->win+BPB_FSInfo);
		if (disk_read(fs->drv, fs->win, fs->fsi_sector, 1) == RES_OK &&
			LD_WORD(fs->win+BS_55AA) == 0xAA55 &&
			LD_DWORD(fs->win+FSI_LeadSig) == 0x41615252 &&
			LD_DWORD(fs->win+FSI_StrucSig) == 0x61417272) {
				fs->last_clust = LD_DWORD(fs->win+FSI_Nxt_Free);
    25c4:	28c6b03a 	or	r3,r5,r3
				fs->free_clust = LD_DWORD(fs->win+FSI_Free_Count);
    25c8:	80800415 	stw	r2,16(r16)
		fs->fsi_sector = bsect + LD_WORD(fs->win+BPB_FSInfo);
		if (disk_read(fs->drv, fs->win, fs->fsi_sector, 1) == RES_OK &&
			LD_WORD(fs->win+BS_55AA) == 0xAA55 &&
			LD_DWORD(fs->win+FSI_LeadSig) == 0x41615252 &&
			LD_DWORD(fs->win+FSI_StrucSig) == 0x61417272) {
				fs->last_clust = LD_DWORD(fs->win+FSI_Nxt_Free);
    25cc:	80c00315 	stw	r3,12(r16)
				fs->free_clust = LD_DWORD(fs->win+FSI_Free_Count);
    25d0:	008000c4 	movi	r2,3
    25d4:	003f7406 	br	23a8 <__alt_mem_epcq_avl_mem+0xef8023a8>
	fmt = FS_FAT12;
	if (nclst >= MIN_FAT16) fmt = FS_FAT16;
	if (nclst >= MIN_FAT32) fmt = FS_FAT32;

	/* Boundaries and Limits */
	fs->n_fatent = nclst + 2;							/* Number of FAT entries */
    25d8:	10800084 	addi	r2,r2,2
	fs->database = bsect + sysect;						/* Data start sector */
    25dc:	34cd883a 	add	r6,r6,r19
	fs->fatbase = bsect + nrsv; 						/* FAT start sector */
    25e0:	9909883a 	add	r4,r19,r4
	fmt = FS_FAT12;
	if (nclst >= MIN_FAT16) fmt = FS_FAT16;
	if (nclst >= MIN_FAT32) fmt = FS_FAT32;

	/* Boundaries and Limits */
	fs->n_fatent = nclst + 2;							/* Number of FAT entries */
    25e4:	80800615 	stw	r2,24(r16)
	fs->database = bsect + sysect;						/* Data start sector */
    25e8:	81800a15 	stw	r6,40(r16)
	fs->fatbase = bsect + nrsv; 						/* FAT start sector */
    25ec:	81000815 	stw	r4,32(r16)
	if (fmt == FS_FAT32) {
		if (fs->n_rootdir) return FR_NO_FILESYSTEM;		/* (BPB_RootEntCnt must be 0) */
		fs->dirbase = LD_DWORD(fs->win+BPB_RootClus);	/* Root directory start cluster */
		szbfat = fs->n_fatent * 4;						/* (Required FAT size) */
	} else {
		if (!fs->n_rootdir)	return FR_NO_FILESYSTEM;	/* (BPB_RootEntCnt must not be 0) */
    25f0:	403eec26 	beq	r8,zero,21a4 <__alt_mem_epcq_avl_mem+0xef8021a4>
		fs->dirbase = fs->fatbase + fasize;				/* Root directory start sector */
		szbfat = (fmt == FS_FAT16) ?					/* (Required FAT size) */
			fs->n_fatent * 2 : fs->n_fatent * 3 / 2 + (fs->n_fatent & 1);
    25f4:	1085883a 	add	r2,r2,r2
	}
	if (fs->fsize < (szbfat + (SS(fs) - 1)) / SS(fs))	/* (BPB_FATSz must not be less than required) */
    25f8:	10807fc4 	addi	r2,r2,511
    25fc:	1004d27a 	srli	r2,r2,9
		if (fs->n_rootdir) return FR_NO_FILESYSTEM;		/* (BPB_RootEntCnt must be 0) */
		fs->dirbase = LD_DWORD(fs->win+BPB_RootClus);	/* Root directory start cluster */
		szbfat = fs->n_fatent * 4;						/* (Required FAT size) */
	} else {
		if (!fs->n_rootdir)	return FR_NO_FILESYSTEM;	/* (BPB_RootEntCnt must not be 0) */
		fs->dirbase = fs->fatbase + fasize;				/* Root directory start sector */
    2600:	3909883a 	add	r4,r7,r4
    2604:	81000915 	stw	r4,36(r16)
		szbfat = (fmt == FS_FAT16) ?					/* (Required FAT size) */
			fs->n_fatent * 2 : fs->n_fatent * 3 / 2 + (fs->n_fatent & 1);
	}
	if (fs->fsize < (szbfat + (SS(fs) - 1)) / SS(fs))	/* (BPB_FATSz must not be less than required) */
    2608:	28bee636 	bltu	r5,r2,21a4 <__alt_mem_epcq_avl_mem+0xef8021a4>
		return FR_NO_FILESYSTEM;

#if !_FS_READONLY
	/* Initialize cluster allocation information */
	fs->free_clust = 0xFFFFFFFF;
    260c:	00bfffc4 	movi	r2,-1
    2610:	80800415 	stw	r2,16(r16)
	fs->last_clust = 0;
    2614:	80000315 	stw	zero,12(r16)
    2618:	00800084 	movi	r2,2
    261c:	003f6206 	br	23a8 <__alt_mem_epcq_avl_mem+0xef8023a8>
	fmt = FS_FAT12;
	if (nclst >= MIN_FAT16) fmt = FS_FAT16;
	if (nclst >= MIN_FAT32) fmt = FS_FAT32;

	/* Boundaries and Limits */
	fs->n_fatent = nclst + 2;							/* Number of FAT entries */
    2620:	10800084 	addi	r2,r2,2
	fs->database = bsect + sysect;						/* Data start sector */
    2624:	34cd883a 	add	r6,r6,r19
	fs->fatbase = bsect + nrsv; 						/* FAT start sector */
    2628:	9909883a 	add	r4,r19,r4
	fmt = FS_FAT12;
	if (nclst >= MIN_FAT16) fmt = FS_FAT16;
	if (nclst >= MIN_FAT32) fmt = FS_FAT32;

	/* Boundaries and Limits */
	fs->n_fatent = nclst + 2;							/* Number of FAT entries */
    262c:	80800615 	stw	r2,24(r16)
	fs->database = bsect + sysect;						/* Data start sector */
    2630:	81800a15 	stw	r6,40(r16)
	fs->fatbase = bsect + nrsv; 						/* FAT start sector */
    2634:	81000815 	stw	r4,32(r16)
	if (fmt == FS_FAT32) {
		if (fs->n_rootdir) return FR_NO_FILESYSTEM;		/* (BPB_RootEntCnt must be 0) */
		fs->dirbase = LD_DWORD(fs->win+BPB_RootClus);	/* Root directory start cluster */
		szbfat = fs->n_fatent * 4;						/* (Required FAT size) */
	} else {
		if (!fs->n_rootdir)	return FR_NO_FILESYSTEM;	/* (BPB_RootEntCnt must not be 0) */
    2638:	403eda26 	beq	r8,zero,21a4 <__alt_mem_epcq_avl_mem+0xef8021a4>
		fs->dirbase = fs->fatbase + fasize;				/* Root directory start sector */
		szbfat = (fmt == FS_FAT16) ?					/* (Required FAT size) */
			fs->n_fatent * 2 : fs->n_fatent * 3 / 2 + (fs->n_fatent & 1);
    263c:	1087883a 	add	r3,r2,r2
    2640:	1887883a 	add	r3,r3,r2
    2644:	1806d07a 	srli	r3,r3,1
    2648:	1080004c 	andi	r2,r2,1
    264c:	10807fc4 	addi	r2,r2,511
	}
	if (fs->fsize < (szbfat + (SS(fs) - 1)) / SS(fs))	/* (BPB_FATSz must not be less than required) */
    2650:	10c5883a 	add	r2,r2,r3
    2654:	1004d27a 	srli	r2,r2,9
		if (fs->n_rootdir) return FR_NO_FILESYSTEM;		/* (BPB_RootEntCnt must be 0) */
		fs->dirbase = LD_DWORD(fs->win+BPB_RootClus);	/* Root directory start cluster */
		szbfat = fs->n_fatent * 4;						/* (Required FAT size) */
	} else {
		if (!fs->n_rootdir)	return FR_NO_FILESYSTEM;	/* (BPB_RootEntCnt must not be 0) */
		fs->dirbase = fs->fatbase + fasize;				/* Root directory start sector */
    2658:	3909883a 	add	r4,r7,r4
    265c:	81000915 	stw	r4,36(r16)
		szbfat = (fmt == FS_FAT16) ?					/* (Required FAT size) */
			fs->n_fatent * 2 : fs->n_fatent * 3 / 2 + (fs->n_fatent & 1);
	}
	if (fs->fsize < (szbfat + (SS(fs) - 1)) / SS(fs))	/* (BPB_FATSz must not be less than required) */
    2660:	28bed036 	bltu	r5,r2,21a4 <__alt_mem_epcq_avl_mem+0xef8021a4>
		return FR_NO_FILESYSTEM;

#if !_FS_READONLY
	/* Initialize cluster allocation information */
	fs->free_clust = 0xFFFFFFFF;
    2664:	00bfffc4 	movi	r2,-1
    2668:	80800415 	stw	r2,16(r16)
	fs->last_clust = 0;
    266c:	80000315 	stw	zero,12(r16)
	/* Determine the FAT sub type */
	sysect = nrsv + fasize + fs->n_rootdir / (SS(fs) / SZ_DIR);	/* RSV+FAT+DIR */
	if (tsect < sysect) return FR_NO_FILESYSTEM;		/* (Invalid volume size) */
	nclst = (tsect - sysect) / fs->csize;				/* Number of clusters */
	if (!nclst) return FR_NO_FILESYSTEM;				/* (Invalid volume size) */
	fmt = FS_FAT12;
    2670:	00800044 	movi	r2,1
    2674:	003f4c06 	br	23a8 <__alt_mem_epcq_avl_mem+0xef8023a8>

00002678 <get_fat.part.3>:
/*-----------------------------------------------------------------------*/
/* FAT access - Read value of a FAT entry                                */
/*-----------------------------------------------------------------------*/


DWORD get_fat (	/* 0xFFFFFFFF:Disk error, 1:Internal error, Else:Cluster status */
    2678:	defff604 	addi	sp,sp,-40
    267c:	dc400115 	stw	r17,4(sp)
    2680:	dc000015 	stw	r16,0(sp)
    2684:	dfc00915 	stw	ra,36(sp)
    2688:	df000815 	stw	fp,32(sp)
    268c:	ddc00715 	stw	r23,28(sp)
    2690:	dd800615 	stw	r22,24(sp)
    2694:	dd400515 	stw	r21,20(sp)
    2698:	dd000415 	stw	r20,16(sp)
    269c:	dcc00315 	stw	r19,12(sp)
    26a0:	dc800215 	stw	r18,8(sp)


	if (clst < 2 || clst >= fs->n_fatent)	/* Chack range */
		return 1;

	switch (fs->fs_type) {
    26a4:	24800003 	ldbu	r18,0(r4)
    26a8:	00800084 	movi	r2,2
/*-----------------------------------------------------------------------*/
/* FAT access - Read value of a FAT entry                                */
/*-----------------------------------------------------------------------*/


DWORD get_fat (	/* 0xFFFFFFFF:Disk error, 1:Internal error, Else:Cluster status */
    26ac:	2021883a 	mov	r16,r4
    26b0:	2823883a 	mov	r17,r5


	if (clst < 2 || clst >= fs->n_fatent)	/* Chack range */
		return 1;

	switch (fs->fs_type) {
    26b4:	90805b26 	beq	r18,r2,2824 <get_fat.part.3+0x1ac>
    26b8:	008000c4 	movi	r2,3
    26bc:	90803626 	beq	r18,r2,2798 <get_fat.part.3+0x120>
    26c0:	00800044 	movi	r2,1
    26c4:	90800d26 	beq	r18,r2,26fc <get_fat.part.3+0x84>
		if (move_window(fs, fs->fatbase + (clst / (SS(fs) / 4)))) break;
		p = &fs->win[clst * 4 % SS(fs)];
		return LD_DWORD(p) & 0x0FFFFFFF;
	}

	return 0xFFFFFFFF;	/* An error occurred at the disk I/O layer */
    26c8:	00bfffc4 	movi	r2,-1
}
    26cc:	dfc00917 	ldw	ra,36(sp)
    26d0:	df000817 	ldw	fp,32(sp)
    26d4:	ddc00717 	ldw	r23,28(sp)
    26d8:	dd800617 	ldw	r22,24(sp)
    26dc:	dd400517 	ldw	r21,20(sp)
    26e0:	dd000417 	ldw	r20,16(sp)
    26e4:	dcc00317 	ldw	r19,12(sp)
    26e8:	dc800217 	ldw	r18,8(sp)
    26ec:	dc400117 	ldw	r17,4(sp)
    26f0:	dc000017 	ldw	r16,0(sp)
    26f4:	dec00a04 	addi	sp,sp,40
    26f8:	f800283a 	ret
	if (clst < 2 || clst >= fs->n_fatent)	/* Chack range */
		return 1;

	switch (fs->fs_type) {
	case FS_FAT12 :
		bc = (UINT)clst; bc += bc / 2;
    26fc:	28a6d83a 	srl	r19,r5,r2
		if (move_window(fs, fs->fatbase + (bc / SS(fs)))) break;
    2700:	20800817 	ldw	r2,32(r4)
)					/* Move to zero only writes back dirty window */
{
	DWORD wsect;


	wsect = fs->winsect;
    2704:	25400b17 	ldw	r21,44(r4)
	if (clst < 2 || clst >= fs->n_fatent)	/* Chack range */
		return 1;

	switch (fs->fs_type) {
	case FS_FAT12 :
		bc = (UINT)clst; bc += bc / 2;
    2708:	9967883a 	add	r19,r19,r5
		if (move_window(fs, fs->fatbase + (bc / SS(fs)))) break;
    270c:	9828d27a 	srli	r20,r19,9
    2710:	a0a9883a 	add	r20,r20,r2
{
	DWORD wsect;


	wsect = fs->winsect;
	if (wsect != sector) {	/* Changed current window */
    2714:	a5400526 	beq	r20,r21,272c <get_fat.part.3+0xb4>
#if !_FS_READONLY
		if (fs->wflag) {	/* Write back dirty window if needed */
    2718:	20800103 	ldbu	r2,4(r4)
    271c:	1000761e 	bne	r2,zero,28f8 <get_fat.part.3+0x280>
					disk_write(fs->drv, fs->win, wsect, 1);
				}
			}
		}
#endif
		if (sector) {
    2720:	a000ae1e 	bne	r20,zero,29dc <get_fat.part.3+0x364>
    2724:	80800817 	ldw	r2,32(r16)
    2728:	85000b17 	ldw	r20,44(r16)

	switch (fs->fs_type) {
	case FS_FAT12 :
		bc = (UINT)clst; bc += bc / 2;
		if (move_window(fs, fs->fatbase + (bc / SS(fs)))) break;
		wc = fs->win[bc % SS(fs)]; bc++;
    272c:	9d800044 	addi	r22,r19,1
		if (move_window(fs, fs->fatbase + (bc / SS(fs)))) break;
    2730:	b02ad27a 	srli	r21,r22,9

	switch (fs->fs_type) {
	case FS_FAT12 :
		bc = (UINT)clst; bc += bc / 2;
		if (move_window(fs, fs->fatbase + (bc / SS(fs)))) break;
		wc = fs->win[bc % SS(fs)]; bc++;
    2734:	9cc07fcc 	andi	r19,r19,511
    2738:	84e7883a 	add	r19,r16,r19
		if (move_window(fs, fs->fatbase + (bc / SS(fs)))) break;
    273c:	156b883a 	add	r21,r2,r21

	switch (fs->fs_type) {
	case FS_FAT12 :
		bc = (UINT)clst; bc += bc / 2;
		if (move_window(fs, fs->fatbase + (bc / SS(fs)))) break;
		wc = fs->win[bc % SS(fs)]; bc++;
    2740:	9c800c03 	ldbu	r18,48(r19)
{
	DWORD wsect;


	wsect = fs->winsect;
	if (wsect != sector) {	/* Changed current window */
    2744:	ad000a26 	beq	r21,r20,2770 <get_fat.part.3+0xf8>
#if !_FS_READONLY
		if (fs->wflag) {	/* Write back dirty window if needed */
    2748:	80800103 	ldbu	r2,4(r16)
    274c:	1000ac1e 	bne	r2,zero,2a00 <get_fat.part.3+0x388>
					disk_write(fs->drv, fs->win, wsect, 1);
				}
			}
		}
#endif
		if (sector) {
    2750:	a8000726 	beq	r21,zero,2770 <get_fat.part.3+0xf8>
			if (disk_read(fs->drv, fs->win, sector, 1) != RES_OK)
    2754:	81000043 	ldbu	r4,1(r16)
    2758:	81400c04 	addi	r5,r16,48
    275c:	a80d883a 	mov	r6,r21
    2760:	01c00044 	movi	r7,1
    2764:	000b5000 	call	b500 <disk_read>
    2768:	103fd71e 	bne	r2,zero,26c8 <__alt_mem_epcq_avl_mem+0xef8026c8>
				return FR_DISK_ERR;
			fs->winsect = sector;
    276c:	85400b15 	stw	r21,44(r16)
	case FS_FAT12 :
		bc = (UINT)clst; bc += bc / 2;
		if (move_window(fs, fs->fatbase + (bc / SS(fs)))) break;
		wc = fs->win[bc % SS(fs)]; bc++;
		if (move_window(fs, fs->fatbase + (bc / SS(fs)))) break;
		wc |= fs->win[bc % SS(fs)] << 8;
    2770:	b5807fcc 	andi	r22,r22,511
    2774:	85a1883a 	add	r16,r16,r22
    2778:	80800c03 	ldbu	r2,48(r16)

	switch (fs->fs_type) {
	case FS_FAT12 :
		bc = (UINT)clst; bc += bc / 2;
		if (move_window(fs, fs->fatbase + (bc / SS(fs)))) break;
		wc = fs->win[bc % SS(fs)]; bc++;
    277c:	94803fcc 	andi	r18,r18,255
		if (move_window(fs, fs->fatbase + (bc / SS(fs)))) break;
		wc |= fs->win[bc % SS(fs)] << 8;
		return (clst & 1) ? (wc >> 4) : (wc & 0xFFF);
    2780:	8c40004c 	andi	r17,r17,1
	case FS_FAT12 :
		bc = (UINT)clst; bc += bc / 2;
		if (move_window(fs, fs->fatbase + (bc / SS(fs)))) break;
		wc = fs->win[bc % SS(fs)]; bc++;
		if (move_window(fs, fs->fatbase + (bc / SS(fs)))) break;
		wc |= fs->win[bc % SS(fs)] << 8;
    2784:	1004923a 	slli	r2,r2,8
    2788:	14a4b03a 	or	r18,r2,r18
		return (clst & 1) ? (wc >> 4) : (wc & 0xFFF);
    278c:	8800b926 	beq	r17,zero,2a74 <get_fat.part.3+0x3fc>
    2790:	9004d13a 	srli	r2,r18,4
    2794:	003fcd06 	br	26cc <__alt_mem_epcq_avl_mem+0xef8026cc>
		if (move_window(fs, fs->fatbase + (clst / (SS(fs) / 2)))) break;
		p = &fs->win[clst * 2 % SS(fs)];
		return LD_WORD(p);

	case FS_FAT32 :
		if (move_window(fs, fs->fatbase + (clst / (SS(fs) / 4)))) break;
    2798:	2824d1fa 	srli	r18,r5,7
    279c:	20800817 	ldw	r2,32(r4)
)					/* Move to zero only writes back dirty window */
{
	DWORD wsect;


	wsect = fs->winsect;
    27a0:	24c00b17 	ldw	r19,44(r4)
		if (move_window(fs, fs->fatbase + (clst / (SS(fs) / 2)))) break;
		p = &fs->win[clst * 2 % SS(fs)];
		return LD_WORD(p);

	case FS_FAT32 :
		if (move_window(fs, fs->fatbase + (clst / (SS(fs) / 4)))) break;
    27a4:	90a5883a 	add	r18,r18,r2
{
	DWORD wsect;


	wsect = fs->winsect;
	if (wsect != sector) {	/* Changed current window */
    27a8:	94c00a26 	beq	r18,r19,27d4 <get_fat.part.3+0x15c>
#if !_FS_READONLY
		if (fs->wflag) {	/* Write back dirty window if needed */
    27ac:	20800103 	ldbu	r2,4(r4)
    27b0:	10006d1e 	bne	r2,zero,2968 <get_fat.part.3+0x2f0>
					disk_write(fs->drv, fs->win, wsect, 1);
				}
			}
		}
#endif
		if (sector) {
    27b4:	90000726 	beq	r18,zero,27d4 <get_fat.part.3+0x15c>
			if (disk_read(fs->drv, fs->win, sector, 1) != RES_OK)
    27b8:	81000043 	ldbu	r4,1(r16)
    27bc:	81400c04 	addi	r5,r16,48
    27c0:	900d883a 	mov	r6,r18
    27c4:	01c00044 	movi	r7,1
    27c8:	000b5000 	call	b500 <disk_read>
    27cc:	103fbe1e 	bne	r2,zero,26c8 <__alt_mem_epcq_avl_mem+0xef8026c8>
				return FR_DISK_ERR;
			fs->winsect = sector;
    27d0:	84800b15 	stw	r18,44(r16)
		p = &fs->win[clst * 2 % SS(fs)];
		return LD_WORD(p);

	case FS_FAT32 :
		if (move_window(fs, fs->fatbase + (clst / (SS(fs) / 4)))) break;
		p = &fs->win[clst * 4 % SS(fs)];
    27d4:	8c63883a 	add	r17,r17,r17
    27d8:	8c63883a 	add	r17,r17,r17
    27dc:	8c407f0c 	andi	r17,r17,508
    27e0:	88c00c04 	addi	r3,r17,48
    27e4:	80c7883a 	add	r3,r16,r3
		return LD_DWORD(p) & 0x0FFFFFFF;
    27e8:	18800083 	ldbu	r2,2(r3)
    27ec:	190000c3 	ldbu	r4,3(r3)
    27f0:	18c00043 	ldbu	r3,1(r3)
    27f4:	1004943a 	slli	r2,r2,16
    27f8:	2008963a 	slli	r4,r4,24
    27fc:	1806923a 	slli	r3,r3,8
    2800:	8461883a 	add	r16,r16,r17
    2804:	81400c03 	ldbu	r5,48(r16)
    2808:	1104b03a 	or	r2,r2,r4
    280c:	10c4b03a 	or	r2,r2,r3
    2810:	1146b03a 	or	r3,r2,r5
    2814:	00840034 	movhi	r2,4096
    2818:	10bfffc4 	addi	r2,r2,-1
    281c:	1884703a 	and	r2,r3,r2
    2820:	003faa06 	br	26cc <__alt_mem_epcq_avl_mem+0xef8026cc>
		if (move_window(fs, fs->fatbase + (bc / SS(fs)))) break;
		wc |= fs->win[bc % SS(fs)] << 8;
		return (clst & 1) ? (wc >> 4) : (wc & 0xFFF);

	case FS_FAT16 :
		if (move_window(fs, fs->fatbase + (clst / (SS(fs) / 2)))) break;
    2824:	2824d23a 	srli	r18,r5,8
    2828:	20800817 	ldw	r2,32(r4)
)					/* Move to zero only writes back dirty window */
{
	DWORD wsect;


	wsect = fs->winsect;
    282c:	24c00b17 	ldw	r19,44(r4)
		if (move_window(fs, fs->fatbase + (bc / SS(fs)))) break;
		wc |= fs->win[bc % SS(fs)] << 8;
		return (clst & 1) ? (wc >> 4) : (wc & 0xFFF);

	case FS_FAT16 :
		if (move_window(fs, fs->fatbase + (clst / (SS(fs) / 2)))) break;
    2830:	90a5883a 	add	r18,r18,r2
{
	DWORD wsect;


	wsect = fs->winsect;
	if (wsect != sector) {	/* Changed current window */
    2834:	94c00a26 	beq	r18,r19,2860 <get_fat.part.3+0x1e8>
#if !_FS_READONLY
		if (fs->wflag) {	/* Write back dirty window if needed */
    2838:	20800103 	ldbu	r2,4(r4)
    283c:	1000111e 	bne	r2,zero,2884 <get_fat.part.3+0x20c>
					disk_write(fs->drv, fs->win, wsect, 1);
				}
			}
		}
#endif
		if (sector) {
    2840:	90000726 	beq	r18,zero,2860 <get_fat.part.3+0x1e8>
			if (disk_read(fs->drv, fs->win, sector, 1) != RES_OK)
    2844:	81000043 	ldbu	r4,1(r16)
    2848:	81400c04 	addi	r5,r16,48
    284c:	900d883a 	mov	r6,r18
    2850:	01c00044 	movi	r7,1
    2854:	000b5000 	call	b500 <disk_read>
    2858:	103f9b1e 	bne	r2,zero,26c8 <__alt_mem_epcq_avl_mem+0xef8026c8>
				return FR_DISK_ERR;
			fs->winsect = sector;
    285c:	84800b15 	stw	r18,44(r16)
		wc |= fs->win[bc % SS(fs)] << 8;
		return (clst & 1) ? (wc >> 4) : (wc & 0xFFF);

	case FS_FAT16 :
		if (move_window(fs, fs->fatbase + (clst / (SS(fs) / 2)))) break;
		p = &fs->win[clst * 2 % SS(fs)];
    2860:	8c63883a 	add	r17,r17,r17
    2864:	8c407f8c 	andi	r17,r17,510
		return LD_WORD(p);
    2868:	8445883a 	add	r2,r16,r17
    286c:	10800c43 	ldbu	r2,49(r2)
    2870:	8463883a 	add	r17,r16,r17
    2874:	88c00c03 	ldbu	r3,48(r17)
    2878:	1004923a 	slli	r2,r2,8
    287c:	10c4b03a 	or	r2,r2,r3
    2880:	003f9206 	br	26cc <__alt_mem_epcq_avl_mem+0xef8026cc>

	wsect = fs->winsect;
	if (wsect != sector) {	/* Changed current window */
#if !_FS_READONLY
		if (fs->wflag) {	/* Write back dirty window if needed */
			if (disk_write(fs->drv, fs->win, wsect, 1) != RES_OK)
    2884:	21000043 	ldbu	r4,1(r4)
    2888:	85800c04 	addi	r22,r16,48
    288c:	05400044 	movi	r21,1
    2890:	b00b883a 	mov	r5,r22
    2894:	980d883a 	mov	r6,r19
    2898:	a80f883a 	mov	r7,r21
    289c:	000b6e40 	call	b6e4 <disk_write>
    28a0:	103f891e 	bne	r2,zero,26c8 <__alt_mem_epcq_avl_mem+0xef8026c8>
				return FR_DISK_ERR;
			fs->wflag = 0;
			if (wsect < (fs->fatbase + fs->fsize)) {	/* In FAT area */
    28a4:	80800717 	ldw	r2,28(r16)
    28a8:	80c00817 	ldw	r3,32(r16)
	if (wsect != sector) {	/* Changed current window */
#if !_FS_READONLY
		if (fs->wflag) {	/* Write back dirty window if needed */
			if (disk_write(fs->drv, fs->win, wsect, 1) != RES_OK)
				return FR_DISK_ERR;
			fs->wflag = 0;
    28ac:	80000105 	stb	zero,4(r16)
			if (wsect < (fs->fatbase + fs->fsize)) {	/* In FAT area */
    28b0:	10c7883a 	add	r3,r2,r3
    28b4:	98ffe22e 	bgeu	r19,r3,2840 <__alt_mem_epcq_avl_mem+0xef802840>
				BYTE nf;
				for (nf = fs->n_fats; nf > 1; nf--) {	/* Reflect the change to all FAT copies */
    28b8:	850000c3 	ldbu	r20,3(r16)
    28bc:	a0c03fcc 	andi	r3,r20,255
    28c0:	a8c00236 	bltu	r21,r3,28cc <get_fat.part.3+0x254>
    28c4:	003fde06 	br	2840 <__alt_mem_epcq_avl_mem+0xef802840>
    28c8:	80800717 	ldw	r2,28(r16)
					wsect += fs->fsize;
					disk_write(fs->drv, fs->win, wsect, 1);
    28cc:	81000043 	ldbu	r4,1(r16)
				return FR_DISK_ERR;
			fs->wflag = 0;
			if (wsect < (fs->fatbase + fs->fsize)) {	/* In FAT area */
				BYTE nf;
				for (nf = fs->n_fats; nf > 1; nf--) {	/* Reflect the change to all FAT copies */
					wsect += fs->fsize;
    28d0:	98a7883a 	add	r19,r19,r2
					disk_write(fs->drv, fs->win, wsect, 1);
    28d4:	b00b883a 	mov	r5,r22
    28d8:	980d883a 	mov	r6,r19
    28dc:	01c00044 	movi	r7,1
    28e0:	000b6e40 	call	b6e4 <disk_write>
			if (disk_write(fs->drv, fs->win, wsect, 1) != RES_OK)
				return FR_DISK_ERR;
			fs->wflag = 0;
			if (wsect < (fs->fatbase + fs->fsize)) {	/* In FAT area */
				BYTE nf;
				for (nf = fs->n_fats; nf > 1; nf--) {	/* Reflect the change to all FAT copies */
    28e4:	a0bfffc4 	addi	r2,r20,-1
    28e8:	10c03fcc 	andi	r3,r2,255
    28ec:	1029883a 	mov	r20,r2
    28f0:	1d7ff51e 	bne	r3,r21,28c8 <__alt_mem_epcq_avl_mem+0xef8028c8>
    28f4:	003fd206 	br	2840 <__alt_mem_epcq_avl_mem+0xef802840>

	wsect = fs->winsect;
	if (wsect != sector) {	/* Changed current window */
#if !_FS_READONLY
		if (fs->wflag) {	/* Write back dirty window if needed */
			if (disk_write(fs->drv, fs->win, wsect, 1) != RES_OK)
    28f8:	21000043 	ldbu	r4,1(r4)
    28fc:	85800c04 	addi	r22,r16,48
    2900:	b00b883a 	mov	r5,r22
    2904:	a80d883a 	mov	r6,r21
    2908:	900f883a 	mov	r7,r18
    290c:	000b6e40 	call	b6e4 <disk_write>
    2910:	103f6d1e 	bne	r2,zero,26c8 <__alt_mem_epcq_avl_mem+0xef8026c8>
				return FR_DISK_ERR;
			fs->wflag = 0;
			if (wsect < (fs->fatbase + fs->fsize)) {	/* In FAT area */
    2914:	80800717 	ldw	r2,28(r16)
    2918:	80c00817 	ldw	r3,32(r16)
	if (wsect != sector) {	/* Changed current window */
#if !_FS_READONLY
		if (fs->wflag) {	/* Write back dirty window if needed */
			if (disk_write(fs->drv, fs->win, wsect, 1) != RES_OK)
				return FR_DISK_ERR;
			fs->wflag = 0;
    291c:	80000105 	stb	zero,4(r16)
			if (wsect < (fs->fatbase + fs->fsize)) {	/* In FAT area */
    2920:	10c7883a 	add	r3,r2,r3
    2924:	a8ff7e2e 	bgeu	r21,r3,2720 <__alt_mem_epcq_avl_mem+0xef802720>
				BYTE nf;
				for (nf = fs->n_fats; nf > 1; nf--) {	/* Reflect the change to all FAT copies */
    2928:	85c000c3 	ldbu	r23,3(r16)
    292c:	b8c03fcc 	andi	r3,r23,255
    2930:	90c00236 	bltu	r18,r3,293c <get_fat.part.3+0x2c4>
    2934:	003f7a06 	br	2720 <__alt_mem_epcq_avl_mem+0xef802720>
    2938:	80800717 	ldw	r2,28(r16)
					wsect += fs->fsize;
					disk_write(fs->drv, fs->win, wsect, 1);
    293c:	81000043 	ldbu	r4,1(r16)
				return FR_DISK_ERR;
			fs->wflag = 0;
			if (wsect < (fs->fatbase + fs->fsize)) {	/* In FAT area */
				BYTE nf;
				for (nf = fs->n_fats; nf > 1; nf--) {	/* Reflect the change to all FAT copies */
					wsect += fs->fsize;
    2940:	a8ab883a 	add	r21,r21,r2
					disk_write(fs->drv, fs->win, wsect, 1);
    2944:	b00b883a 	mov	r5,r22
    2948:	a80d883a 	mov	r6,r21
    294c:	01c00044 	movi	r7,1
    2950:	000b6e40 	call	b6e4 <disk_write>
			if (disk_write(fs->drv, fs->win, wsect, 1) != RES_OK)
				return FR_DISK_ERR;
			fs->wflag = 0;
			if (wsect < (fs->fatbase + fs->fsize)) {	/* In FAT area */
				BYTE nf;
				for (nf = fs->n_fats; nf > 1; nf--) {	/* Reflect the change to all FAT copies */
    2954:	b8bfffc4 	addi	r2,r23,-1
    2958:	10c03fcc 	andi	r3,r2,255
    295c:	102f883a 	mov	r23,r2
    2960:	1cbff51e 	bne	r3,r18,2938 <__alt_mem_epcq_avl_mem+0xef802938>
    2964:	003f6e06 	br	2720 <__alt_mem_epcq_avl_mem+0xef802720>

	wsect = fs->winsect;
	if (wsect != sector) {	/* Changed current window */
#if !_FS_READONLY
		if (fs->wflag) {	/* Write back dirty window if needed */
			if (disk_write(fs->drv, fs->win, wsect, 1) != RES_OK)
    2968:	21000043 	ldbu	r4,1(r4)
    296c:	85800c04 	addi	r22,r16,48
    2970:	05400044 	movi	r21,1
    2974:	b00b883a 	mov	r5,r22
    2978:	980d883a 	mov	r6,r19
    297c:	a80f883a 	mov	r7,r21
    2980:	000b6e40 	call	b6e4 <disk_write>
    2984:	103f501e 	bne	r2,zero,26c8 <__alt_mem_epcq_avl_mem+0xef8026c8>
				return FR_DISK_ERR;
			fs->wflag = 0;
			if (wsect < (fs->fatbase + fs->fsize)) {	/* In FAT area */
    2988:	80800717 	ldw	r2,28(r16)
    298c:	80c00817 	ldw	r3,32(r16)
	if (wsect != sector) {	/* Changed current window */
#if !_FS_READONLY
		if (fs->wflag) {	/* Write back dirty window if needed */
			if (disk_write(fs->drv, fs->win, wsect, 1) != RES_OK)
				return FR_DISK_ERR;
			fs->wflag = 0;
    2990:	80000105 	stb	zero,4(r16)
			if (wsect < (fs->fatbase + fs->fsize)) {	/* In FAT area */
    2994:	10c7883a 	add	r3,r2,r3
    2998:	98ff862e 	bgeu	r19,r3,27b4 <__alt_mem_epcq_avl_mem+0xef8027b4>
				BYTE nf;
				for (nf = fs->n_fats; nf > 1; nf--) {	/* Reflect the change to all FAT copies */
    299c:	850000c3 	ldbu	r20,3(r16)
    29a0:	a0c03fcc 	andi	r3,r20,255
    29a4:	a8c00236 	bltu	r21,r3,29b0 <get_fat.part.3+0x338>
    29a8:	003f8206 	br	27b4 <__alt_mem_epcq_avl_mem+0xef8027b4>
    29ac:	80800717 	ldw	r2,28(r16)
					wsect += fs->fsize;
					disk_write(fs->drv, fs->win, wsect, 1);
    29b0:	81000043 	ldbu	r4,1(r16)
				return FR_DISK_ERR;
			fs->wflag = 0;
			if (wsect < (fs->fatbase + fs->fsize)) {	/* In FAT area */
				BYTE nf;
				for (nf = fs->n_fats; nf > 1; nf--) {	/* Reflect the change to all FAT copies */
					wsect += fs->fsize;
    29b4:	98a7883a 	add	r19,r19,r2
					disk_write(fs->drv, fs->win, wsect, 1);
    29b8:	b00b883a 	mov	r5,r22
    29bc:	980d883a 	mov	r6,r19
    29c0:	01c00044 	movi	r7,1
    29c4:	000b6e40 	call	b6e4 <disk_write>
			if (disk_write(fs->drv, fs->win, wsect, 1) != RES_OK)
				return FR_DISK_ERR;
			fs->wflag = 0;
			if (wsect < (fs->fatbase + fs->fsize)) {	/* In FAT area */
				BYTE nf;
				for (nf = fs->n_fats; nf > 1; nf--) {	/* Reflect the change to all FAT copies */
    29c8:	a0bfffc4 	addi	r2,r20,-1
    29cc:	10c03fcc 	andi	r3,r2,255
    29d0:	1029883a 	mov	r20,r2
    29d4:	1d7ff51e 	bne	r3,r21,29ac <__alt_mem_epcq_avl_mem+0xef8029ac>
    29d8:	003f7606 	br	27b4 <__alt_mem_epcq_avl_mem+0xef8027b4>
				}
			}
		}
#endif
		if (sector) {
			if (disk_read(fs->drv, fs->win, sector, 1) != RES_OK)
    29dc:	81000043 	ldbu	r4,1(r16)
    29e0:	81400c04 	addi	r5,r16,48
    29e4:	a00d883a 	mov	r6,r20
    29e8:	01c00044 	movi	r7,1
    29ec:	000b5000 	call	b500 <disk_read>
    29f0:	103f351e 	bne	r2,zero,26c8 <__alt_mem_epcq_avl_mem+0xef8026c8>
				return FR_DISK_ERR;
			fs->winsect = sector;
    29f4:	85000b15 	stw	r20,44(r16)
    29f8:	80800817 	ldw	r2,32(r16)
    29fc:	003f4b06 	br	272c <__alt_mem_epcq_avl_mem+0xef80272c>

	wsect = fs->winsect;
	if (wsect != sector) {	/* Changed current window */
#if !_FS_READONLY
		if (fs->wflag) {	/* Write back dirty window if needed */
			if (disk_write(fs->drv, fs->win, wsect, 1) != RES_OK)
    2a00:	81000043 	ldbu	r4,1(r16)
    2a04:	85c00c04 	addi	r23,r16,48
    2a08:	04c00044 	movi	r19,1
    2a0c:	b80b883a 	mov	r5,r23
    2a10:	a00d883a 	mov	r6,r20
    2a14:	980f883a 	mov	r7,r19
    2a18:	000b6e40 	call	b6e4 <disk_write>
    2a1c:	103f2a1e 	bne	r2,zero,26c8 <__alt_mem_epcq_avl_mem+0xef8026c8>
				return FR_DISK_ERR;
			fs->wflag = 0;
			if (wsect < (fs->fatbase + fs->fsize)) {	/* In FAT area */
    2a20:	80800717 	ldw	r2,28(r16)
    2a24:	80c00817 	ldw	r3,32(r16)
	if (wsect != sector) {	/* Changed current window */
#if !_FS_READONLY
		if (fs->wflag) {	/* Write back dirty window if needed */
			if (disk_write(fs->drv, fs->win, wsect, 1) != RES_OK)
				return FR_DISK_ERR;
			fs->wflag = 0;
    2a28:	80000105 	stb	zero,4(r16)
			if (wsect < (fs->fatbase + fs->fsize)) {	/* In FAT area */
    2a2c:	10c7883a 	add	r3,r2,r3
    2a30:	a0ff472e 	bgeu	r20,r3,2750 <__alt_mem_epcq_avl_mem+0xef802750>
				BYTE nf;
				for (nf = fs->n_fats; nf > 1; nf--) {	/* Reflect the change to all FAT copies */
    2a34:	870000c3 	ldbu	fp,3(r16)
    2a38:	e0c03fcc 	andi	r3,fp,255
    2a3c:	98c00236 	bltu	r19,r3,2a48 <get_fat.part.3+0x3d0>
    2a40:	003f4306 	br	2750 <__alt_mem_epcq_avl_mem+0xef802750>
    2a44:	80800717 	ldw	r2,28(r16)
					wsect += fs->fsize;
					disk_write(fs->drv, fs->win, wsect, 1);
    2a48:	81000043 	ldbu	r4,1(r16)
				return FR_DISK_ERR;
			fs->wflag = 0;
			if (wsect < (fs->fatbase + fs->fsize)) {	/* In FAT area */
				BYTE nf;
				for (nf = fs->n_fats; nf > 1; nf--) {	/* Reflect the change to all FAT copies */
					wsect += fs->fsize;
    2a4c:	a0a9883a 	add	r20,r20,r2
					disk_write(fs->drv, fs->win, wsect, 1);
    2a50:	b80b883a 	mov	r5,r23
    2a54:	a00d883a 	mov	r6,r20
    2a58:	01c00044 	movi	r7,1
    2a5c:	000b6e40 	call	b6e4 <disk_write>
			if (disk_write(fs->drv, fs->win, wsect, 1) != RES_OK)
				return FR_DISK_ERR;
			fs->wflag = 0;
			if (wsect < (fs->fatbase + fs->fsize)) {	/* In FAT area */
				BYTE nf;
				for (nf = fs->n_fats; nf > 1; nf--) {	/* Reflect the change to all FAT copies */
    2a60:	e0bfffc4 	addi	r2,fp,-1
    2a64:	10c03fcc 	andi	r3,r2,255
    2a68:	1039883a 	mov	fp,r2
